(lp0
(lp1
S'147.32.84.164'
p2
aI2113
aI1
aI1
aI3
aL0L
aa(lp3
g2
aI2113
aI1
aI1
aI3
aL0L
aa(lp4
g2
aI2113
aI1
aI1
aI3
aL0L
aa(lp5
S'147.32.84.134'
p6
aI11
aI1
aI1
aI4
aL0L
aa(lp7
g6
aI11
aI2
aI1
aI4
aL0L
aa(lp8
g6
aI11
aI1
aI1
aI4
aL0L
aa(lp9
S'147.32.84.170'
p10
aI581
aI407
aI1
aI368
aL0L
aa(lp11
g10
aI581
aI407
aI1
aI368
aL0L
aa(lp12
g10
aI581
aI18
aI1
aI164
aL0L
aa(lp13
g10
aI581
aI2
aI1
aI1
aL0L
aa(lp14
g6
aI11
aI1
aI1
aI4
aL0L
aa(lp15
g10
aI581
aI27
aI1
aI43
aL0L
aa(lp16
g10
aI581
aI2
aI1
aI164
aL0L
aa(lp17
S'147.32.80.9'
p18
aI1
aI1
aI1
aI1
aL0L
aa(lp19
g10
aI581
aI407
aI1
aI368
aL0L
aa(lp20
g10
aI581
aI407
aI1
aI368
aL0L
aa(lp21
g10
aI581
aI17
aI1
aI164
aL0L
aa(lp22
g10
aI581
aI2
aI1
aI43
aL0L
aa(lp23
g10
aI581
aI1
aI1
aI43
aL0L
aa(lp24
g10
aI581
aI407
aI1
aI368
aL0L
aa(lp25
g10
aI581
aI407
aI1
aI368
aL0L
aa(lp26
g10
aI581
aI20
aI1
aI164
aL0L
aa(lp27
g10
aI581
aI407
aI1
aI368
aL0L
aa(lp28
g10
aI581
aI407
aI1
aI368
aL0L
aa(lp29
g10
aI581
aI30
aI1
aI164
aL0L
aa(lp30
g2
aI2113
aI2
aI1
aI1
aL0L
aa(lp31
g10
aI581
aI2
aI1
aI164
aL0L
aa(lp32
g10
aI581
aI407
aI1
aI368
aL0L
aa(lp33
g10
aI581
aI407
aI1
aI368
aL0L
aa(lp34
g10
aI581
aI17
aI1
aI164
aL0L
aa(lp35
g10
aI581
aI407
aI1
aI368
aL0L
aa(lp36
g10
aI581
aI407
aI1
aI368
aL0L
aa(lp37
g10
aI581
aI407
aI1
aI368
aL0L
aa(lp38
g10
aI581
aI1
aI1
aI1
aL0L
aa(lp39
g10
aI581
aI407
aI1
aI368
aL0L
aa(lp40
g10
aI581
aI407
aI1
aI368
aL0L
aa(lp41
g10
aI581
aI26
aI1
aI164
aL0L
aa(lp42
g10
aI581
aI407
aI1
aI368
aL0L
aa(lp43
g10
aI581
aI407
aI1
aI368
aL0L
aa(lp44
g10
aI581
aI27
aI1
aI164
aL0L
aa(lp45
g10
aI581
aI407
aI1
aI368
aL0L
aa(lp46
g10
aI581
aI407
aI1
aI368
aL0L
aa(lp47
g10
aI581
aI30
aI1
aI164
aL0L
aa(lp48
g10
aI581
aI407
aI1
aI368
aL0L
aa(lp49
g10
aI581
aI407
aI1
aI368
aL0L
aa(lp50
g10
aI581
aI20
aI1
aI164
aL0L
aa(lp51
g10
aI581
aI407
aI1
aI368
aL0L
aa(lp52
g10
aI581
aI407
aI1
aI368
aL0L
aa(lp53
g10
aI581
aI20
aI1
aI164
aL0L
aa(lp54
g10
aI581
aI407
aI1
aI368
aL0L
aa(lp55
g10
aI581
aI407
aI1
aI368
aL0L
aa(lp56
g10
aI581
aI17
aI1
aI164
aL0L
aa(lp57
g10
aI581
aI407
aI1
aI368
aL0L
aa(lp58
g10
aI581
aI407
aI2
aI368
aL0L
aa(lp59
g10
aI581
aI30
aI1
aI164
aL0L
aa(lp60
g10
aI581
aI407
aI1
aI368
aL0L
aa(lp61
g10
aI581
aI407
aI1
aI368
aL0L
aa(lp62
g10
aI581
aI20
aI1
aI164
aL0L
aa(lp63
g10
aI581
aI407
aI1
aI368
aL0L
aa(lp64
g10
aI581
aI407
aI1
aI368
aL0L
aa(lp65
g10
aI581
aI18
aI1
aI164
aL0L
aa(lp66
g10
aI581
aI407
aI1
aI368
aL0L
aa(lp67
g10
aI581
aI407
aI1
aI368
aL0L
aa(lp68
g10
aI581
aI20
aI1
aI164
aL0L
aa(lp69
g10
aI581
aI407
aI1
aI368
aL0L
aa(lp70
g10
aI581
aI407
aI1
aI368
aL0L
aa(lp71
g10
aI581
aI30
aI1
aI164
aL0L
aa(lp72
g10
aI581
aI407
aI1
aI368
aL0L
aa(lp73
g10
aI581
aI407
aI1
aI368
aL0L
aa(lp74
g10
aI581
aI17
aI1
aI164
aL0L
aa(lp75
g10
aI581
aI407
aI1
aI368
aL0L
aa(lp76
g10
aI581
aI407
aI1
aI368
aL0L
aa(lp77
g10
aI581
aI26
aI1
aI164
aL0L
aa(lp78
g10
aI581
aI407
aI1
aI368
aL0L
aa(lp79
g10
aI581
aI407
aI1
aI368
aL0L
aa(lp80
g10
aI581
aI18
aI1
aI43
aL0L
aa(lp81
g10
aI581
aI407
aI1
aI368
aL0L
aa(lp82
g10
aI581
aI407
aI1
aI368
aL0L
aa(lp83
g10
aI581
aI10
aI1
aI164
aL0L
aa(lp84
g10
aI581
aI407
aI2
aI368
aL0L
aa(lp85
g10
aI581
aI407
aI1
aI368
aL0L
aa(lp86
g10
aI581
aI30
aI1
aI164
aL0L
aa(lp87
g10
aI581
aI407
aI1
aI368
aL0L
aa(lp88
g10
aI581
aI407
aI1
aI368
aL0L
aa(lp89
g10
aI581
aI27
aI1
aI164
aL0L
aa(lp90
g10
aI581
aI407
aI1
aI368
aL0L
aa(lp91
g10
aI581
aI407
aI1
aI368
aL0L
aa(lp92
g10
aI581
aI10
aI1
aI164
aL0L
aa(lp93
g10
aI581
aI407
aI1
aI368
aL0L
aa(lp94
g10
aI581
aI407
aI1
aI368
aL0L
aa(lp95
g10
aI581
aI10
aI1
aI164
aL0L
aa(lp96
g10
aI581
aI407
aI1
aI368
aL0L
aa(lp97
g10
aI581
aI407
aI1
aI368
aL0L
aa(lp98
g10
aI581
aI30
aI1
aI164
aL0L
aa(lp99
g10
aI581
aI407
aI1
aI368
aL0L
aa(lp100
g10
aI581
aI407
aI1
aI368
aL0L
aa(lp101
g10
aI581
aI26
aI1
aI164
aL0L
aa(lp102
g10
aI581
aI407
aI1
aI368
aL0L
aa(lp103
g10
aI581
aI407
aI1
aI368
aL0L
aa(lp104
g10
aI581
aI5
aI1
aI164
aL0L
aa(lp105
g10
aI581
aI407
aI1
aI368
aL0L
aa(lp106
g10
aI581
aI407
aI1
aI368
aL0L
aa(lp107
g10
aI581
aI1
aI1
aI164
aL0L
aa(lp108
g10
aI581
aI407
aI1
aI368
aL0L
aa(lp109
g10
aI581
aI407
aI1
aI368
aL0L
aa(lp110
g10
aI581
aI17
aI1
aI164
aL0L
aa(lp111
g10
aI581
aI407
aI1
aI368
aL0L
aa(lp112
g10
aI581
aI407
aI1
aI368
aL0L
aa(lp113
g10
aI581
aI10
aI1
aI164
aL0L
aa(lp114
g10
aI581
aI407
aI1
aI368
aL0L
aa(lp115
g10
aI581
aI407
aI1
aI368
aL0L
aa(lp116
g10
aI581
aI30
aI1
aI164
aL0L
aa(lp117
g10
aI581
aI407
aI1
aI368
aL0L
aa(lp118
g10
aI581
aI407
aI1
aI368
aL0L
aa(lp119
g10
aI581
aI18
aI1
aI164
aL0L
aa(lp120
g10
aI581
aI27
aI1
aI43
aL0L
aa(lp121
g10
aI581
aI27
aI1
aI43
aL0L
aa(lp122
g10
aI581
aI26
aI1
aI43
aL0L
aa(lp123
g10
aI581
aI26
aI1
aI43
aL0L
aa(lp124
g10
aI581
aI27
aI1
aI43
aL0L
aa(lp125
g10
aI581
aI26
aI1
aI43
aL0L
aa(lp126
g10
aI581
aI407
aI1
aI368
aL0L
aa(lp127
g10
aI581
aI407
aI1
aI368
aL0L
aa(lp128
g10
aI581
aI18
aI1
aI164
aL0L
aa(lp129
g10
aI581
aI407
aI1
aI368
aL0L
aa(lp130
g10
aI581
aI407
aI1
aI368
aL0L
aa(lp131
g10
aI581
aI26
aI1
aI164
aL0L
aa(lp132
g10
aI581
aI407
aI1
aI368
aL0L
aa(lp133
g10
aI581
aI407
aI1
aI368
aL0L
aa(lp134
g10
aI581
aI30
aI1
aI164
aL0L
aa(lp135
g10
aI581
aI407
aI1
aI368
aL0L
aa(lp136
g10
aI581
aI407
aI1
aI368
aL0L
aa(lp137
g10
aI581
aI26
aI1
aI164
aL0L
aa(lp138
g10
aI581
aI407
aI1
aI368
aL0L
aa(lp139
g10
aI581
aI407
aI1
aI368
aL0L
aa(lp140
g10
aI581
aI17
aI1
aI164
aL0L
aa(lp141
g10
aI581
aI407
aI1
aI368
aL0L
aa(lp142
g10
aI581
aI407
aI1
aI368
aL0L
aa(lp143
g10
aI581
aI20
aI1
aI164
aL0L
aa(lp144
g10
aI581
aI407
aI1
aI368
aL0L
aa(lp145
g10
aI581
aI407
aI1
aI368
aL0L
aa(lp146
g10
aI581
aI30
aI1
aI164
aL0L
aa(lp147
g10
aI581
aI407
aI1
aI368
aL0L
aa(lp148
g10
aI581
aI407
aI1
aI368
aL0L
aa(lp149
g10
aI581
aI20
aI1
aI164
aL0L
aa(lp150
g10
aI581
aI407
aI1
aI368
aL0L
aa(lp151
g10
aI581
aI407
aI1
aI368
aL0L
aa(lp152
g10
aI581
aI10
aI1
aI164
aL0L
aa(lp153
g10
aI581
aI407
aI1
aI368
aL0L
aa(lp154
g10
aI581
aI407
aI1
aI368
aL0L
aa(lp155
g10
aI581
aI18
aI1
aI164
aL0L
aa(lp156
g10
aI581
aI407
aI1
aI368
aL0L
aa(lp157
g10
aI581
aI407
aI1
aI368
aL0L
aa(lp158
g10
aI581
aI30
aI1
aI164
aL0L
aa(lp159
g10
aI581
aI407
aI1
aI368
aL0L
aa(lp160
g10
aI581
aI407
aI1
aI368
aL0L
aa(lp161
g10
aI581
aI17
aI1
aI164
aL0L
aa(lp162
g10
aI581
aI407
aI1
aI368
aL0L
aa(lp163
g10
aI581
aI407
aI1
aI368
aL0L
aa(lp164
g10
aI581
aI27
aI1
aI164
aL0L
aa(lp165
g10
aI581
aI407
aI1
aI368
aL0L
aa(lp166
g10
aI581
aI407
aI1
aI368
aL0L
aa(lp167
g10
aI581
aI20
aI1
aI164
aL0L
aa(lp168
g10
aI581
aI407
aI1
aI368
aL0L
aa(lp169
g10
aI581
aI407
aI1
aI368
aL0L
aa(lp170
g10
aI581
aI18
aI1
aI164
aL0L
aa(lp171
g10
aI581
aI407
aI1
aI368
aL0L
aa(lp172
g10
aI581
aI407
aI1
aI368
aL0L
aa(lp173
g10
aI581
aI30
aI1
aI164
aL0L
aa(lp174
g10
aI581
aI407
aI1
aI368
aL0L
aa(lp175
g10
aI581
aI407
aI1
aI368
aL0L
aa(lp176
g10
aI581
aI27
aI1
aI164
aL0L
aa(lp177
g10
aI581
aI407
aI1
aI368
aL0L
aa(lp178
g10
aI581
aI407
aI1
aI368
aL0L
aa(lp179
g10
aI581
aI7
aI1
aI164
aL0L
aa(lp180
g10
aI581
aI407
aI1
aI368
aL0L
aa(lp181
g10
aI581
aI407
aI1
aI368
aL0L
aa(lp182
g10
aI581
aI27
aI1
aI164
aL0L
aa(lp183
g10
aI581
aI407
aI1
aI368
aL0L
aa(lp184
g10
aI581
aI407
aI1
aI368
aL0L
aa(lp185
g10
aI581
aI26
aI1
aI164
aL0L
aa(lp186
g10
aI581
aI407
aI1
aI368
aL0L
aa(lp187
g10
aI581
aI407
aI1
aI368
aL0L
aa(lp188
g10
aI581
aI30
aI1
aI164
aL0L
aa(lp189
g10
aI581
aI407
aI1
aI368
aL0L
aa(lp190
g10
aI581
aI407
aI1
aI368
aL0L
aa(lp191
g10
aI581
aI20
aI1
aI164
aL0L
aa(lp192
g10
aI581
aI407
aI1
aI368
aL0L
aa(lp193
g10
aI581
aI407
aI1
aI368
aL0L
aa(lp194
g10
aI581
aI17
aI1
aI164
aL0L
aa(lp195
g10
aI581
aI407
aI1
aI368
aL0L
aa(lp196
g10
aI581
aI407
aI1
aI368
aL0L
aa(lp197
g10
aI581
aI26
aI1
aI164
aL0L
aa(lp198
g10
aI581
aI407
aI2
aI368
aL0L
aa(lp199
g10
aI581
aI407
aI1
aI368
aL0L
aa(lp200
g10
aI581
aI30
aI1
aI164
aL0L
aa(lp201
g10
aI581
aI407
aI1
aI368
aL0L
aa(lp202
g10
aI581
aI407
aI1
aI368
aL0L
aa(lp203
g10
aI581
aI27
aI1
aI164
aL0L
aa(lp204
g10
aI581
aI407
aI1
aI368
aL0L
aa(lp205
g10
aI581
aI407
aI1
aI368
aL0L
aa(lp206
g10
aI581
aI1
aI1
aI164
aL0L
aa(lp207
g10
aI581
aI407
aI1
aI368
aL0L
aa(lp208
g10
aI581
aI407
aI1
aI368
aL0L
aa(lp209
g10
aI581
aI20
aI1
aI164
aL0L
aa(lp210
g10
aI581
aI407
aI1
aI368
aL0L
aa(lp211
g10
aI581
aI407
aI1
aI368
aL0L
aa(lp212
g10
aI581
aI17
aI1
aI164
aL0L
aa(lp213
g10
aI581
aI407
aI1
aI368
aL0L
aa(lp214
g10
aI581
aI407
aI1
aI368
aL0L
aa(lp215
g10
aI581
aI30
aI1
aI164
aL0L
aa(lp216
g10
aI581
aI407
aI1
aI368
aL0L
aa(lp217
g10
aI581
aI407
aI1
aI368
aL0L
aa(lp218
g10
aI581
aI18
aI1
aI164
aL0L
aa(lp219
g6
aI11
aI1
aI1
aI1
aL0L
aa(lp220
g10
aI581
aI407
aI1
aI368
aL0L
aa(lp221
g10
aI581
aI407
aI1
aI368
aL0L
aa(lp222
g10
aI581
aI26
aI1
aI164
aL0L
aa(lp223
g10
aI581
aI407
aI1
aI368
aL0L
aa(lp224
g10
aI581
aI407
aI1
aI368
aL0L
aa(lp225
g10
aI581
aI27
aI1
aI164
aL0L
aa(lp226
g10
aI581
aI407
aI1
aI368
aL0L
aa(lp227
g10
aI581
aI407
aI1
aI368
aL0L
aa(lp228
g10
aI581
aI30
aI1
aI164
aL0L
aa(lp229
g10
aI581
aI407
aI1
aI368
aL0L
aa(lp230
g10
aI581
aI407
aI1
aI368
aL0L
aa(lp231
g10
aI581
aI10
aI1
aI164
aL0L
aa(lp232
g10
aI581
aI1
aI1
aI43
aL0L
aa(lp233
g10
aI581
aI407
aI1
aI368
aL0L
aa(lp234
g10
aI581
aI407
aI1
aI368
aL0L
aa(lp235
g10
aI581
aI18
aI1
aI164
aL0L
aa(lp236
g10
aI581
aI407
aI1
aI368
aL0L
aa(lp237
g10
aI581
aI407
aI1
aI368
aL0L
aa(lp238
g10
aI581
aI17
aI1
aI164
aL0L
aa(lp239
g10
aI581
aI407
aI2
aI368
aL0L
aa(lp240
g10
aI581
aI407
aI1
aI368
aL0L
aa(lp241
g10
aI581
aI26
aI1
aI164
aL0L
aa(lp242
S'147.32.84.165'
p243
aI247
aI407
aI12
aI4
aL1L
aa(lp244
g10
aI581
aI407
aI1
aI368
aL0L
aa(lp245
g10
aI581
aI407
aI1
aI368
aL0L
aa(lp246
g10
aI581
aI18
aI1
aI164
aL0L
aa(lp247
g243
aI247
aI407
aI12
aI4
aL1L
aa(lp248
g243
aI247
aI1
aI1
aI1
aL1L
aa(lp249
g243
aI247
aI407
aI12
aI4
aL1L
aa(lp250
g243
aI247
aI3
aI3
aI1
aL1L
aa(lp251
S'147.32.84.191'
p252
aI247
aI407
aI12
aI4
aL1L
aa(lp253
g252
aI247
aI407
aI12
aI4
aL1L
aa(lp254
g252
aI247
aI3
aI1
aI1
aL1L
aa(lp255
S'147.32.87.36'
p256
aI1
aI407
aI1
aI1
aL0L
aa(lp257
S'147.32.84.192'
p258
aI7
aI407
aI12
aI4
aL1L
aa(lp259
g252
aI247
aI407
aI12
aI4
aL1L
aa(lp260
g252
aI247
aI3
aI3
aI1
aL1L
aa(lp261
g258
aI7
aI407
aI12
aI4
aL1L
aa(lp262
g258
aI7
aI2
aI1
aI1
aL1L
aa(lp263
g10
aI581
aI407
aI1
aI368
aL0L
aa(lp264
g10
aI581
aI407
aI1
aI368
aL0L
aa(lp265
g10
aI581
aI26
aI1
aI164
aL0L
aa(lp266
g258
aI7
aI407
aI12
aI4
aL1L
aa(lp267
g258
aI7
aI3
aI3
aI1
aL1L
aa(lp268
g10
aI581
aI27
aI1
aI43
aL0L
aa(lp269
g10
aI581
aI27
aI1
aI43
aL0L
aa(lp270
g10
aI581
aI26
aI1
aI43
aL0L
aa(lp271
g10
aI581
aI27
aI1
aI43
aL0L
aa(lp272
g10
aI581
aI26
aI1
aI43
aL0L
aa(lp273
g10
aI581
aI26
aI1
aI43
aL0L
aa(lp274
g10
aI581
aI407
aI1
aI368
aL0L
aa(lp275
g10
aI581
aI407
aI1
aI368
aL0L
aa(lp276
g10
aI581
aI30
aI1
aI164
aL0L
aa(lp277
g10
aI581
aI407
aI1
aI368
aL0L
aa(lp278
g10
aI581
aI407
aI1
aI368
aL0L
aa(lp279
g10
aI581
aI17
aI1
aI164
aL0L
aa(lp280
g10
aI581
aI407
aI1
aI368
aL0L
aa(lp281
g10
aI581
aI407
aI1
aI368
aL0L
aa(lp282
g10
aI581
aI26
aI1
aI164
aL0L
aa(lp283
g10
aI581
aI407
aI1
aI368
aL0L
aa(lp284
g10
aI581
aI407
aI1
aI368
aL0L
aa(lp285
g10
aI581
aI20
aI1
aI164
aL0L
aa(lp286
g258
aI7
aI407
aI12
aI4
aL1L
aa(lp287
g258
aI7
aI1
aI1
aI1
aL1L
aa(lp288
g10
aI581
aI407
aI1
aI368
aL0L
aa(lp289
g10
aI581
aI407
aI1
aI368
aL0L
aa(lp290
g10
aI581
aI30
aI1
aI164
aL0L
aa(lp291
g10
aI581
aI407
aI1
aI368
aL0L
aa(lp292
g10
aI581
aI407
aI1
aI368
aL0L
aa(lp293
g10
aI581
aI17
aI1
aI164
aL0L
aa(lp294
g10
aI581
aI407
aI1
aI368
aL0L
aa(lp295
g10
aI581
aI407
aI1
aI368
aL0L
aa(lp296
g10
aI581
aI10
aI1
aI164
aL0L
aa(lp297
g10
aI581
aI407
aI1
aI368
aL0L
aa(lp298
g10
aI581
aI407
aI1
aI368
aL0L
aa(lp299
g10
aI581
aI27
aI1
aI164
aL0L
aa(lp300
g2
aI2113
aI407
aI1
aI20
aL0L
aa(lp301
g2
aI2113
aI407
aI1
aI20
aL0L
aa(lp302
g243
aI247
aI407
aI12
aI4
aL1L
aa(lp303
g243
aI247
aI1
aI1
aI1
aL1L
aa(lp304
g10
aI581
aI407
aI1
aI368
aL0L
aa(lp305
g10
aI581
aI407
aI1
aI368
aL0L
aa(lp306
g10
aI581
aI30
aI1
aI164
aL0L
aa(lp307
g10
aI581
aI407
aI1
aI368
aL0L
aa(lp308
g10
aI581
aI407
aI1
aI368
aL0L
aa(lp309
g10
aI581
aI20
aI1
aI164
aL0L
aa(lp310
g252
aI247
aI407
aI12
aI4
aL1L
aa(lp311
g252
aI247
aI1
aI1
aI1
aL1L
aa(lp312
g10
aI581
aI407
aI1
aI368
aL0L
aa(lp313
g10
aI581
aI407
aI1
aI368
aL0L
aa(lp314
g10
aI581
aI27
aI1
aI164
aL0L
aa(lp315
g2
aI2113
aI407
aI1
aI20
aL0L
aa(lp316
g2
aI2113
aI407
aI1
aI20
aL0L
aa(lp317
g10
aI581
aI407
aI1
aI368
aL0L
aa(lp318
g10
aI581
aI407
aI1
aI368
aL0L
aa(lp319
g10
aI581
aI27
aI1
aI164
aL0L
aa(lp320
g10
aI581
aI407
aI1
aI368
aL0L
aa(lp321
g10
aI581
aI407
aI1
aI368
aL0L
aa(lp322
g10
aI581
aI30
aI1
aI164
aL0L
aa(lp323
g10
aI581
aI407
aI1
aI368
aL0L
aa(lp324
g10
aI581
aI407
aI1
aI368
aL0L
aa(lp325
g10
aI581
aI17
aI1
aI164
aL0L
aa(lp326
g2
aI2113
aI407
aI8
aI20
aL0L
aa(lp327
g2
aI2113
aI2573
aI2569
aI718
aL0L
aa(lp328
g2
aI2113
aI407
aI8
aI20
aL0L
aa(lp329
g2
aI2113
aI2573
aI2569
aI718
aL0L
aa(lp330
g2
aI2113
aI407
aI8
aI20
aL0L
aa(lp331
g2
aI2113
aI2573
aI2569
aI718
aL0L
aa(lp332
g2
aI2113
aI407
aI8
aI20
aL0L
aa(lp333
g2
aI2113
aI2573
aI2569
aI718
aL0L
aa(lp334
g2
aI2113
aI407
aI8
aI20
aL0L
aa(lp335
g2
aI2113
aI2573
aI2569
aI718
aL0L
aa(lp336
g2
aI2113
aI407
aI8
aI20
aL0L
aa(lp337
g2
aI2113
aI2573
aI2569
aI718
aL0L
aa(lp338
g2
aI2113
aI407
aI8
aI20
aL0L
aa(lp339
g2
aI2113
aI2573
aI2569
aI718
aL0L
aa(lp340
g2
aI2113
aI407
aI8
aI20
aL0L
aa(lp341
g2
aI2113
aI2573
aI2569
aI718
aL0L
aa(lp342
g2
aI2113
aI2573
aI2569
aI718
aL0L
aa(lp343
g2
aI2113
aI2573
aI2569
aI718
aL0L
aa(lp344
g2
aI2113
aI2573
aI2569
aI718
aL0L
aa(lp345
g2
aI2113
aI2573
aI2569
aI718
aL0L
aa(lp346
g2
aI2113
aI2573
aI2569
aI718
aL0L
aa(lp347
g2
aI2113
aI2573
aI2569
aI718
aL0L
aa(lp348
g2
aI2113
aI2573
aI2569
aI718
aL0L
aa(lp349
g2
aI2113
aI2573
aI2569
aI718
aL0L
aa(lp350
g2
aI2113
aI2573
aI2569
aI718
aL0L
aa(lp351
g2
aI2113
aI2573
aI2569
aI718
aL0L
aa(lp352
g2
aI2113
aI2573
aI2569
aI718
aL0L
aa(lp353
g2
aI2113
aI2573
aI2569
aI718
aL0L
aa(lp354
g2
aI2113
aI2573
aI2569
aI718
aL0L
aa(lp355
g2
aI2113
aI2573
aI2569
aI718
aL0L
aa(lp356
g2
aI2113
aI2573
aI2569
aI718
aL0L
aa(lp357
g2
aI2113
aI2573
aI2569
aI718
aL0L
aa(lp358
g2
aI2113
aI2573
aI2569
aI718
aL0L
aa(lp359
S'147.32.84.170'
p360
aI581
aI407
aI1
aI368
aL0L
aa(lp361
g360
aI581
aI407
aI1
aI368
aL0L
aa(lp362
g360
aI581
aI20
aI1
aI164
aL0L
aa(lp363
S'147.32.84.164'
p364
aI2113
aI2573
aI2569
aI718
aL0L
aa(lp365
g364
aI2113
aI2573
aI2569
aI718
aL0L
aa(lp366
g364
aI2113
aI2573
aI2569
aI718
aL0L
aa(lp367
g364
aI2113
aI2573
aI2569
aI718
aL0L
aa(lp368
g364
aI2113
aI2573
aI2569
aI718
aL0L
aa(lp369
g364
aI2113
aI2573
aI2569
aI718
aL0L
aa(lp370
g364
aI2113
aI2573
aI2569
aI718
aL0L
aa(lp371
g364
aI2113
aI2573
aI2569
aI718
aL0L
aa(lp372
g364
aI2113
aI2573
aI2569
aI718
aL0L
aa(lp373
g364
aI2113
aI2573
aI2569
aI718
aL0L
aa(lp374
g364
aI2113
aI2573
aI2569
aI718
aL0L
aa(lp375
g364
aI2113
aI2573
aI2569
aI718
aL0L
aa(lp376
g364
aI2113
aI2573
aI2569
aI718
aL0L
aa(lp377
g364
aI2113
aI2573
aI2569
aI718
aL0L
aa(lp378
g364
aI2113
aI2573
aI2569
aI718
aL0L
aa(lp379
g364
aI2113
aI2573
aI2569
aI718
aL0L
aa(lp380
g364
aI2113
aI2573
aI2569
aI718
aL0L
aa(lp381
g364
aI2113
aI2573
aI2569
aI718
aL0L
aa(lp382
g364
aI2113
aI2573
aI2569
aI718
aL0L
aa(lp383
g364
aI2113
aI2573
aI2569
aI718
aL0L
aa(lp384
g364
aI2113
aI2573
aI2569
aI718
aL0L
aa(lp385
g364
aI2113
aI2573
aI2569
aI718
aL0L
aa(lp386
g364
aI2113
aI2573
aI2569
aI718
aL0L
aa(lp387
g364
aI2113
aI2573
aI2569
aI718
aL0L
aa(lp388
g364
aI2113
aI2573
aI2569
aI718
aL0L
aa(lp389
g364
aI2113
aI2573
aI2569
aI718
aL0L
aa(lp390
g364
aI2113
aI2573
aI2569
aI718
aL0L
aa(lp391
g364
aI2113
aI2573
aI2569
aI718
aL0L
aa(lp392
g364
aI2113
aI2573
aI2569
aI718
aL0L
aa(lp393
g364
aI2113
aI2573
aI2569
aI718
aL0L
aa(lp394
g364
aI2113
aI2573
aI2569
aI718
aL0L
aa(lp395
g364
aI2113
aI2573
aI2569
aI718
aL0L
aa(lp396
g364
aI2113
aI2573
aI2569
aI718
aL0L
aa(lp397
g364
aI2113
aI2573
aI2569
aI718
aL0L
aa(lp398
g364
aI2113
aI2573
aI2569
aI718
aL0L
aa(lp399
g364
aI2113
aI2573
aI2569
aI718
aL0L
aa(lp400
g364
aI2113
aI2573
aI2569
aI718
aL0L
aa(lp401
g364
aI2113
aI2573
aI2569
aI718
aL0L
aa(lp402
g364
aI2113
aI2573
aI2569
aI718
aL0L
aa(lp403
g364
aI2113
aI2573
aI2569
aI718
aL0L
aa(lp404
g364
aI2113
aI2573
aI2569
aI718
aL0L
aa(lp405
g364
aI2113
aI2573
aI2569
aI718
aL0L
aa(lp406
g364
aI2113
aI2573
aI2569
aI718
aL0L
aa(lp407
g364
aI2113
aI2573
aI2569
aI718
aL0L
aa(lp408
g364
aI2113
aI2573
aI2569
aI718
aL0L
aa(lp409
g364
aI2113
aI2573
aI2569
aI718
aL0L
aa(lp410
g364
aI2113
aI2573
aI2569
aI718
aL0L
aa(lp411
g364
aI2113
aI2573
aI2569
aI718
aL0L
aa(lp412
g364
aI2113
aI2573
aI2569
aI718
aL0L
aa(lp413
g364
aI2113
aI2573
aI2569
aI718
aL0L
aa(lp414
g364
aI2113
aI2573
aI2569
aI718
aL0L
aa(lp415
g364
aI2113
aI2573
aI2569
aI718
aL0L
aa(lp416
g364
aI2113
aI2573
aI2569
aI718
aL0L
aa(lp417
g364
aI2113
aI2573
aI2569
aI718
aL0L
aa(lp418
g364
aI2113
aI2573
aI2569
aI718
aL0L
aa(lp419
g364
aI2113
aI2573
aI2569
aI718
aL0L
aa(lp420
g364
aI2113
aI2573
aI2569
aI718
aL0L
aa(lp421
g364
aI2113
aI2573
aI2569
aI718
aL0L
aa(lp422
g364
aI2113
aI2573
aI2569
aI718
aL0L
aa(lp423
g364
aI2113
aI2573
aI2569
aI718
aL0L
aa(lp424
g364
aI2113
aI2573
aI2569
aI718
aL0L
aa(lp425
g364
aI2113
aI2573
aI2569
aI718
aL0L
aa(lp426
g364
aI2113
aI2573
aI2569
aI718
aL0L
aa(lp427
g364
aI2113
aI2573
aI2569
aI718
aL0L
aa(lp428
g364
aI2113
aI2573
aI2569
aI718
aL0L
aa(lp429
g364
aI2113
aI2573
aI2569
aI718
aL0L
aa(lp430
g364
aI2113
aI2573
aI2569
aI718
aL0L
aa(lp431
g364
aI2113
aI2573
aI2569
aI718
aL0L
aa(lp432
g364
aI2113
aI2573
aI2569
aI718
aL0L
aa(lp433
g364
aI2113
aI2573
aI2569
aI718
aL0L
aa(lp434
g360
aI581
aI407
aI1
aI368
aL0L
aa(lp435
g360
aI581
aI407
aI1
aI368
aL0L
aa(lp436
g360
aI581
aI17
aI1
aI164
aL0L
aa(lp437
g364
aI2113
aI2573
aI2569
aI718
aL0L
aa(lp438
g364
aI2113
aI2573
aI2569
aI718
aL0L
aa(lp439
g364
aI2113
aI2573
aI2569
aI718
aL0L
aa(lp440
g364
aI2113
aI2573
aI2569
aI718
aL0L
aa(lp441
g364
aI2113
aI2573
aI2569
aI718
aL0L
aa(lp442
g364
aI2113
aI2573
aI2569
aI718
aL0L
aa(lp443
g364
aI2113
aI2573
aI2569
aI718
aL0L
aa(lp444
g364
aI2113
aI2573
aI2569
aI718
aL0L
aa(lp445
g364
aI2113
aI2573
aI2569
aI718
aL0L
aa(lp446
g364
aI2113
aI2573
aI2569
aI718
aL0L
aa(lp447
g364
aI2113
aI2573
aI2569
aI718
aL0L
aa(lp448
g364
aI2113
aI2573
aI2569
aI718
aL0L
aa(lp449
g364
aI2113
aI2573
aI2569
aI718
aL0L
aa(lp450
g364
aI2113
aI2573
aI2569
aI718
aL0L
aa(lp451
g364
aI2113
aI2573
aI2569
aI718
aL0L
aa(lp452
g364
aI2113
aI2573
aI2569
aI718
aL0L
aa(lp453
g364
aI2113
aI2573
aI2569
aI718
aL0L
aa(lp454
g364
aI2113
aI2573
aI2569
aI718
aL0L
aa(lp455
g364
aI2113
aI2573
aI2569
aI718
aL0L
aa(lp456
g364
aI2113
aI2573
aI2569
aI718
aL0L
aa(lp457
g364
aI2113
aI2573
aI2569
aI718
aL0L
aa(lp458
g364
aI2113
aI2573
aI2569
aI718
aL0L
aa(lp459
g364
aI2113
aI2573
aI2569
aI718
aL0L
aa(lp460
g364
aI2113
aI2573
aI2569
aI718
aL0L
aa(lp461
g364
aI2113
aI2573
aI2569
aI718
aL0L
aa(lp462
g364
aI2113
aI2573
aI2569
aI718
aL0L
aa(lp463
g364
aI2113
aI2573
aI2569
aI718
aL0L
aa(lp464
g364
aI2113
aI2573
aI2569
aI718
aL0L
aa(lp465
g364
aI2113
aI2573
aI2569
aI718
aL0L
aa(lp466
g364
aI2113
aI2573
aI2569
aI718
aL0L
aa(lp467
g364
aI2113
aI2573
aI2569
aI718
aL0L
aa(lp468
g364
aI2113
aI2573
aI2569
aI718
aL0L
aa(lp469
g364
aI2113
aI2573
aI2569
aI718
aL0L
aa(lp470
g364
aI2113
aI2573
aI2569
aI718
aL0L
aa(lp471
g364
aI2113
aI2573
aI2569
aI718
aL0L
aa(lp472
g364
aI2113
aI2573
aI2569
aI718
aL0L
aa(lp473
g364
aI2113
aI2573
aI2569
aI718
aL0L
aa(lp474
g364
aI2113
aI2573
aI2569
aI718
aL0L
aa(lp475
g364
aI2113
aI2573
aI2569
aI718
aL0L
aa(lp476
g364
aI2113
aI2573
aI2569
aI718
aL0L
aa(lp477
g364
aI2113
aI2573
aI2569
aI718
aL0L
aa(lp478
g364
aI2113
aI2573
aI2569
aI718
aL0L
aa(lp479
g364
aI2113
aI2573
aI2569
aI718
aL0L
aa(lp480
g364
aI2113
aI2573
aI2569
aI718
aL0L
aa(lp481
g364
aI2113
aI2573
aI2569
aI718
aL0L
aa(lp482
g364
aI2113
aI2573
aI2569
aI718
aL0L
aa(lp483
g364
aI2113
aI2573
aI2569
aI718
aL0L
aa(lp484
g364
aI2113
aI2573
aI2569
aI718
aL0L
aa(lp485
g364
aI2113
aI2573
aI2569
aI718
aL0L
aa(lp486
g364
aI2113
aI2573
aI2569
aI718
aL0L
aa(lp487
g364
aI2113
aI2573
aI2569
aI718
aL0L
aa(lp488
g364
aI2113
aI2573
aI2569
aI718
aL0L
aa(lp489
g364
aI2113
aI2573
aI2569
aI718
aL0L
aa(lp490
g364
aI2113
aI2573
aI2569
aI718
aL0L
aa(lp491
g364
aI2113
aI2573
aI2569
aI718
aL0L
aa(lp492
g364
aI2113
aI2573
aI2569
aI718
aL0L
aa(lp493
g364
aI2113
aI2573
aI2569
aI718
aL0L
aa(lp494
g364
aI2113
aI2573
aI2569
aI718
aL0L
aa(lp495
g364
aI2113
aI2573
aI2569
aI718
aL0L
aa(lp496
g364
aI2113
aI2573
aI2569
aI718
aL0L
aa(lp497
g364
aI2113
aI2573
aI2569
aI718
aL0L
aa(lp498
g364
aI2113
aI2573
aI2569
aI718
aL0L
aa(lp499
g364
aI2113
aI2573
aI2569
aI718
aL0L
aa(lp500
g364
aI2113
aI2573
aI2569
aI718
aL0L
aa(lp501
g364
aI2113
aI2573
aI2569
aI718
aL0L
aa(lp502
g364
aI2113
aI2573
aI2569
aI718
aL0L
aa(lp503
g364
aI2113
aI2573
aI2569
aI718
aL0L
aa(lp504
g364
aI2113
aI2573
aI2569
aI718
aL0L
aa(lp505
g364
aI2113
aI2573
aI2569
aI718
aL0L
aa(lp506
g364
aI2113
aI2573
aI2569
aI718
aL0L
aa(lp507
g360
aI581
aI407
aI1
aI368
aL0L
aa(lp508
g360
aI581
aI407
aI1
aI368
aL0L
aa(lp509
g360
aI581
aI17
aI1
aI164
aL0L
aa(lp510
g364
aI2113
aI2573
aI2569
aI718
aL0L
aa(lp511
g364
aI2113
aI2573
aI2569
aI718
aL0L
aa(lp512
g364
aI2113
aI2573
aI2569
aI718
aL0L
aa(lp513
g364
aI2113
aI2573
aI2569
aI718
aL0L
aa(lp514
g360
aI581
aI407
aI1
aI368
aL0L
aa(lp515
g360
aI581
aI407
aI1
aI368
aL0L
aa(lp516
g360
aI581
aI30
aI1
aI164
aL0L
aa(lp517
g364
aI2113
aI2573
aI2569
aI718
aL0L
aa(lp518
S'147.32.84.134'
p519
aI11
aI407
aI1
aI4
aL0L
aa(lp520
g519
aI11
aI407
aI1
aI4
aL0L
aa(lp521
g519
aI11
aI3
aI1
aI2
aL0L
aa(lp522
g364
aI2113
aI2573
aI2569
aI718
aL0L
aa(lp523
g519
aI11
aI407
aI1
aI4
aL0L
aa(lp524
g519
aI11
aI407
aI1
aI4
aL0L
aa(lp525
g519
aI11
aI1
aI1
aI2
aL0L
aa(lp526
g364
aI2113
aI2573
aI2569
aI718
aL0L
aa(lp527
g364
aI2113
aI2573
aI2569
aI718
aL0L
aa(lp528
g364
aI2113
aI2573
aI2569
aI718
aL0L
aa(lp529
g364
aI2113
aI2573
aI2569
aI718
aL0L
aa(lp530
g364
aI2113
aI2573
aI2569
aI718
aL0L
aa(lp531
g364
aI2113
aI2573
aI2569
aI718
aL0L
aa(lp532
g364
aI2113
aI2573
aI2569
aI718
aL0L
aa(lp533
g364
aI2113
aI2573
aI2569
aI718
aL0L
aa(lp534
g364
aI2113
aI2573
aI2569
aI718
aL0L
aa(lp535
g364
aI2113
aI2573
aI2569
aI718
aL0L
aa(lp536
g364
aI2113
aI2573
aI2569
aI718
aL0L
aa(lp537
g364
aI2113
aI2573
aI2569
aI718
aL0L
aa(lp538
g364
aI2113
aI2573
aI2569
aI718
aL0L
aa(lp539
g364
aI2113
aI2573
aI2569
aI718
aL0L
aa(lp540
g364
aI2113
aI2573
aI2569
aI718
aL0L
aa(lp541
g364
aI2113
aI2573
aI2569
aI718
aL0L
aa(lp542
g364
aI2113
aI2573
aI2569
aI718
aL0L
aa(lp543
g364
aI2113
aI2573
aI2569
aI718
aL0L
aa(lp544
g364
aI2113
aI2573
aI2569
aI718
aL0L
aa(lp545
g364
aI2113
aI2573
aI2569
aI718
aL0L
aa(lp546
g364
aI2113
aI2573
aI2569
aI718
aL0L
aa(lp547
g364
aI2113
aI2573
aI2569
aI718
aL0L
aa(lp548
g364
aI2113
aI2573
aI2569
aI718
aL0L
aa(lp549
g364
aI2113
aI2573
aI2569
aI718
aL0L
aa(lp550
g364
aI2113
aI2573
aI2569
aI718
aL0L
aa(lp551
g364
aI2113
aI2573
aI2569
aI718
aL0L
aa(lp552
g364
aI2113
aI2573
aI2569
aI718
aL0L
aa(lp553
g364
aI2113
aI2573
aI2569
aI718
aL0L
aa(lp554
g364
aI2113
aI2573
aI2569
aI718
aL0L
aa(lp555
g364
aI2113
aI2573
aI2569
aI718
aL0L
aa(lp556
g364
aI2113
aI2573
aI2569
aI718
aL0L
aa(lp557
g364
aI2113
aI2573
aI2569
aI718
aL0L
aa(lp558
g364
aI2113
aI2573
aI2569
aI718
aL0L
aa(lp559
g364
aI2113
aI2573
aI2569
aI718
aL0L
aa(lp560
g364
aI2113
aI2573
aI2569
aI718
aL0L
aa(lp561
g364
aI2113
aI2573
aI2569
aI718
aL0L
aa(lp562
g364
aI2113
aI2573
aI2569
aI718
aL0L
aa(lp563
g364
aI2113
aI2573
aI2569
aI718
aL0L
aa(lp564
g364
aI2113
aI2573
aI2569
aI718
aL0L
aa(lp565
g364
aI2113
aI2573
aI2569
aI718
aL0L
aa(lp566
g364
aI2113
aI2573
aI2569
aI718
aL0L
aa(lp567
g364
aI2113
aI2573
aI2569
aI718
aL0L
aa(lp568
g364
aI2113
aI2573
aI2569
aI718
aL0L
aa(lp569
g364
aI2113
aI2573
aI2569
aI718
aL0L
aa(lp570
g364
aI2113
aI2573
aI2569
aI718
aL0L
aa(lp571
g364
aI2113
aI2573
aI2569
aI718
aL0L
aa(lp572
g364
aI2113
aI2573
aI2569
aI718
aL0L
aa(lp573
g364
aI2113
aI2573
aI2569
aI718
aL0L
aa(lp574
g364
aI2113
aI2573
aI2569
aI718
aL0L
aa(lp575
g364
aI2113
aI2573
aI2569
aI718
aL0L
aa(lp576
g364
aI2113
aI2573
aI2569
aI718
aL0L
aa(lp577
g364
aI2113
aI2573
aI2569
aI718
aL0L
aa(lp578
g364
aI2113
aI2573
aI2569
aI718
aL0L
aa(lp579
g364
aI2113
aI2573
aI2569
aI718
aL0L
aa(lp580
g364
aI2113
aI2573
aI2569
aI718
aL0L
aa(lp581
g364
aI2113
aI2573
aI2569
aI718
aL0L
aa(lp582
g364
aI2113
aI2573
aI2569
aI718
aL0L
aa(lp583
g364
aI2113
aI2573
aI2569
aI718
aL0L
aa(lp584
g364
aI2113
aI2573
aI2569
aI718
aL0L
aa(lp585
g364
aI2113
aI2573
aI2569
aI718
aL0L
aa(lp586
g364
aI2113
aI2573
aI2569
aI718
aL0L
aa(lp587
g364
aI2113
aI2573
aI2569
aI718
aL0L
aa(lp588
g364
aI2113
aI2573
aI2569
aI718
aL0L
aa(lp589
g364
aI2113
aI2573
aI2569
aI718
aL0L
aa(lp590
g360
aI581
aI407
aI1
aI368
aL0L
aa(lp591
g360
aI581
aI407
aI1
aI368
aL0L
aa(lp592
g360
aI581
aI18
aI1
aI164
aL0L
aa(lp593
g364
aI2113
aI2573
aI2569
aI718
aL0L
aa(lp594
g364
aI2113
aI2573
aI2569
aI718
aL0L
aa(lp595
g364
aI2113
aI2573
aI2569
aI718
aL0L
aa(lp596
g364
aI2113
aI2573
aI2569
aI718
aL0L
aa(lp597
g364
aI2113
aI2573
aI2569
aI718
aL0L
aa(lp598
g364
aI2113
aI2573
aI2569
aI718
aL0L
aa(lp599
g364
aI2113
aI2573
aI2569
aI718
aL0L
aa(lp600
g364
aI2113
aI2573
aI2569
aI718
aL0L
aa(lp601
g364
aI2113
aI2573
aI2569
aI718
aL0L
aa(lp602
g364
aI2113
aI2573
aI2569
aI718
aL0L
aa(lp603
g364
aI2113
aI2573
aI2569
aI718
aL0L
aa(lp604
g364
aI2113
aI2573
aI2569
aI718
aL0L
aa(lp605
g364
aI2113
aI2573
aI2569
aI718
aL0L
aa(lp606
g364
aI2113
aI2573
aI2569
aI718
aL0L
aa(lp607
g364
aI2113
aI2573
aI2569
aI718
aL0L
aa(lp608
g364
aI2113
aI2573
aI2569
aI718
aL0L
aa(lp609
g364
aI2113
aI2573
aI2569
aI718
aL0L
aa(lp610
g364
aI2113
aI2573
aI2569
aI718
aL0L
aa(lp611
g364
aI2113
aI2573
aI2569
aI718
aL0L
aa(lp612
g364
aI2113
aI2573
aI2569
aI718
aL0L
aa(lp613
g364
aI2113
aI2573
aI2569
aI718
aL0L
aa(lp614
g364
aI2113
aI2573
aI2569
aI718
aL0L
aa(lp615
g364
aI2113
aI2573
aI2569
aI718
aL0L
aa(lp616
g364
aI2113
aI2573
aI2569
aI718
aL0L
aa(lp617
g364
aI2113
aI2573
aI2569
aI718
aL0L
aa(lp618
g364
aI2113
aI2573
aI2569
aI718
aL0L
aa(lp619
g364
aI2113
aI2573
aI2569
aI718
aL0L
aa(lp620
g364
aI2113
aI2573
aI2569
aI718
aL0L
aa(lp621
g364
aI2113
aI2573
aI2569
aI718
aL0L
aa(lp622
g364
aI2113
aI2573
aI2569
aI718
aL0L
aa(lp623
g364
aI2113
aI2573
aI2569
aI718
aL0L
aa(lp624
g364
aI2113
aI2573
aI2569
aI718
aL0L
aa(lp625
g364
aI2113
aI2573
aI2569
aI718
aL0L
aa(lp626
g364
aI2113
aI2573
aI2569
aI718
aL0L
aa(lp627
g364
aI2113
aI2573
aI2569
aI718
aL0L
aa(lp628
g364
aI2113
aI2573
aI2569
aI718
aL0L
aa(lp629
g364
aI2113
aI2573
aI2569
aI718
aL0L
aa(lp630
g364
aI2113
aI2573
aI2569
aI718
aL0L
aa(lp631
g364
aI2113
aI2573
aI2569
aI718
aL0L
aa(lp632
g364
aI2113
aI2573
aI2569
aI718
aL0L
aa(lp633
g364
aI2113
aI2573
aI2569
aI718
aL0L
aa(lp634
g364
aI2113
aI2573
aI2569
aI718
aL0L
aa(lp635
g364
aI2113
aI2573
aI2569
aI718
aL0L
aa(lp636
g364
aI2113
aI2573
aI2569
aI718
aL0L
aa(lp637
g364
aI2113
aI2573
aI2569
aI718
aL0L
aa(lp638
g364
aI2113
aI2573
aI2569
aI718
aL0L
aa(lp639
g364
aI2113
aI2573
aI2569
aI718
aL0L
aa(lp640
g364
aI2113
aI2573
aI2569
aI718
aL0L
aa(lp641
g364
aI2113
aI2573
aI2569
aI718
aL0L
aa(lp642
g364
aI2113
aI2573
aI2569
aI718
aL0L
aa(lp643
g364
aI2113
aI2573
aI2569
aI718
aL0L
aa(lp644
g364
aI2113
aI2573
aI2569
aI718
aL0L
aa(lp645
g364
aI2113
aI2573
aI2569
aI718
aL0L
aa(lp646
g364
aI2113
aI2573
aI2569
aI718
aL0L
aa(lp647
g364
aI2113
aI2573
aI2569
aI718
aL0L
aa(lp648
g364
aI2113
aI2573
aI2569
aI718
aL0L
aa(lp649
g364
aI2113
aI2573
aI2569
aI718
aL0L
aa(lp650
g364
aI2113
aI2573
aI2569
aI718
aL0L
aa(lp651
g364
aI2113
aI2573
aI2569
aI718
aL0L
aa(lp652
g364
aI2113
aI2573
aI2569
aI718
aL0L
aa(lp653
g364
aI2113
aI2573
aI2569
aI718
aL0L
aa(lp654
g364
aI2113
aI2573
aI2569
aI718
aL0L
aa(lp655
g364
aI2113
aI2573
aI2569
aI718
aL0L
aa(lp656
g364
aI2113
aI2573
aI2569
aI718
aL0L
aa(lp657
g364
aI2113
aI2573
aI2569
aI718
aL0L
aa(lp658
g364
aI2113
aI2573
aI2569
aI718
aL0L
aa(lp659
g364
aI2113
aI2573
aI2569
aI718
aL0L
aa(lp660
g364
aI2113
aI2573
aI2569
aI718
aL0L
aa(lp661
g364
aI2113
aI2573
aI2569
aI718
aL0L
aa(lp662
g364
aI2113
aI2573
aI2569
aI718
aL0L
aa(lp663
g360
aI581
aI407
aI1
aI368
aL0L
aa(lp664
g360
aI581
aI407
aI1
aI368
aL0L
aa(lp665
g360
aI581
aI20
aI1
aI164
aL0L
aa(lp666
g364
aI2113
aI2573
aI2569
aI718
aL0L
aa(lp667
g364
aI2113
aI2573
aI2569
aI718
aL0L
aa(lp668
g364
aI2113
aI2573
aI2569
aI718
aL0L
aa(lp669
g364
aI2113
aI2573
aI2569
aI718
aL0L
aa(lp670
g364
aI2113
aI2573
aI2569
aI718
aL0L
aa(lp671
g364
aI2113
aI2573
aI2569
aI718
aL0L
aa(lp672
g364
aI2113
aI2573
aI2569
aI718
aL0L
aa(lp673
g364
aI2113
aI2573
aI2569
aI718
aL0L
aa(lp674
g364
aI2113
aI2573
aI2569
aI718
aL0L
aa(lp675
g364
aI2113
aI2573
aI2569
aI718
aL0L
aa(lp676
g364
aI2113
aI2573
aI2569
aI718
aL0L
aa(lp677
g364
aI2113
aI2573
aI2569
aI718
aL0L
aa(lp678
g364
aI2113
aI2573
aI2569
aI718
aL0L
aa(lp679
g364
aI2113
aI2573
aI2569
aI718
aL0L
aa(lp680
g364
aI2113
aI2573
aI2569
aI718
aL0L
aa(lp681
g364
aI2113
aI2573
aI2569
aI718
aL0L
aa(lp682
g364
aI2113
aI2573
aI2569
aI718
aL0L
aa(lp683
g364
aI2113
aI2573
aI2569
aI718
aL0L
aa(lp684
g364
aI2113
aI2573
aI2569
aI718
aL0L
aa(lp685
g364
aI2113
aI2573
aI2569
aI718
aL0L
aa(lp686
g364
aI2113
aI2573
aI2569
aI718
aL0L
aa(lp687
g364
aI2113
aI2573
aI2569
aI718
aL0L
aa(lp688
g364
aI2113
aI2573
aI2569
aI718
aL0L
aa(lp689
g364
aI2113
aI2573
aI2569
aI718
aL0L
aa(lp690
g364
aI2113
aI2573
aI2569
aI718
aL0L
aa(lp691
g364
aI2113
aI2573
aI2569
aI718
aL0L
aa(lp692
g364
aI2113
aI2573
aI2569
aI718
aL0L
aa(lp693
g364
aI2113
aI2573
aI2569
aI718
aL0L
aa(lp694
g364
aI2113
aI2573
aI2569
aI718
aL0L
aa(lp695
g364
aI2113
aI2573
aI2569
aI718
aL0L
aa(lp696
g364
aI2113
aI2573
aI2569
aI718
aL0L
aa(lp697
g364
aI2113
aI2573
aI2569
aI718
aL0L
aa(lp698
g364
aI2113
aI2573
aI2569
aI718
aL0L
aa(lp699
g364
aI2113
aI2573
aI2569
aI718
aL0L
aa(lp700
g364
aI2113
aI2573
aI2569
aI718
aL0L
aa(lp701
g364
aI2113
aI2573
aI2569
aI718
aL0L
aa(lp702
g364
aI2113
aI2573
aI2569
aI718
aL0L
aa(lp703
g364
aI2113
aI2573
aI2569
aI718
aL0L
aa(lp704
g364
aI2113
aI2573
aI2569
aI718
aL0L
aa(lp705
g364
aI2113
aI2573
aI2569
aI718
aL0L
aa(lp706
g364
aI2113
aI2573
aI2569
aI718
aL0L
aa(lp707
g364
aI2113
aI2573
aI2569
aI718
aL0L
aa(lp708
g364
aI2113
aI2573
aI2569
aI718
aL0L
aa(lp709
g364
aI2113
aI2573
aI2569
aI718
aL0L
aa(lp710
g364
aI2113
aI2573
aI2569
aI718
aL0L
aa(lp711
g364
aI2113
aI2573
aI2569
aI718
aL0L
aa(lp712
g364
aI2113
aI2573
aI2569
aI718
aL0L
aa(lp713
g364
aI2113
aI2573
aI2569
aI718
aL0L
aa(lp714
g364
aI2113
aI2573
aI2569
aI718
aL0L
aa(lp715
g364
aI2113
aI2573
aI2569
aI718
aL0L
aa(lp716
g364
aI2113
aI2573
aI2569
aI718
aL0L
aa(lp717
g364
aI2113
aI2573
aI2569
aI718
aL0L
aa(lp718
g364
aI2113
aI2573
aI2569
aI718
aL0L
aa(lp719
g364
aI2113
aI2573
aI2569
aI718
aL0L
aa(lp720
g364
aI2113
aI2573
aI2569
aI718
aL0L
aa(lp721
g364
aI2113
aI2573
aI2569
aI718
aL0L
aa(lp722
g364
aI2113
aI2573
aI2569
aI718
aL0L
aa(lp723
g364
aI2113
aI2573
aI2569
aI718
aL0L
aa(lp724
g364
aI2113
aI2573
aI2569
aI718
aL0L
aa(lp725
g364
aI2113
aI2573
aI2569
aI718
aL0L
aa(lp726
g364
aI2113
aI2573
aI2569
aI718
aL0L
aa(lp727
g364
aI2113
aI2573
aI2569
aI718
aL0L
aa(lp728
g364
aI2113
aI2573
aI2569
aI718
aL0L
aa(lp729
g364
aI2113
aI2573
aI2569
aI718
aL0L
aa(lp730
g364
aI2113
aI2573
aI2569
aI718
aL0L
aa(lp731
g364
aI2113
aI2573
aI2569
aI718
aL0L
aa(lp732
g364
aI2113
aI2573
aI2569
aI718
aL0L
aa(lp733
g364
aI2113
aI2573
aI2569
aI718
aL0L
aa(lp734
g364
aI2113
aI2573
aI2569
aI718
aL0L
aa(lp735
g360
aI581
aI407
aI1
aI368
aL0L
aa(lp736
g360
aI581
aI407
aI1
aI368
aL0L
aa(lp737
g360
aI581
aI10
aI1
aI164
aL0L
aa(lp738
g364
aI2113
aI2573
aI2569
aI718
aL0L
aa(lp739
g364
aI2113
aI2573
aI2569
aI718
aL0L
aa(lp740
g364
aI2113
aI2573
aI2569
aI718
aL0L
aa(lp741
g364
aI2113
aI2573
aI2569
aI718
aL0L
aa(lp742
g364
aI2113
aI2573
aI2569
aI718
aL0L
aa(lp743
g364
aI2113
aI2573
aI2569
aI718
aL0L
aa(lp744
g364
aI2113
aI2573
aI2569
aI718
aL0L
aa(lp745
g364
aI2113
aI2573
aI2569
aI718
aL0L
aa(lp746
g364
aI2113
aI2573
aI2569
aI718
aL0L
aa(lp747
g364
aI2113
aI2573
aI2569
aI718
aL0L
aa(lp748
g364
aI2113
aI2573
aI2569
aI718
aL0L
aa(lp749
g364
aI2113
aI2573
aI2569
aI718
aL0L
aa(lp750
g360
aI581
aI407
aI1
aI368
aL0L
aa(lp751
g360
aI581
aI407
aI1
aI368
aL0L
aa(lp752
g360
aI581
aI30
aI1
aI164
aL0L
aa(lp753
g364
aI2113
aI2573
aI2569
aI718
aL0L
aa(lp754
g364
aI2113
aI2573
aI2569
aI718
aL0L
aa(lp755
g364
aI2113
aI2573
aI2569
aI718
aL0L
aa(lp756
g364
aI2113
aI2573
aI2569
aI718
aL0L
aa(lp757
g364
aI2113
aI2573
aI2569
aI718
aL0L
aa(lp758
g364
aI2113
aI2573
aI2569
aI718
aL0L
aa(lp759
g364
aI2113
aI2573
aI2569
aI718
aL0L
aa(lp760
g364
aI2113
aI2573
aI2569
aI718
aL0L
aa(lp761
g364
aI2113
aI2573
aI2569
aI718
aL0L
aa(lp762
g364
aI2113
aI2573
aI2569
aI718
aL0L
aa(lp763
g364
aI2113
aI2573
aI2569
aI718
aL0L
aa(lp764
g364
aI2113
aI2573
aI2569
aI718
aL0L
aa(lp765
g364
aI2113
aI2573
aI2569
aI718
aL0L
aa(lp766
g364
aI2113
aI2573
aI2569
aI718
aL0L
aa(lp767
g364
aI2113
aI2573
aI2569
aI718
aL0L
aa(lp768
g364
aI2113
aI2573
aI2569
aI718
aL0L
aa(lp769
g364
aI2113
aI2573
aI2569
aI718
aL0L
aa(lp770
g364
aI2113
aI2573
aI2569
aI718
aL0L
aa(lp771
g364
aI2113
aI2573
aI2569
aI718
aL0L
aa(lp772
g364
aI2113
aI2573
aI2569
aI718
aL0L
aa(lp773
g364
aI2113
aI2573
aI2569
aI718
aL0L
aa(lp774
g364
aI2113
aI2573
aI2569
aI718
aL0L
aa(lp775
g364
aI2113
aI2573
aI2569
aI718
aL0L
aa(lp776
g364
aI2113
aI2573
aI2569
aI718
aL0L
aa(lp777
g364
aI2113
aI2573
aI2569
aI718
aL0L
aa(lp778
g364
aI2113
aI2573
aI2569
aI718
aL0L
aa(lp779
g364
aI2113
aI2573
aI2569
aI718
aL0L
aa(lp780
g364
aI2113
aI2573
aI2569
aI718
aL0L
aa(lp781
g364
aI2113
aI2573
aI2569
aI718
aL0L
aa(lp782
g364
aI2113
aI2573
aI2569
aI718
aL0L
aa(lp783
g364
aI2113
aI2573
aI2569
aI718
aL0L
aa(lp784
g364
aI2113
aI2573
aI2569
aI718
aL0L
aa(lp785
g364
aI2113
aI2573
aI2569
aI718
aL0L
aa(lp786
g364
aI2113
aI2573
aI2569
aI718
aL0L
aa(lp787
g364
aI2113
aI2573
aI2569
aI718
aL0L
aa(lp788
g364
aI2113
aI2573
aI2569
aI718
aL0L
aa(lp789
g364
aI2113
aI2573
aI2569
aI718
aL0L
aa(lp790
g364
aI2113
aI2573
aI2569
aI718
aL0L
aa(lp791
g364
aI2113
aI2573
aI2569
aI718
aL0L
aa(lp792
g364
aI2113
aI2573
aI2569
aI718
aL0L
aa(lp793
g364
aI2113
aI2573
aI2569
aI718
aL0L
aa(lp794
g364
aI2113
aI2573
aI2569
aI718
aL0L
aa(lp795
g364
aI2113
aI2573
aI2569
aI718
aL0L
aa(lp796
g364
aI2113
aI2573
aI2569
aI718
aL0L
aa(lp797
g364
aI2113
aI2573
aI2569
aI718
aL0L
aa(lp798
g364
aI2113
aI2573
aI2569
aI718
aL0L
aa(lp799
g364
aI2113
aI2573
aI2569
aI718
aL0L
aa(lp800
g364
aI2113
aI2573
aI2569
aI718
aL0L
aa(lp801
g364
aI2113
aI2573
aI2569
aI718
aL0L
aa(lp802
g364
aI2113
aI2573
aI2569
aI718
aL0L
aa(lp803
g364
aI2113
aI2573
aI2569
aI718
aL0L
aa(lp804
g364
aI2113
aI2573
aI2569
aI718
aL0L
aa(lp805
g364
aI2113
aI2573
aI2569
aI718
aL0L
aa(lp806
g364
aI2113
aI2573
aI2569
aI718
aL0L
aa(lp807
g364
aI2113
aI2573
aI2569
aI718
aL0L
aa(lp808
g364
aI2113
aI2573
aI2569
aI718
aL0L
aa(lp809
g364
aI2113
aI2573
aI2569
aI718
aL0L
aa(lp810
g364
aI2113
aI2573
aI2569
aI718
aL0L
aa(lp811
g360
aI581
aI407
aI1
aI368
aL0L
aa(lp812
g360
aI581
aI407
aI1
aI368
aL0L
aa(lp813
g360
aI581
aI27
aI1
aI164
aL0L
aa(lp814
g364
aI2113
aI2573
aI2569
aI718
aL0L
aa(lp815
g364
aI2113
aI2573
aI2569
aI718
aL0L
aa(lp816
g364
aI2113
aI2573
aI2569
aI718
aL0L
aa(lp817
g364
aI2113
aI2573
aI2569
aI718
aL0L
aa(lp818
g364
aI2113
aI2573
aI2569
aI718
aL0L
aa(lp819
g364
aI2113
aI2573
aI2569
aI718
aL0L
aa(lp820
g364
aI2113
aI2573
aI2569
aI718
aL0L
aa(lp821
g364
aI2113
aI2573
aI2569
aI718
aL0L
aa(lp822
g364
aI2113
aI2573
aI2569
aI718
aL0L
aa(lp823
g364
aI2113
aI2573
aI2569
aI718
aL0L
aa(lp824
g364
aI2113
aI2573
aI2569
aI718
aL0L
aa(lp825
g364
aI2113
aI2573
aI2569
aI718
aL0L
aa(lp826
g364
aI2113
aI2573
aI2569
aI718
aL0L
aa(lp827
g364
aI2113
aI2573
aI2569
aI718
aL0L
aa(lp828
g364
aI2113
aI2573
aI2569
aI718
aL0L
aa(lp829
g364
aI2113
aI2573
aI2569
aI718
aL0L
aa(lp830
g364
aI2113
aI2573
aI2569
aI718
aL0L
aa(lp831
g364
aI2113
aI2573
aI2569
aI718
aL0L
aa(lp832
g364
aI2113
aI2573
aI2569
aI718
aL0L
aa(lp833
g364
aI2113
aI2573
aI2569
aI718
aL0L
aa(lp834
g364
aI2113
aI2573
aI2569
aI718
aL0L
aa(lp835
g364
aI2113
aI2573
aI2569
aI718
aL0L
aa(lp836
g364
aI2113
aI2573
aI2569
aI718
aL0L
aa(lp837
g364
aI2113
aI2573
aI2569
aI718
aL0L
aa(lp838
g364
aI2113
aI2573
aI2569
aI718
aL0L
aa(lp839
g364
aI2113
aI2573
aI2569
aI718
aL0L
aa(lp840
g364
aI2113
aI2573
aI2569
aI718
aL0L
aa(lp841
g364
aI2113
aI2573
aI2569
aI718
aL0L
aa(lp842
g364
aI2113
aI2573
aI2569
aI718
aL0L
aa(lp843
g364
aI2113
aI2573
aI2569
aI718
aL0L
aa(lp844
g364
aI2113
aI2573
aI2569
aI718
aL0L
aa(lp845
g364
aI2113
aI2573
aI2569
aI718
aL0L
aa(lp846
g364
aI2113
aI2573
aI2569
aI718
aL0L
aa(lp847
g364
aI2113
aI2573
aI2569
aI718
aL0L
aa(lp848
g364
aI2113
aI2573
aI2569
aI718
aL0L
aa(lp849
g364
aI2113
aI2573
aI2569
aI718
aL0L
aa(lp850
g364
aI2113
aI2573
aI2569
aI718
aL0L
aa(lp851
g364
aI2113
aI2573
aI2569
aI718
aL0L
aa(lp852
g364
aI2113
aI2573
aI2569
aI718
aL0L
aa(lp853
g364
aI2113
aI2573
aI2569
aI718
aL0L
aa(lp854
g364
aI2113
aI2573
aI2569
aI718
aL0L
aa(lp855
g364
aI2113
aI2573
aI2569
aI718
aL0L
aa(lp856
g364
aI2113
aI2573
aI2569
aI718
aL0L
aa(lp857
g364
aI2113
aI2573
aI2569
aI718
aL0L
aa(lp858
g364
aI2113
aI2573
aI2569
aI718
aL0L
aa(lp859
g364
aI2113
aI2573
aI2569
aI718
aL0L
aa(lp860
g364
aI2113
aI2573
aI2569
aI718
aL0L
aa(lp861
g364
aI2113
aI2573
aI2569
aI718
aL0L
aa(lp862
g364
aI2113
aI2573
aI2569
aI718
aL0L
aa(lp863
g364
aI2113
aI2573
aI2569
aI718
aL0L
aa(lp864
g364
aI2113
aI2573
aI2569
aI718
aL0L
aa(lp865
g364
aI2113
aI2573
aI2569
aI718
aL0L
aa(lp866
g364
aI2113
aI2573
aI2569
aI718
aL0L
aa(lp867
g364
aI2113
aI2573
aI2569
aI718
aL0L
aa(lp868
g364
aI2113
aI2573
aI2569
aI718
aL0L
aa(lp869
g364
aI2113
aI2573
aI2569
aI718
aL0L
aa(lp870
g364
aI2113
aI2573
aI2569
aI718
aL0L
aa(lp871
g364
aI2113
aI2573
aI2569
aI718
aL0L
aa(lp872
g364
aI2113
aI2573
aI2569
aI718
aL0L
aa(lp873
g364
aI2113
aI2573
aI2569
aI718
aL0L
aa(lp874
g364
aI2113
aI2573
aI2569
aI718
aL0L
aa(lp875
g364
aI2113
aI2573
aI2569
aI718
aL0L
aa(lp876
g364
aI2113
aI2573
aI2569
aI718
aL0L
aa(lp877
g364
aI2113
aI2573
aI2569
aI718
aL0L
aa(lp878
g364
aI2113
aI2573
aI2569
aI718
aL0L
aa(lp879
g364
aI2113
aI2573
aI2569
aI718
aL0L
aa(lp880
g364
aI2113
aI2573
aI2569
aI718
aL0L
aa(lp881
g364
aI2113
aI2573
aI2569
aI718
aL0L
aa(lp882
g364
aI2113
aI2573
aI2569
aI718
aL0L
aa(lp883
g364
aI2113
aI2573
aI2569
aI718
aL0L
aa(lp884
g360
aI581
aI407
aI1
aI368
aL0L
aa(lp885
g360
aI581
aI407
aI1
aI368
aL0L
aa(lp886
g360
aI581
aI27
aI1
aI164
aL0L
aa(lp887
g364
aI2113
aI2573
aI2569
aI718
aL0L
aa(lp888
g364
aI2113
aI2573
aI2569
aI718
aL0L
aa(lp889
g364
aI2113
aI2573
aI2569
aI718
aL0L
aa(lp890
g364
aI2113
aI2573
aI2569
aI718
aL0L
aa(lp891
g364
aI2113
aI2573
aI2569
aI718
aL0L
aa(lp892
g364
aI2113
aI2573
aI2569
aI718
aL0L
aa(lp893
g364
aI2113
aI2573
aI2569
aI718
aL0L
aa(lp894
g364
aI2113
aI2573
aI2569
aI718
aL0L
aa(lp895
g364
aI2113
aI2573
aI2569
aI718
aL0L
aa(lp896
g364
aI2113
aI2573
aI2569
aI718
aL0L
aa(lp897
g364
aI2113
aI2573
aI2569
aI718
aL0L
aa(lp898
g364
aI2113
aI2573
aI2569
aI718
aL0L
aa(lp899
g364
aI2113
aI2573
aI2569
aI718
aL0L
aa(lp900
g364
aI2113
aI2573
aI2569
aI718
aL0L
aa(lp901
g364
aI2113
aI2573
aI2569
aI718
aL0L
aa(lp902
g364
aI2113
aI2573
aI2569
aI718
aL0L
aa(lp903
g364
aI2113
aI2573
aI2569
aI718
aL0L
aa(lp904
g364
aI2113
aI2573
aI2569
aI718
aL0L
aa(lp905
g364
aI2113
aI2573
aI2569
aI718
aL0L
aa(lp906
g364
aI2113
aI2573
aI2569
aI718
aL0L
aa(lp907
g364
aI2113
aI2573
aI2569
aI718
aL0L
aa(lp908
g364
aI2113
aI2573
aI2569
aI718
aL0L
aa(lp909
g364
aI2113
aI2573
aI2569
aI718
aL0L
aa(lp910
g364
aI2113
aI2573
aI2569
aI718
aL0L
aa(lp911
g364
aI2113
aI2573
aI2569
aI718
aL0L
aa(lp912
g364
aI2113
aI2573
aI2569
aI718
aL0L
aa(lp913
g364
aI2113
aI2573
aI2569
aI718
aL0L
aa(lp914
g364
aI2113
aI2573
aI2569
aI718
aL0L
aa(lp915
g364
aI2113
aI2573
aI2569
aI718
aL0L
aa(lp916
g364
aI2113
aI2573
aI2569
aI718
aL0L
aa(lp917
g364
aI2113
aI2573
aI2569
aI718
aL0L
aa(lp918
g364
aI2113
aI2573
aI2569
aI718
aL0L
aa(lp919
g364
aI2113
aI2573
aI2569
aI718
aL0L
aa(lp920
g364
aI2113
aI2573
aI2569
aI718
aL0L
aa(lp921
g364
aI2113
aI2573
aI2569
aI718
aL0L
aa(lp922
g364
aI2113
aI2573
aI2569
aI718
aL0L
aa(lp923
g364
aI2113
aI2573
aI2569
aI718
aL0L
aa(lp924
g364
aI2113
aI2573
aI2569
aI718
aL0L
aa(lp925
g364
aI2113
aI2573
aI2569
aI718
aL0L
aa(lp926
g364
aI2113
aI2573
aI2569
aI718
aL0L
aa(lp927
g364
aI2113
aI2573
aI2569
aI718
aL0L
aa(lp928
g364
aI2113
aI2573
aI2569
aI718
aL0L
aa(lp929
g364
aI2113
aI2573
aI2569
aI718
aL0L
aa(lp930
g364
aI2113
aI2573
aI2569
aI718
aL0L
aa(lp931
g364
aI2113
aI2573
aI2569
aI718
aL0L
aa(lp932
g364
aI2113
aI2573
aI2569
aI718
aL0L
aa(lp933
g364
aI2113
aI2573
aI2569
aI718
aL0L
aa(lp934
g364
aI2113
aI2573
aI2569
aI718
aL0L
aa(lp935
g364
aI2113
aI2573
aI2569
aI718
aL0L
aa(lp936
g364
aI2113
aI2573
aI2569
aI718
aL0L
aa(lp937
g364
aI2113
aI2573
aI2569
aI718
aL0L
aa(lp938
g364
aI2113
aI2573
aI2569
aI718
aL0L
aa(lp939
g364
aI2113
aI2573
aI2569
aI718
aL0L
aa(lp940
g364
aI2113
aI2573
aI2569
aI718
aL0L
aa(lp941
g364
aI2113
aI2573
aI2569
aI718
aL0L
aa(lp942
g364
aI2113
aI2573
aI2569
aI718
aL0L
aa(lp943
g364
aI2113
aI2573
aI2569
aI718
aL0L
aa(lp944
g364
aI2113
aI2573
aI2569
aI718
aL0L
aa(lp945
g364
aI2113
aI2573
aI2569
aI718
aL0L
aa(lp946
g364
aI2113
aI2573
aI2569
aI718
aL0L
aa(lp947
g364
aI2113
aI2573
aI2569
aI718
aL0L
aa(lp948
g364
aI2113
aI2573
aI2569
aI718
aL0L
aa(lp949
g364
aI2113
aI2573
aI2569
aI718
aL0L
aa(lp950
g364
aI2113
aI2573
aI2569
aI718
aL0L
aa(lp951
g364
aI2113
aI2573
aI2569
aI718
aL0L
aa(lp952
g364
aI2113
aI2573
aI2569
aI718
aL0L
aa(lp953
g364
aI2113
aI2573
aI2569
aI718
aL0L
aa(lp954
g364
aI2113
aI2573
aI2569
aI718
aL0L
aa(lp955
g364
aI2113
aI2573
aI2569
aI718
aL0L
aa(lp956
g360
aI581
aI407
aI1
aI368
aL0L
aa(lp957
g360
aI581
aI407
aI1
aI368
aL0L
aa(lp958
g360
aI581
aI17
aI1
aI164
aL0L
aa(lp959
g364
aI2113
aI2573
aI2569
aI718
aL0L
aa(lp960
g364
aI2113
aI2573
aI2569
aI718
aL0L
aa(lp961
g364
aI2113
aI2573
aI2569
aI718
aL0L
aa(lp962
g364
aI2113
aI2573
aI2569
aI718
aL0L
aa(lp963
g364
aI2113
aI2573
aI2569
aI718
aL0L
aa(lp964
g364
aI2113
aI2573
aI2569
aI718
aL0L
aa(lp965
g364
aI2113
aI2573
aI2569
aI718
aL0L
aa(lp966
g364
aI2113
aI2573
aI2569
aI718
aL0L
aa(lp967
g364
aI2113
aI2573
aI2569
aI718
aL0L
aa(lp968
g364
aI2113
aI2573
aI2569
aI718
aL0L
aa(lp969
g364
aI2113
aI2573
aI2569
aI718
aL0L
aa(lp970
g364
aI2113
aI2573
aI2569
aI718
aL0L
aa(lp971
g364
aI2113
aI2573
aI2569
aI718
aL0L
aa(lp972
g364
aI2113
aI2573
aI2569
aI718
aL0L
aa(lp973
g364
aI2113
aI2573
aI2569
aI718
aL0L
aa(lp974
g364
aI2113
aI2573
aI2569
aI718
aL0L
aa(lp975
g364
aI2113
aI2573
aI2569
aI718
aL0L
aa(lp976
g364
aI2113
aI2573
aI2569
aI718
aL0L
aa(lp977
g364
aI2113
aI2573
aI2569
aI718
aL0L
aa(lp978
g360
aI581
aI407
aI1
aI368
aL0L
aa(lp979
g360
aI581
aI407
aI1
aI368
aL0L
aa(lp980
g360
aI581
aI30
aI1
aI164
aL0L
aa(lp981
g364
aI2113
aI2573
aI2569
aI718
aL0L
aa(lp982
g364
aI2113
aI2573
aI2569
aI718
aL0L
aa(lp983
g364
aI2113
aI2573
aI2569
aI718
aL0L
aa(lp984
g364
aI2113
aI2573
aI2569
aI718
aL0L
aa(lp985
g364
aI2113
aI2573
aI2569
aI718
aL0L
aa(lp986
g364
aI2113
aI2573
aI2569
aI718
aL0L
aa(lp987
g364
aI2113
aI2573
aI2569
aI718
aL0L
aa(lp988
g364
aI2113
aI2573
aI2569
aI718
aL0L
aa(lp989
g364
aI2113
aI2573
aI2569
aI718
aL0L
aa(lp990
g364
aI2113
aI2573
aI2569
aI718
aL0L
aa(lp991
g364
aI2113
aI2573
aI2569
aI718
aL0L
aa(lp992
g364
aI2113
aI2573
aI2569
aI718
aL0L
aa(lp993
g364
aI2113
aI2573
aI2569
aI718
aL0L
aa(lp994
g364
aI2113
aI2573
aI2569
aI718
aL0L
aa(lp995
g364
aI2113
aI2573
aI2569
aI718
aL0L
aa(lp996
g364
aI2113
aI2573
aI2569
aI718
aL0L
aa(lp997
g364
aI2113
aI2573
aI2569
aI718
aL0L
aa(lp998
g364
aI2113
aI2573
aI2569
aI718
aL0L
aa(lp999
g364
aI2113
aI2573
aI2569
aI718
aL0L
aa(lp1000
g364
aI2113
aI2573
aI2569
aI718
aL0L
aa(lp1001
g364
aI2113
aI2573
aI2569
aI718
aL0L
aa(lp1002
g364
aI2113
aI2573
aI2569
aI718
aL0L
aa(lp1003
g364
aI2113
aI2573
aI2569
aI718
aL0L
aa(lp1004
g364
aI2113
aI2573
aI2569
aI718
aL0L
aa(lp1005
g364
aI2113
aI2573
aI2569
aI718
aL0L
aa(lp1006
g364
aI2113
aI2573
aI2569
aI718
aL0L
aa(lp1007
g364
aI2113
aI2573
aI2569
aI718
aL0L
aa(lp1008
g364
aI2113
aI2573
aI2569
aI718
aL0L
aa(lp1009
g364
aI2113
aI2573
aI2569
aI718
aL0L
aa(lp1010
g364
aI2113
aI2573
aI2569
aI718
aL0L
aa(lp1011
g364
aI2113
aI2573
aI2569
aI718
aL0L
aa(lp1012
g364
aI2113
aI2573
aI2569
aI718
aL0L
aa(lp1013
g364
aI2113
aI2573
aI2569
aI718
aL0L
aa(lp1014
g364
aI2113
aI2573
aI2569
aI718
aL0L
aa(lp1015
g364
aI2113
aI2573
aI2569
aI718
aL0L
aa(lp1016
g364
aI2113
aI2573
aI2569
aI718
aL0L
aa(lp1017
g364
aI2113
aI2573
aI2569
aI718
aL0L
aa(lp1018
g364
aI2113
aI2573
aI2569
aI718
aL0L
aa(lp1019
g364
aI2113
aI2573
aI2569
aI718
aL0L
aa(lp1020
g364
aI2113
aI2573
aI2569
aI718
aL0L
aa(lp1021
g364
aI2113
aI2573
aI2569
aI718
aL0L
aa(lp1022
g364
aI2113
aI2573
aI2569
aI718
aL0L
aa(lp1023
g364
aI2113
aI2573
aI2569
aI718
aL0L
aa(lp1024
g364
aI2113
aI2573
aI2569
aI718
aL0L
aa(lp1025
g364
aI2113
aI2573
aI2569
aI718
aL0L
aa(lp1026
g364
aI2113
aI2573
aI2569
aI718
aL0L
aa(lp1027
g364
aI2113
aI2573
aI2569
aI718
aL0L
aa(lp1028
g364
aI2113
aI2573
aI2569
aI718
aL0L
aa(lp1029
g364
aI2113
aI2573
aI2569
aI718
aL0L
aa(lp1030
g364
aI2113
aI2573
aI2569
aI718
aL0L
aa(lp1031
g364
aI2113
aI2573
aI2569
aI718
aL0L
aa(lp1032
g360
aI581
aI407
aI1
aI368
aL0L
aa(lp1033
g360
aI581
aI407
aI1
aI368
aL0L
aa(lp1034
g360
aI581
aI20
aI1
aI164
aL0L
aa(lp1035
g364
aI2113
aI2573
aI2569
aI718
aL0L
aa(lp1036
g364
aI2113
aI2573
aI2569
aI718
aL0L
aa(lp1037
g364
aI2113
aI2573
aI2569
aI718
aL0L
aa(lp1038
g364
aI2113
aI2573
aI2569
aI718
aL0L
aa(lp1039
g364
aI2113
aI2573
aI2569
aI718
aL0L
aa(lp1040
g364
aI2113
aI2573
aI2569
aI718
aL0L
aa(lp1041
g364
aI2113
aI2573
aI2569
aI718
aL0L
aa(lp1042
g364
aI2113
aI2573
aI2569
aI718
aL0L
aa(lp1043
g364
aI2113
aI2573
aI2569
aI718
aL0L
aa(lp1044
g364
aI2113
aI2573
aI2569
aI718
aL0L
aa(lp1045
g364
aI2113
aI2573
aI2569
aI718
aL0L
aa(lp1046
g364
aI2113
aI2573
aI2569
aI718
aL0L
aa(lp1047
g364
aI2113
aI2573
aI2569
aI718
aL0L
aa(lp1048
g364
aI2113
aI2573
aI2569
aI718
aL0L
aa(lp1049
g364
aI2113
aI2573
aI2569
aI718
aL0L
aa(lp1050
g364
aI2113
aI2573
aI2569
aI718
aL0L
aa(lp1051
g364
aI2113
aI2573
aI2569
aI718
aL0L
aa(lp1052
g364
aI2113
aI2573
aI2569
aI718
aL0L
aa(lp1053
g364
aI2113
aI2573
aI2569
aI718
aL0L
aa(lp1054
g364
aI2113
aI2573
aI2569
aI718
aL0L
aa(lp1055
g364
aI2113
aI2573
aI2569
aI718
aL0L
aa(lp1056
g364
aI2113
aI2573
aI2569
aI718
aL0L
aa(lp1057
g364
aI2113
aI2573
aI2569
aI718
aL0L
aa(lp1058
g364
aI2113
aI2573
aI2569
aI718
aL0L
aa(lp1059
g364
aI2113
aI2573
aI2569
aI718
aL0L
aa(lp1060
g364
aI2113
aI2573
aI2569
aI718
aL0L
aa(lp1061
g364
aI2113
aI2573
aI2569
aI718
aL0L
aa(lp1062
g364
aI2113
aI2573
aI2569
aI718
aL0L
aa(lp1063
g364
aI2113
aI2573
aI2569
aI718
aL0L
aa(lp1064
g364
aI2113
aI2573
aI2569
aI718
aL0L
aa(lp1065
g364
aI2113
aI2573
aI2569
aI718
aL0L
aa(lp1066
g364
aI2113
aI2573
aI2569
aI718
aL0L
aa(lp1067
g364
aI2113
aI2573
aI2569
aI718
aL0L
aa(lp1068
g364
aI2113
aI2573
aI2569
aI718
aL0L
aa(lp1069
g364
aI2113
aI2573
aI2569
aI718
aL0L
aa(lp1070
g364
aI2113
aI2573
aI2569
aI718
aL0L
aa(lp1071
g364
aI2113
aI2573
aI2569
aI718
aL0L
aa(lp1072
g364
aI2113
aI2573
aI2569
aI718
aL0L
aa(lp1073
g364
aI2113
aI2573
aI2569
aI718
aL0L
aa(lp1074
g364
aI2113
aI2573
aI2569
aI718
aL0L
aa(lp1075
g364
aI2113
aI2573
aI2569
aI718
aL0L
aa(lp1076
g364
aI2113
aI2573
aI2569
aI718
aL0L
aa(lp1077
g364
aI2113
aI2573
aI2569
aI718
aL0L
aa(lp1078
g364
aI2113
aI2573
aI2569
aI718
aL0L
aa(lp1079
g364
aI2113
aI2573
aI2569
aI718
aL0L
aa(lp1080
g364
aI2113
aI2573
aI2569
aI718
aL0L
aa(lp1081
g364
aI2113
aI2573
aI2569
aI718
aL0L
aa(lp1082
g364
aI2113
aI2573
aI2569
aI718
aL0L
aa(lp1083
g364
aI2113
aI2573
aI2569
aI718
aL0L
aa(lp1084
g364
aI2113
aI2573
aI2569
aI718
aL0L
aa(lp1085
g364
aI2113
aI2573
aI2569
aI718
aL0L
aa(lp1086
g364
aI2113
aI2573
aI2569
aI718
aL0L
aa(lp1087
g364
aI2113
aI2573
aI2569
aI718
aL0L
aa(lp1088
g364
aI2113
aI2573
aI2569
aI718
aL0L
aa(lp1089
g364
aI2113
aI2573
aI2569
aI718
aL0L
aa(lp1090
g364
aI2113
aI2573
aI2569
aI718
aL0L
aa(lp1091
g364
aI2113
aI2573
aI2569
aI718
aL0L
aa(lp1092
g364
aI2113
aI2573
aI2569
aI718
aL0L
aa(lp1093
g364
aI2113
aI2573
aI2569
aI718
aL0L
aa(lp1094
g364
aI2113
aI2573
aI2569
aI718
aL0L
aa(lp1095
g364
aI2113
aI2573
aI2569
aI718
aL0L
aa(lp1096
g364
aI2113
aI2573
aI2569
aI718
aL0L
aa(lp1097
g364
aI2113
aI2573
aI2569
aI718
aL0L
aa(lp1098
g364
aI2113
aI2573
aI2569
aI718
aL0L
aa(lp1099
g364
aI2113
aI2573
aI2569
aI718
aL0L
aa(lp1100
g360
aI581
aI407
aI1
aI368
aL0L
aa(lp1101
g360
aI581
aI407
aI1
aI368
aL0L
aa(lp1102
g360
aI581
aI17
aI1
aI164
aL0L
aa(lp1103
g360
aI581
aI407
aI1
aI368
aL0L
aa(lp1104
g360
aI581
aI407
aI1
aI368
aL0L
aa(lp1105
g360
aI581
aI26
aI1
aI164
aL0L
aa(lp1106
g360
aI581
aI407
aI1
aI368
aL0L
aa(lp1107
g360
aI581
aI407
aI1
aI368
aL0L
aa(lp1108
g360
aI581
aI30
aI1
aI164
aL0L
aa(lp1109
g360
aI581
aI407
aI1
aI368
aL0L
aa(lp1110
g360
aI581
aI407
aI1
aI368
aL0L
aa(lp1111
g360
aI581
aI407
aI1
aI368
aL0L
aa(lp1112
g360
aI581
aI407
aI1
aI368
aL0L
aa(lp1113
g360
aI581
aI407
aI1
aI368
aL0L
aa(lp1114
g360
aI581
aI27
aI1
aI43
aL0L
aa(lp1115
g360
aI581
aI407
aI2
aI368
aL0L
aa(lp1116
g360
aI581
aI407
aI1
aI368
aL0L
aa(lp1117
g360
aI581
aI20
aI1
aI164
aL0L
aa(lp1118
g360
aI581
aI407
aI1
aI368
aL0L
aa(lp1119
g360
aI581
aI407
aI1
aI368
aL0L
aa(lp1120
g360
aI581
aI407
aI1
aI368
aL0L
aa(lp1121
g360
aI581
aI407
aI1
aI368
aL0L
aa(lp1122
g360
aI581
aI7
aI1
aI43
aL0L
aa(lp1123
g360
aI581
aI5
aI1
aI43
aL0L
aa(lp1124
g360
aI581
aI407
aI1
aI368
aL0L
aa(lp1125
g360
aI581
aI407
aI1
aI368
aL0L
aa(lp1126
g360
aI581
aI3
aI1
aI164
aL0L
aa(lp1127
g360
aI581
aI407
aI1
aI368
aL0L
aa(lp1128
g360
aI581
aI407
aI1
aI368
aL0L
aa(lp1129
g360
aI581
aI2
aI1
aI164
aL0L
aa(lp1130
g360
aI581
aI407
aI1
aI368
aL0L
aa(lp1131
g360
aI581
aI407
aI1
aI368
aL0L
aa(lp1132
g360
aI581
aI407
aI1
aI368
aL0L
aa(lp1133
g360
aI581
aI407
aI2
aI368
aL0L
aa(lp1134
g360
aI581
aI407
aI1
aI368
aL0L
aa(lp1135
g360
aI581
aI407
aI1
aI368
aL0L
aa(lp1136
g360
aI581
aI407
aI1
aI368
aL0L
aa(lp1137
g360
aI581
aI407
aI1
aI368
aL0L
aa(lp1138
g360
aI581
aI7
aI1
aI43
aL0L
aa(lp1139
g360
aI581
aI407
aI1
aI368
aL0L
aa(lp1140
g360
aI581
aI7
aI1
aI43
aL0L
aa(lp1141
g360
aI581
aI407
aI1
aI368
aL0L
aa(lp1142
g360
aI581
aI407
aI1
aI368
aL0L
aa(lp1143
g360
aI581
aI407
aI1
aI368
aL0L
aa(lp1144
g360
aI581
aI407
aI1
aI368
aL0L
aa(lp1145
g360
aI581
aI407
aI1
aI368
aL0L
aa(lp1146
g360
aI581
aI407
aI1
aI368
aL0L
aa(lp1147
g360
aI581
aI7
aI1
aI43
aL0L
aa(lp1148
g360
aI581
aI7
aI1
aI43
aL0L
aa(lp1149
g360
aI581
aI7
aI1
aI43
aL0L
aa(lp1150
g360
aI581
aI7
aI1
aI43
aL0L
aa(lp1151
g360
aI581
aI407
aI2
aI368
aL0L
aa(lp1152
g360
aI581
aI5
aI1
aI43
aL0L
aa(lp1153
g360
aI581
aI5
aI1
aI43
aL0L
aa(lp1154
g360
aI581
aI3
aI1
aI43
aL0L
aa(lp1155
g360
aI581
aI3
aI1
aI43
aL0L
aa(lp1156
g360
aI581
aI3
aI1
aI43
aL0L
aa(lp1157
g360
aI581
aI407
aI1
aI368
aL0L
aa(lp1158
g360
aI581
aI407
aI1
aI368
aL0L
aa(lp1159
g360
aI581
aI407
aI1
aI368
aL0L
aa(lp1160
g360
aI581
aI407
aI1
aI368
aL0L
aa(lp1161
g360
aI581
aI26
aI1
aI164
aL0L
aa(lp1162
g360
aI581
aI407
aI1
aI368
aL0L
aa(lp1163
g360
aI581
aI407
aI1
aI368
aL0L
aa(lp1164
g360
aI581
aI7
aI1
aI43
aL0L
aa(lp1165
g360
aI581
aI7
aI1
aI43
aL0L
aa(lp1166
g360
aI581
aI7
aI1
aI43
aL0L
aa(lp1167
g360
aI581
aI7
aI1
aI43
aL0L
aa(lp1168
g360
aI581
aI7
aI1
aI43
aL0L
aa(lp1169
g360
aI581
aI7
aI1
aI43
aL0L
aa(lp1170
g360
aI581
aI407
aI1
aI368
aL0L
aa(lp1171
g360
aI581
aI407
aI1
aI368
aL0L
aa(lp1172
g360
aI581
aI18
aI1
aI164
aL0L
aa(lp1173
g364
aI2113
aI407
aI8
aI20
aL0L
aa(lp1174
g364
aI2113
aI2573
aI2569
aI1371
aL0L
aa(lp1175
g364
aI2113
aI407
aI8
aI20
aL0L
aa(lp1176
g364
aI2113
aI2573
aI2569
aI1371
aL0L
aa(lp1177
g364
aI2113
aI407
aI8
aI20
aL0L
aa(lp1178
g364
aI2113
aI2573
aI2569
aI1371
aL0L
aa(lp1179
g364
aI2113
aI407
aI8
aI20
aL0L
aa(lp1180
g364
aI2113
aI2573
aI2569
aI1371
aL0L
aa(lp1181
g364
aI2113
aI407
aI8
aI20
aL0L
aa(lp1182
g364
aI2113
aI2573
aI2569
aI1371
aL0L
aa(lp1183
g364
aI2113
aI407
aI8
aI20
aL0L
aa(lp1184
g364
aI2113
aI2573
aI2569
aI1371
aL0L
aa(lp1185
g364
aI2113
aI407
aI8
aI20
aL0L
aa(lp1186
g364
aI2113
aI2573
aI2569
aI1371
aL0L
aa(lp1187
g364
aI2113
aI407
aI8
aI20
aL0L
aa(lp1188
g364
aI2113
aI2573
aI2569
aI1371
aL0L
aa(lp1189
g364
aI2113
aI2573
aI2569
aI1371
aL0L
aa(lp1190
g364
aI2113
aI2573
aI2569
aI1371
aL0L
aa(lp1191
g364
aI2113
aI2573
aI2569
aI1371
aL0L
aa(lp1192
g364
aI2113
aI2573
aI2569
aI1371
aL0L
aa(lp1193
g364
aI2113
aI2573
aI2569
aI1371
aL0L
aa(lp1194
g364
aI2113
aI2573
aI2569
aI1371
aL0L
aa(lp1195
g364
aI2113
aI2573
aI2569
aI1371
aL0L
aa(lp1196
g364
aI2113
aI2573
aI2569
aI1371
aL0L
aa(lp1197
g364
aI2113
aI2573
aI2569
aI1371
aL0L
aa(lp1198
g364
aI2113
aI2573
aI2569
aI1371
aL0L
aa(lp1199
g364
aI2113
aI2573
aI2569
aI1371
aL0L
aa(lp1200
g364
aI2113
aI2573
aI2569
aI1371
aL0L
aa(lp1201
g364
aI2113
aI2573
aI2569
aI1371
aL0L
aa(lp1202
g364
aI2113
aI2573
aI2569
aI1371
aL0L
aa(lp1203
g364
aI2113
aI2573
aI2569
aI1371
aL0L
aa(lp1204
g364
aI2113
aI2573
aI2569
aI1371
aL0L
aa(lp1205
g364
aI2113
aI2573
aI2569
aI1371
aL0L
aa(lp1206
g364
aI2113
aI2573
aI2569
aI1371
aL0L
aa(lp1207
g364
aI2113
aI2573
aI2569
aI1371
aL0L
aa(lp1208
g364
aI2113
aI2573
aI2569
aI1371
aL0L
aa(lp1209
g364
aI2113
aI2573
aI2569
aI1371
aL0L
aa(lp1210
g364
aI2113
aI2573
aI2569
aI1371
aL0L
aa(lp1211
g364
aI2113
aI2573
aI2569
aI1371
aL0L
aa(lp1212
g360
aI581
aI407
aI1
aI368
aL0L
aa(lp1213
g360
aI581
aI407
aI1
aI368
aL0L
aa(lp1214
g360
aI581
aI30
aI1
aI164
aL0L
aa(lp1215
g364
aI2113
aI2573
aI2569
aI1371
aL0L
aa(lp1216
g364
aI2113
aI2573
aI2569
aI1371
aL0L
aa(lp1217
g364
aI2113
aI2573
aI2569
aI1371
aL0L
aa(lp1218
g364
aI2113
aI2573
aI2569
aI1371
aL0L
aa(lp1219
g364
aI2113
aI2573
aI2569
aI1371
aL0L
aa(lp1220
g364
aI2113
aI2573
aI2569
aI1371
aL0L
aa(lp1221
g364
aI2113
aI2573
aI2569
aI1371
aL0L
aa(lp1222
g364
aI2113
aI2573
aI2569
aI1371
aL0L
aa(lp1223
g364
aI2113
aI2573
aI2569
aI1371
aL0L
aa(lp1224
g364
aI2113
aI2573
aI2569
aI1371
aL0L
aa(lp1225
g364
aI2113
aI2573
aI2569
aI1371
aL0L
aa(lp1226
g364
aI2113
aI2573
aI2569
aI1371
aL0L
aa(lp1227
g364
aI2113
aI2573
aI2569
aI1371
aL0L
aa(lp1228
g364
aI2113
aI2573
aI2569
aI1371
aL0L
aa(lp1229
g364
aI2113
aI2573
aI2569
aI1371
aL0L
aa(lp1230
g364
aI2113
aI2573
aI2569
aI1371
aL0L
aa(lp1231
g364
aI2113
aI2573
aI2569
aI1371
aL0L
aa(lp1232
g364
aI2113
aI2573
aI2569
aI1371
aL0L
aa(lp1233
g364
aI2113
aI2573
aI2569
aI1371
aL0L
aa(lp1234
g364
aI2113
aI2573
aI2569
aI1371
aL0L
aa(lp1235
g364
aI2113
aI2573
aI2569
aI1371
aL0L
aa(lp1236
g364
aI2113
aI2573
aI2569
aI1371
aL0L
aa(lp1237
g364
aI2113
aI2573
aI2569
aI1371
aL0L
aa(lp1238
g364
aI2113
aI2573
aI2569
aI1371
aL0L
aa(lp1239
g364
aI2113
aI2573
aI2569
aI1371
aL0L
aa(lp1240
g364
aI2113
aI2573
aI2569
aI1371
aL0L
aa(lp1241
g364
aI2113
aI2573
aI2569
aI1371
aL0L
aa(lp1242
g364
aI2113
aI2573
aI2569
aI1371
aL0L
aa(lp1243
g364
aI2113
aI2573
aI2569
aI1371
aL0L
aa(lp1244
g364
aI2113
aI2573
aI2569
aI1371
aL0L
aa(lp1245
g364
aI2113
aI2573
aI2569
aI1371
aL0L
aa(lp1246
g364
aI2113
aI2573
aI2569
aI1371
aL0L
aa(lp1247
g364
aI2113
aI2573
aI2569
aI1371
aL0L
aa(lp1248
g364
aI2113
aI2573
aI2569
aI1371
aL0L
aa(lp1249
g364
aI2113
aI2573
aI2569
aI1371
aL0L
aa(lp1250
g364
aI2113
aI2573
aI2569
aI1371
aL0L
aa(lp1251
g364
aI2113
aI2573
aI2569
aI1371
aL0L
aa(lp1252
g364
aI2113
aI2573
aI2569
aI1371
aL0L
aa(lp1253
g360
aI581
aI407
aI1
aI368
aL0L
aa(lp1254
g360
aI581
aI407
aI1
aI368
aL0L
aa(lp1255
g360
aI581
aI26
aI1
aI164
aL0L
aa(lp1256
g364
aI2113
aI2573
aI2569
aI1371
aL0L
aa(lp1257
g364
aI2113
aI2573
aI2569
aI1371
aL0L
aa(lp1258
g364
aI2113
aI2573
aI2569
aI1371
aL0L
aa(lp1259
g364
aI2113
aI2573
aI2569
aI1371
aL0L
aa(lp1260
g364
aI2113
aI2573
aI2569
aI1371
aL0L
aa(lp1261
g364
aI2113
aI2573
aI2569
aI1371
aL0L
aa(lp1262
g364
aI2113
aI2573
aI2569
aI1371
aL0L
aa(lp1263
g364
aI2113
aI2573
aI2569
aI1371
aL0L
aa(lp1264
g364
aI2113
aI2573
aI2569
aI1371
aL0L
aa(lp1265
g364
aI2113
aI2573
aI2569
aI1371
aL0L
aa(lp1266
g364
aI2113
aI2573
aI2569
aI1371
aL0L
aa(lp1267
g364
aI2113
aI2573
aI2569
aI1371
aL0L
aa(lp1268
g364
aI2113
aI2573
aI2569
aI1371
aL0L
aa(lp1269
g364
aI2113
aI2573
aI2569
aI1371
aL0L
aa(lp1270
g364
aI2113
aI2573
aI2569
aI1371
aL0L
aa(lp1271
g364
aI2113
aI2573
aI2569
aI1371
aL0L
aa(lp1272
g364
aI2113
aI2573
aI2569
aI1371
aL0L
aa(lp1273
g364
aI2113
aI2573
aI2569
aI1371
aL0L
aa(lp1274
g364
aI2113
aI2573
aI2569
aI1371
aL0L
aa(lp1275
g364
aI2113
aI2573
aI2569
aI1371
aL0L
aa(lp1276
g364
aI2113
aI2573
aI2569
aI1371
aL0L
aa(lp1277
g364
aI2113
aI2573
aI2569
aI1371
aL0L
aa(lp1278
g364
aI2113
aI2573
aI2569
aI1371
aL0L
aa(lp1279
g364
aI2113
aI2573
aI2569
aI1371
aL0L
aa(lp1280
g364
aI2113
aI2573
aI2569
aI1371
aL0L
aa(lp1281
g364
aI2113
aI2573
aI2569
aI1371
aL0L
aa(lp1282
g364
aI2113
aI2573
aI2569
aI1371
aL0L
aa(lp1283
g364
aI2113
aI2573
aI2569
aI1371
aL0L
aa(lp1284
g364
aI2113
aI2573
aI2569
aI1371
aL0L
aa(lp1285
g364
aI2113
aI2573
aI2569
aI1371
aL0L
aa(lp1286
g364
aI2113
aI2573
aI2569
aI1371
aL0L
aa(lp1287
g364
aI2113
aI2573
aI2569
aI1371
aL0L
aa(lp1288
g364
aI2113
aI2573
aI2569
aI1371
aL0L
aa(lp1289
g360
aI581
aI407
aI1
aI368
aL0L
aa(lp1290
g364
aI2113
aI2573
aI2569
aI1371
aL0L
aa(lp1291
g360
aI581
aI407
aI1
aI368
aL0L
aa(lp1292
g360
aI581
aI407
aI1
aI368
aL0L
aa(lp1293
g360
aI581
aI407
aI1
aI368
aL0L
aa(lp1294
g360
aI581
aI407
aI1
aI368
aL0L
aa(lp1295
g360
aI581
aI407
aI1
aI368
aL0L
aa(lp1296
g360
aI581
aI407
aI1
aI368
aL0L
aa(lp1297
g360
aI581
aI407
aI1
aI368
aL0L
aa(lp1298
g364
aI2113
aI2573
aI2569
aI1371
aL0L
aa(lp1299
g360
aI581
aI407
aI1
aI368
aL0L
aa(lp1300
g360
aI581
aI407
aI1
aI368
aL0L
aa(lp1301
g360
aI581
aI407
aI1
aI368
aL0L
aa(lp1302
g360
aI581
aI407
aI1
aI368
aL0L
aa(lp1303
g360
aI581
aI407
aI1
aI368
aL0L
aa(lp1304
g360
aI581
aI407
aI1
aI368
aL0L
aa(lp1305
g364
aI2113
aI2573
aI2569
aI1371
aL0L
aa(lp1306
g364
aI2113
aI2573
aI2569
aI1371
aL0L
aa(lp1307
g364
aI2113
aI2573
aI2569
aI1371
aL0L
aa(lp1308
g364
aI2113
aI2573
aI2569
aI1371
aL0L
aa(lp1309
g364
aI2113
aI2573
aI2569
aI1371
aL0L
aa(lp1310
g364
aI2113
aI2573
aI2569
aI1371
aL0L
aa(lp1311
g364
aI2113
aI2573
aI2569
aI1371
aL0L
aa(lp1312
g364
aI2113
aI2573
aI2569
aI1371
aL0L
aa(lp1313
g364
aI2113
aI2573
aI2569
aI1371
aL0L
aa(lp1314
g364
aI2113
aI2573
aI2569
aI1371
aL0L
aa(lp1315
g364
aI2113
aI2573
aI2569
aI1371
aL0L
aa(lp1316
g364
aI2113
aI2573
aI2569
aI1371
aL0L
aa(lp1317
g364
aI2113
aI2573
aI2569
aI1371
aL0L
aa(lp1318
g364
aI2113
aI2573
aI2569
aI1371
aL0L
aa(lp1319
g364
aI2113
aI2573
aI2569
aI1371
aL0L
aa(lp1320
g364
aI2113
aI2573
aI2569
aI1371
aL0L
aa(lp1321
g364
aI2113
aI2573
aI2569
aI1371
aL0L
aa(lp1322
g364
aI2113
aI2573
aI2569
aI1371
aL0L
aa(lp1323
g364
aI2113
aI2573
aI2569
aI1371
aL0L
aa(lp1324
g364
aI2113
aI2573
aI2569
aI1371
aL0L
aa(lp1325
g364
aI2113
aI2573
aI2569
aI1371
aL0L
aa(lp1326
g364
aI2113
aI2573
aI2569
aI1371
aL0L
aa(lp1327
g364
aI2113
aI2573
aI2569
aI1371
aL0L
aa(lp1328
g364
aI2113
aI2573
aI2569
aI1371
aL0L
aa(lp1329
g364
aI2113
aI2573
aI2569
aI1371
aL0L
aa(lp1330
g364
aI2113
aI2573
aI2569
aI1371
aL0L
aa(lp1331
g364
aI2113
aI2573
aI2569
aI1371
aL0L
aa(lp1332
g364
aI2113
aI2573
aI2569
aI1371
aL0L
aa(lp1333
g364
aI2113
aI2573
aI2569
aI1371
aL0L
aa(lp1334
g360
aI581
aI407
aI1
aI368
aL0L
aa(lp1335
g360
aI581
aI407
aI1
aI368
aL0L
aa(lp1336
g360
aI581
aI407
aI1
aI368
aL0L
aa(lp1337
g364
aI2113
aI2573
aI2569
aI1371
aL0L
aa(lp1338
g360
aI581
aI21
aI1
aI164
aL0L
aa(lp1339
g364
aI2113
aI2573
aI2569
aI1371
aL0L
aa(lp1340
g360
aI581
aI21
aI1
aI164
aL0L
aa(lp1341
g360
aI581
aI21
aI1
aI164
aL0L
aa(lp1342
g360
aI581
aI21
aI1
aI164
aL0L
aa(lp1343
g360
aI581
aI21
aI1
aI164
aL0L
aa(lp1344
g360
aI581
aI21
aI1
aI164
aL0L
aa(lp1345
g360
aI581
aI21
aI1
aI164
aL0L
aa(lp1346
g360
aI581
aI21
aI1
aI164
aL0L
aa(lp1347
g360
aI581
aI21
aI1
aI164
aL0L
aa(lp1348
g360
aI581
aI21
aI1
aI164
aL0L
aa(lp1349
g360
aI581
aI21
aI1
aI164
aL0L
aa(lp1350
g360
aI581
aI21
aI1
aI164
aL0L
aa(lp1351
g360
aI581
aI21
aI1
aI164
aL0L
aa(lp1352
g360
aI581
aI21
aI1
aI164
aL0L
aa(lp1353
g360
aI581
aI21
aI1
aI164
aL0L
aa(lp1354
g360
aI581
aI21
aI1
aI164
aL0L
aa(lp1355
g360
aI581
aI21
aI1
aI164
aL0L
aa(lp1356
g360
aI581
aI21
aI1
aI164
aL0L
aa(lp1357
g364
aI2113
aI2573
aI2569
aI1371
aL0L
aa(lp1358
g360
aI581
aI21
aI1
aI164
aL0L
aa(lp1359
g364
aI2113
aI2573
aI2569
aI1371
aL0L
aa(lp1360
g360
aI581
aI21
aI1
aI164
aL0L
aa(lp1361
g360
aI581
aI407
aI1
aI368
aL0L
aa(lp1362
g360
aI581
aI407
aI1
aI368
aL0L
aa(lp1363
g360
aI581
aI5
aI1
aI164
aL0L
aa(lp1364
g364
aI2113
aI2573
aI2569
aI1371
aL0L
aa(lp1365
g360
aI581
aI21
aI1
aI164
aL0L
aa(lp1366
g360
aI581
aI407
aI1
aI368
aL0L
aa(lp1367
g360
aI581
aI407
aI1
aI368
aL0L
aa(lp1368
g360
aI581
aI26
aI1
aI164
aL0L
aa(lp1369
g364
aI2113
aI2573
aI2569
aI1371
aL0L
aa(lp1370
g360
aI581
aI407
aI1
aI368
aL0L
aa(lp1371
g360
aI581
aI407
aI1
aI368
aL0L
aa(lp1372
g360
aI581
aI1
aI1
aI164
aL0L
aa(lp1373
g364
aI2113
aI2573
aI2569
aI1371
aL0L
aa(lp1374
g360
aI581
aI407
aI1
aI368
aL0L
aa(lp1375
g360
aI581
aI407
aI1
aI368
aL0L
aa(lp1376
g360
aI581
aI407
aI1
aI368
aL0L
aa(lp1377
g360
aI581
aI407
aI1
aI368
aL0L
aa(lp1378
g360
aI581
aI407
aI1
aI368
aL0L
aa(lp1379
g360
aI581
aI407
aI1
aI368
aL0L
aa(lp1380
g360
aI581
aI407
aI1
aI368
aL0L
aa(lp1381
g360
aI581
aI407
aI1
aI368
aL0L
aa(lp1382
g360
aI581
aI407
aI1
aI368
aL0L
aa(lp1383
g360
aI581
aI407
aI1
aI368
aL0L
aa(lp1384
g360
aI581
aI407
aI1
aI368
aL0L
aa(lp1385
g364
aI2113
aI2573
aI2569
aI1371
aL0L
aa(lp1386
g364
aI2113
aI2573
aI2569
aI1371
aL0L
aa(lp1387
g364
aI2113
aI2573
aI2569
aI1371
aL0L
aa(lp1388
g364
aI2113
aI2573
aI2569
aI1371
aL0L
aa(lp1389
g360
aI581
aI407
aI1
aI368
aL0L
aa(lp1390
g360
aI581
aI407
aI1
aI368
aL0L
aa(lp1391
g360
aI581
aI1
aI1
aI164
aL0L
aa(lp1392
g360
aI581
aI407
aI1
aI368
aL0L
aa(lp1393
g360
aI581
aI407
aI1
aI368
aL0L
aa(lp1394
g360
aI581
aI1
aI1
aI164
aL0L
aa(lp1395
g364
aI2113
aI2573
aI2569
aI1371
aL0L
aa(lp1396
g364
aI2113
aI2573
aI2569
aI1371
aL0L
aa(lp1397
g364
aI2113
aI2573
aI2569
aI1371
aL0L
aa(lp1398
g364
aI2113
aI2573
aI2569
aI1371
aL0L
aa(lp1399
g364
aI2113
aI2573
aI2569
aI1371
aL0L
aa(lp1400
g364
aI2113
aI2573
aI2569
aI1371
aL0L
aa(lp1401
g364
aI2113
aI2573
aI2569
aI1371
aL0L
aa(lp1402
g364
aI2113
aI2573
aI2569
aI1371
aL0L
aa(lp1403
g364
aI2113
aI2573
aI2569
aI1371
aL0L
aa(lp1404
g364
aI2113
aI2573
aI2569
aI1371
aL0L
aa(lp1405
g364
aI2113
aI2573
aI2569
aI1371
aL0L
aa(lp1406
g364
aI2113
aI2573
aI2569
aI1371
aL0L
aa(lp1407
g364
aI2113
aI2573
aI2569
aI1371
aL0L
aa(lp1408
g364
aI2113
aI2573
aI2569
aI1371
aL0L
aa(lp1409
g364
aI2113
aI2573
aI2569
aI1371
aL0L
aa(lp1410
g364
aI2113
aI2573
aI2569
aI1371
aL0L
aa(lp1411
g364
aI2113
aI2573
aI2569
aI1371
aL0L
aa(lp1412
g364
aI2113
aI2573
aI2569
aI1371
aL0L
aa(lp1413
g364
aI2113
aI2573
aI2569
aI1371
aL0L
aa(lp1414
g364
aI2113
aI2573
aI2569
aI1371
aL0L
aa(lp1415
g364
aI2113
aI2573
aI2569
aI1371
aL0L
aa(lp1416
g364
aI2113
aI2573
aI2569
aI1371
aL0L
aa(lp1417
g364
aI2113
aI2573
aI2569
aI1371
aL0L
aa(lp1418
g364
aI2113
aI2573
aI2569
aI1371
aL0L
aa(lp1419
g364
aI2113
aI2573
aI2569
aI1371
aL0L
aa(lp1420
g364
aI2113
aI2573
aI2569
aI1371
aL0L
aa(lp1421
S'147.32.87.11'
p1422
aI2
aI407
aI1
aI2
aL0L
aa(lp1423
g364
aI2113
aI2573
aI2569
aI1371
aL0L
aa(lp1424
g364
aI2113
aI2573
aI2569
aI1371
aL0L
aa(lp1425
g364
aI2113
aI2573
aI2569
aI1371
aL0L
aa(lp1426
g364
aI2113
aI2573
aI2569
aI1371
aL0L
aa(lp1427
g364
aI2113
aI2573
aI2569
aI1371
aL0L
aa(lp1428
g364
aI2113
aI2573
aI2569
aI1371
aL0L
aa(lp1429
g364
aI2113
aI2573
aI2569
aI1371
aL0L
aa(lp1430
g364
aI2113
aI2573
aI2569
aI1371
aL0L
aa(lp1431
g364
aI2113
aI2573
aI2569
aI1371
aL0L
aa(lp1432
g364
aI2113
aI2573
aI2569
aI1371
aL0L
aa(lp1433
g364
aI2113
aI2573
aI2569
aI1371
aL0L
aa(lp1434
g364
aI2113
aI2573
aI2569
aI1371
aL0L
aa(lp1435
g364
aI2113
aI2573
aI2569
aI1371
aL0L
aa(lp1436
g364
aI2113
aI2573
aI2569
aI1371
aL0L
aa(lp1437
g364
aI2113
aI2573
aI2569
aI1371
aL0L
aa(lp1438
g364
aI2113
aI2573
aI2569
aI1371
aL0L
aa(lp1439
g364
aI2113
aI2573
aI2569
aI1371
aL0L
aa(lp1440
g364
aI2113
aI2573
aI2569
aI1371
aL0L
aa(lp1441
g364
aI2113
aI2573
aI2569
aI1371
aL0L
aa(lp1442
g364
aI2113
aI2573
aI2569
aI1371
aL0L
aa(lp1443
g364
aI2113
aI2573
aI2569
aI1371
aL0L
aa(lp1444
g364
aI2113
aI2573
aI2569
aI1371
aL0L
aa(lp1445
g364
aI2113
aI2573
aI2569
aI1371
aL0L
aa(lp1446
g364
aI2113
aI2573
aI2569
aI1371
aL0L
aa(lp1447
g364
aI2113
aI2573
aI2569
aI1371
aL0L
aa(lp1448
g1422
aI2
aI407
aI1
aI2
aL0L
aa(lp1449
g364
aI2113
aI2573
aI2569
aI1371
aL0L
aa(lp1450
g364
aI2113
aI2573
aI2569
aI1371
aL0L
aa(lp1451
g364
aI2113
aI2573
aI2569
aI1371
aL0L
aa(lp1452
g364
aI2113
aI2573
aI2569
aI1371
aL0L
aa(lp1453
g364
aI2113
aI2573
aI2569
aI1371
aL0L
aa(lp1454
g364
aI2113
aI2573
aI2569
aI1371
aL0L
aa(lp1455
g364
aI2113
aI2573
aI2569
aI1371
aL0L
aa(lp1456
g364
aI2113
aI2573
aI2569
aI1371
aL0L
aa(lp1457
g364
aI2113
aI2573
aI2569
aI1371
aL0L
aa(lp1458
g364
aI2113
aI2573
aI2569
aI1371
aL0L
aa(lp1459
g364
aI2113
aI2573
aI2569
aI1371
aL0L
aa(lp1460
g364
aI2113
aI2573
aI2569
aI1371
aL0L
aa(lp1461
g364
aI2113
aI2573
aI2569
aI1371
aL0L
aa(lp1462
g364
aI2113
aI2573
aI2569
aI1371
aL0L
aa(lp1463
g360
aI581
aI407
aI1
aI368
aL0L
aa(lp1464
g360
aI581
aI407
aI1
aI368
aL0L
aa(lp1465
g360
aI581
aI20
aI1
aI164
aL0L
aa(lp1466
g364
aI2113
aI2573
aI2569
aI1371
aL0L
aa(lp1467
g364
aI2113
aI2573
aI2569
aI1371
aL0L
aa(lp1468
g364
aI2113
aI2573
aI2569
aI1371
aL0L
aa(lp1469
g364
aI2113
aI2573
aI2569
aI1371
aL0L
aa(lp1470
g364
aI2113
aI2573
aI2569
aI1371
aL0L
aa(lp1471
g364
aI2113
aI2573
aI2569
aI1371
aL0L
aa(lp1472
g364
aI2113
aI2573
aI2569
aI1371
aL0L
aa(lp1473
g364
aI2113
aI2573
aI2569
aI1371
aL0L
aa(lp1474
g360
aI581
aI407
aI1
aI368
aL0L
aa(lp1475
g360
aI581
aI407
aI1
aI368
aL0L
aa(lp1476
g360
aI581
aI407
aI1
aI368
aL0L
aa(lp1477
g360
aI581
aI2573
aI1
aI4
aL0L
aa(lp1478
g364
aI2113
aI2573
aI2569
aI1371
aL0L
aa(lp1479
g364
aI2113
aI2573
aI2569
aI1371
aL0L
aa(lp1480
g364
aI2113
aI2573
aI2569
aI1371
aL0L
aa(lp1481
g364
aI2113
aI2573
aI2569
aI1371
aL0L
aa(lp1482
g364
aI2113
aI2573
aI2569
aI1371
aL0L
aa(lp1483
g364
aI2113
aI2573
aI2569
aI1371
aL0L
aa(lp1484
g364
aI2113
aI2573
aI2569
aI1371
aL0L
aa(lp1485
g364
aI2113
aI2573
aI2569
aI1371
aL0L
aa(lp1486
g364
aI2113
aI2573
aI2569
aI1371
aL0L
aa(lp1487
g364
aI2113
aI2573
aI2569
aI1371
aL0L
aa(lp1488
g364
aI2113
aI2573
aI2569
aI1371
aL0L
aa(lp1489
g364
aI2113
aI2573
aI2569
aI1371
aL0L
aa(lp1490
g364
aI2113
aI2573
aI2569
aI1371
aL0L
aa(lp1491
g364
aI2113
aI2573
aI2569
aI1371
aL0L
aa(lp1492
g364
aI2113
aI2573
aI2569
aI1371
aL0L
aa(lp1493
g364
aI2113
aI2573
aI2569
aI1371
aL0L
aa(lp1494
g364
aI2113
aI2573
aI2569
aI1371
aL0L
aa(lp1495
g364
aI2113
aI2573
aI2569
aI1371
aL0L
aa(lp1496
g364
aI2113
aI2573
aI2569
aI1371
aL0L
aa(lp1497
g364
aI2113
aI2573
aI2569
aI1371
aL0L
aa(lp1498
g364
aI2113
aI2573
aI2569
aI1371
aL0L
aa(lp1499
g364
aI2113
aI2573
aI2569
aI1371
aL0L
aa(lp1500
g364
aI2113
aI2573
aI2569
aI1371
aL0L
aa(lp1501
g364
aI2113
aI2573
aI2569
aI1371
aL0L
aa(lp1502
g364
aI2113
aI2573
aI2569
aI1371
aL0L
aa(lp1503
g364
aI2113
aI2573
aI2569
aI1371
aL0L
aa(lp1504
g364
aI2113
aI2573
aI2569
aI1371
aL0L
aa(lp1505
g364
aI2113
aI2573
aI2569
aI1371
aL0L
aa(lp1506
g364
aI2113
aI2573
aI2569
aI1371
aL0L
aa(lp1507
S'147.32.84.191'
p1508
aI247
aI2573
aI2569
aI1
aL1L
aa(lp1509
g1508
aI247
aI2573
aI2569
aI1
aL1L
aa(lp1510
g1508
aI247
aI2573
aI2569
aI1
aL1L
aa(lp1511
g1508
aI247
aI2573
aI2569
aI1
aL1L
aa(lp1512
g1508
aI247
aI2573
aI2569
aI1
aL1L
aa(lp1513
g1508
aI247
aI2573
aI2569
aI1
aL1L
aa(lp1514
g1508
aI247
aI2573
aI2569
aI1
aL1L
aa(lp1515
g1508
aI247
aI2573
aI2569
aI1
aL1L
aa(lp1516
g1508
aI247
aI2573
aI2569
aI1
aL1L
aa(lp1517
g364
aI2113
aI2573
aI2569
aI1371
aL0L
aa(lp1518
g1508
aI247
aI2573
aI2569
aI1
aL1L
aa(lp1519
g1508
aI247
aI2573
aI2569
aI1
aL1L
aa(lp1520
g1508
aI247
aI2573
aI2569
aI1
aL1L
aa(lp1521
g1508
aI247
aI2573
aI2569
aI1
aL1L
aa(lp1522
g1508
aI247
aI2573
aI2569
aI1
aL1L
aa(lp1523
g364
aI2113
aI2573
aI2569
aI1371
aL0L
aa(lp1524
g1508
aI247
aI2573
aI2569
aI1
aL1L
aa(lp1525
g1508
aI247
aI2573
aI2569
aI1
aL1L
aa(lp1526
g1508
aI247
aI2573
aI2569
aI1
aL1L
aa(lp1527
g1508
aI247
aI2573
aI2569
aI1
aL1L
aa(lp1528
g1508
aI247
aI2573
aI2569
aI1
aL1L
aa(lp1529
g360
aI581
aI407
aI1
aI368
aL0L
aa(lp1530
g360
aI581
aI407
aI1
aI368
aL0L
aa(lp1531
g360
aI581
aI30
aI1
aI164
aL0L
aa(lp1532
g1508
aI247
aI2573
aI2569
aI1
aL1L
aa(lp1533
g364
aI2113
aI2573
aI2569
aI1371
aL0L
aa(lp1534
g1508
aI247
aI2573
aI2569
aI1
aL1L
aa(lp1535
g1508
aI247
aI2573
aI2569
aI1
aL1L
aa(lp1536
g1508
aI247
aI2573
aI2569
aI1
aL1L
aa(lp1537
g1508
aI247
aI2573
aI2569
aI1
aL1L
aa(lp1538
g1508
aI247
aI2573
aI2569
aI1
aL1L
aa(lp1539
g364
aI2113
aI2573
aI2569
aI1371
aL0L
aa(lp1540
g1508
aI247
aI2573
aI2569
aI1
aL1L
aa(lp1541
g1508
aI247
aI2573
aI2569
aI1
aL1L
aa(lp1542
g1508
aI247
aI2573
aI2569
aI1
aL1L
aa(lp1543
g1508
aI247
aI2573
aI2569
aI1
aL1L
aa(lp1544
g364
aI2113
aI2573
aI2569
aI1371
aL0L
aa(lp1545
g1508
aI247
aI2573
aI2569
aI1
aL1L
aa(lp1546
g1508
aI247
aI2573
aI2569
aI1
aL1L
aa(lp1547
g1508
aI247
aI2573
aI2569
aI1
aL1L
aa(lp1548
g364
aI2113
aI2573
aI2569
aI1371
aL0L
aa(lp1549
g1508
aI247
aI2573
aI2569
aI1
aL1L
aa(lp1550
g364
aI2113
aI2573
aI2569
aI1371
aL0L
aa(lp1551
g1508
aI247
aI2573
aI2569
aI1
aL1L
aa(lp1552
g1508
aI247
aI2573
aI2569
aI1
aL1L
aa(lp1553
g1508
aI247
aI2573
aI2569
aI1
aL1L
aa(lp1554
g1508
aI247
aI2573
aI2569
aI1
aL1L
aa(lp1555
g1508
aI247
aI2573
aI2569
aI1
aL1L
aa(lp1556
g364
aI2113
aI2573
aI2569
aI1371
aL0L
aa(lp1557
g1508
aI247
aI2573
aI2569
aI1
aL1L
aa(lp1558
g1508
aI247
aI2573
aI2569
aI1
aL1L
aa(lp1559
g1508
aI247
aI2573
aI2569
aI1
aL1L
aa(lp1560
g1508
aI247
aI2573
aI2569
aI1
aL1L
aa(lp1561
g1508
aI247
aI2573
aI2569
aI1
aL1L
aa(lp1562
g1508
aI247
aI2573
aI2569
aI1
aL1L
aa(lp1563
g1508
aI247
aI2573
aI2569
aI1
aL1L
aa(lp1564
g364
aI2113
aI2573
aI2569
aI1371
aL0L
aa(lp1565
g1508
aI247
aI2573
aI2569
aI1
aL1L
aa(lp1566
g1508
aI247
aI2573
aI2569
aI1
aL1L
aa(lp1567
g1508
aI247
aI2573
aI2569
aI1
aL1L
aa(lp1568
g364
aI2113
aI2573
aI2569
aI1371
aL0L
aa(lp1569
g1508
aI247
aI2573
aI2569
aI1
aL1L
aa(lp1570
g1508
aI247
aI2573
aI2569
aI1
aL1L
aa(lp1571
g1508
aI247
aI2573
aI2569
aI1
aL1L
aa(lp1572
g1508
aI247
aI2573
aI2569
aI1
aL1L
aa(lp1573
g1508
aI247
aI2573
aI2569
aI1
aL1L
aa(lp1574
g1508
aI247
aI2573
aI2569
aI1
aL1L
aa(lp1575
g1508
aI247
aI2573
aI2569
aI1
aL1L
aa(lp1576
g364
aI2113
aI2573
aI2569
aI1371
aL0L
aa(lp1577
g1508
aI247
aI2573
aI2569
aI1
aL1L
aa(lp1578
g1508
aI247
aI2573
aI2569
aI1
aL1L
aa(lp1579
g1508
aI247
aI2573
aI2569
aI1
aL1L
aa(lp1580
g1508
aI247
aI2573
aI2569
aI1
aL1L
aa(lp1581
g1508
aI247
aI2573
aI2569
aI1
aL1L
aa(lp1582
g1508
aI247
aI2573
aI2569
aI1
aL1L
aa(lp1583
g364
aI2113
aI2573
aI2569
aI1371
aL0L
aa(lp1584
g1508
aI247
aI2573
aI2569
aI1
aL1L
aa(lp1585
g1508
aI247
aI2573
aI2569
aI1
aL1L
aa(lp1586
g1508
aI247
aI2573
aI2569
aI1
aL1L
aa(lp1587
g1508
aI247
aI2573
aI2569
aI1
aL1L
aa(lp1588
g364
aI2113
aI2573
aI2569
aI1371
aL0L
aa(lp1589
g1508
aI247
aI2573
aI2569
aI1
aL1L
aa(lp1590
g1508
aI247
aI2573
aI2569
aI1
aL1L
aa(lp1591
g1508
aI247
aI2573
aI2569
aI1
aL1L
aa(lp1592
g364
aI2113
aI2573
aI2569
aI1371
aL0L
aa(lp1593
g1508
aI247
aI2573
aI2569
aI1
aL1L
aa(lp1594
g1508
aI247
aI2573
aI2569
aI1
aL1L
aa(lp1595
g1508
aI247
aI2573
aI2569
aI1
aL1L
aa(lp1596
g1508
aI247
aI2573
aI2569
aI1
aL1L
aa(lp1597
g1508
aI247
aI2573
aI2569
aI1
aL1L
aa(lp1598
g1508
aI247
aI2573
aI2569
aI1
aL1L
aa(lp1599
g1508
aI247
aI2573
aI2569
aI1
aL1L
aa(lp1600
g1508
aI247
aI2573
aI2569
aI1
aL1L
aa(lp1601
g1508
aI247
aI2573
aI2569
aI1
aL1L
aa(lp1602
g364
aI2113
aI2573
aI2569
aI1371
aL0L
aa(lp1603
g1508
aI247
aI2573
aI2569
aI1
aL1L
aa(lp1604
g1508
aI247
aI2573
aI2569
aI1
aL1L
aa(lp1605
g1508
aI247
aI2573
aI2569
aI1
aL1L
aa(lp1606
g1508
aI247
aI2573
aI2569
aI1
aL1L
aa(lp1607
g364
aI2113
aI2573
aI2569
aI1371
aL0L
aa(lp1608
g1508
aI247
aI2573
aI2569
aI1
aL1L
aa(lp1609
g1508
aI247
aI2573
aI2569
aI1
aL1L
aa(lp1610
g1508
aI247
aI2573
aI2569
aI1
aL1L
aa(lp1611
g1508
aI247
aI2573
aI2569
aI1
aL1L
aa(lp1612
g1508
aI247
aI2573
aI2569
aI1
aL1L
aa(lp1613
g364
aI2113
aI2573
aI2569
aI1371
aL0L
aa(lp1614
g1508
aI247
aI2573
aI2569
aI1
aL1L
aa(lp1615
g1508
aI247
aI2573
aI2569
aI1
aL1L
aa(lp1616
g364
aI2113
aI2573
aI2569
aI1371
aL0L
aa(lp1617
g1508
aI247
aI2573
aI2569
aI1
aL1L
aa(lp1618
g1508
aI247
aI2573
aI2569
aI1
aL1L
aa(lp1619
g1508
aI247
aI2573
aI2569
aI1
aL1L
aa(lp1620
g1508
aI247
aI2573
aI2569
aI1
aL1L
aa(lp1621
g364
aI2113
aI2573
aI2569
aI1371
aL0L
aa(lp1622
g1508
aI247
aI2573
aI2569
aI1
aL1L
aa(lp1623
g1508
aI247
aI2573
aI2569
aI1
aL1L
aa(lp1624
g364
aI2113
aI2573
aI2569
aI1371
aL0L
aa(lp1625
g1508
aI247
aI2573
aI2569
aI1
aL1L
aa(lp1626
g364
aI2113
aI2573
aI2569
aI1371
aL0L
aa(lp1627
g1508
aI247
aI2573
aI2569
aI1
aL1L
aa(lp1628
g1508
aI247
aI2573
aI2569
aI1
aL1L
aa(lp1629
g1508
aI247
aI2573
aI2569
aI1
aL1L
aa(lp1630
g1508
aI247
aI2573
aI2569
aI1
aL1L
aa(lp1631
g364
aI2113
aI2573
aI2569
aI1371
aL0L
aa(lp1632
g1508
aI247
aI2573
aI2569
aI1
aL1L
aa(lp1633
g1508
aI247
aI2573
aI2569
aI1
aL1L
aa(lp1634
g1508
aI247
aI2573
aI2569
aI1
aL1L
aa(lp1635
g1508
aI247
aI2573
aI2569
aI1
aL1L
aa(lp1636
g1508
aI247
aI2573
aI2569
aI1
aL1L
aa(lp1637
g1508
aI247
aI2573
aI2569
aI1
aL1L
aa(lp1638
g1508
aI247
aI2573
aI2569
aI1
aL1L
aa(lp1639
g1508
aI247
aI2573
aI2569
aI1
aL1L
aa(lp1640
g364
aI2113
aI2573
aI2569
aI1371
aL0L
aa(lp1641
g1508
aI247
aI2573
aI2569
aI1
aL1L
aa(lp1642
g1508
aI247
aI2573
aI2569
aI1
aL1L
aa(lp1643
g1508
aI247
aI2573
aI2569
aI1
aL1L
aa(lp1644
g364
aI2113
aI2573
aI2569
aI1371
aL0L
aa(lp1645
g1508
aI247
aI2573
aI2569
aI1
aL1L
aa(lp1646
g364
aI2113
aI2573
aI2569
aI1371
aL0L
aa(lp1647
g1508
aI247
aI2573
aI2569
aI1
aL1L
aa(lp1648
g1508
aI247
aI2573
aI2569
aI1
aL1L
aa(lp1649
g1508
aI247
aI2573
aI2569
aI1
aL1L
aa(lp1650
g364
aI2113
aI2573
aI2569
aI1371
aL0L
aa(lp1651
g1508
aI247
aI2573
aI2569
aI1
aL1L
aa(lp1652
g1508
aI247
aI2573
aI2569
aI1
aL1L
aa(lp1653
g1508
aI247
aI2573
aI2569
aI1
aL1L
aa(lp1654
g1508
aI247
aI2573
aI2569
aI1
aL1L
aa(lp1655
g1508
aI247
aI2573
aI2569
aI1
aL1L
aa(lp1656
g1508
aI247
aI2573
aI2569
aI1
aL1L
aa(lp1657
g1508
aI247
aI2573
aI2569
aI1
aL1L
aa(lp1658
g364
aI2113
aI2573
aI2569
aI1371
aL0L
aa(lp1659
g364
aI2113
aI2573
aI2569
aI1371
aL0L
aa(lp1660
g1508
aI247
aI2573
aI2569
aI1
aL1L
aa(lp1661
g1508
aI247
aI2573
aI2569
aI1
aL1L
aa(lp1662
g1508
aI247
aI2573
aI2569
aI1
aL1L
aa(lp1663
g1508
aI247
aI2573
aI2569
aI1
aL1L
aa(lp1664
g1508
aI247
aI2573
aI2569
aI1
aL1L
aa(lp1665
g1508
aI247
aI2573
aI2569
aI1
aL1L
aa(lp1666
g364
aI2113
aI2573
aI2569
aI1371
aL0L
aa(lp1667
g1508
aI247
aI2573
aI2569
aI1
aL1L
aa(lp1668
g364
aI2113
aI2573
aI2569
aI1371
aL0L
aa(lp1669
g1508
aI247
aI2573
aI2569
aI1
aL1L
aa(lp1670
g1508
aI247
aI2573
aI2569
aI1
aL1L
aa(lp1671
g1508
aI247
aI2573
aI2569
aI1
aL1L
aa(lp1672
g1508
aI247
aI2573
aI2569
aI1
aL1L
aa(lp1673
g1508
aI247
aI2573
aI2569
aI1
aL1L
aa(lp1674
g1508
aI247
aI2573
aI2569
aI1
aL1L
aa(lp1675
g364
aI2113
aI2573
aI2569
aI1371
aL0L
aa(lp1676
g1508
aI247
aI2573
aI2569
aI1
aL1L
aa(lp1677
g1508
aI247
aI2573
aI2569
aI1
aL1L
aa(lp1678
g364
aI2113
aI2573
aI2569
aI1371
aL0L
aa(lp1679
g1508
aI247
aI2573
aI2569
aI1
aL1L
aa(lp1680
g364
aI2113
aI2573
aI2569
aI1371
aL0L
aa(lp1681
g360
aI581
aI407
aI1
aI368
aL0L
aa(lp1682
g360
aI581
aI407
aI1
aI368
aL0L
aa(lp1683
g360
aI581
aI18
aI1
aI164
aL0L
aa(lp1684
g364
aI2113
aI2573
aI2569
aI1371
aL0L
aa(lp1685
g1508
aI247
aI2573
aI2569
aI1
aL1L
aa(lp1686
g1508
aI247
aI2573
aI2569
aI1
aL1L
aa(lp1687
g1508
aI247
aI2573
aI2569
aI1
aL1L
aa(lp1688
g364
aI2113
aI2573
aI2569
aI1371
aL0L
aa(lp1689
g1508
aI247
aI2573
aI2569
aI1
aL1L
aa(lp1690
g1508
aI247
aI2573
aI2569
aI1
aL1L
aa(lp1691
g1508
aI247
aI2573
aI2569
aI1
aL1L
aa(lp1692
g1508
aI247
aI2573
aI2569
aI1
aL1L
aa(lp1693
g1508
aI247
aI2573
aI2569
aI1
aL1L
aa(lp1694
g1508
aI247
aI2573
aI2569
aI1
aL1L
aa(lp1695
g1508
aI247
aI2573
aI2569
aI1
aL1L
aa(lp1696
g1508
aI247
aI2573
aI2569
aI1
aL1L
aa(lp1697
g364
aI2113
aI2573
aI2569
aI1371
aL0L
aa(lp1698
g1508
aI247
aI2573
aI2569
aI1
aL1L
aa(lp1699
g364
aI2113
aI2573
aI2569
aI1371
aL0L
aa(lp1700
g1508
aI247
aI2573
aI2569
aI1
aL1L
aa(lp1701
g1508
aI247
aI2573
aI2569
aI1
aL1L
aa(lp1702
g1508
aI247
aI2573
aI2569
aI1
aL1L
aa(lp1703
g1508
aI247
aI2573
aI2569
aI1
aL1L
aa(lp1704
g364
aI2113
aI2573
aI2569
aI1371
aL0L
aa(lp1705
g364
aI2113
aI2573
aI2569
aI1371
aL0L
aa(lp1706
g1508
aI247
aI2573
aI2569
aI1
aL1L
aa(lp1707
g364
aI2113
aI2573
aI2569
aI1371
aL0L
aa(lp1708
g1508
aI247
aI2573
aI2569
aI1
aL1L
aa(lp1709
g364
aI2113
aI2573
aI2569
aI1371
aL0L
aa(lp1710
g1508
aI247
aI2573
aI2569
aI1
aL1L
aa(lp1711
g364
aI2113
aI2573
aI2569
aI1371
aL0L
aa(lp1712
g1508
aI247
aI2573
aI2569
aI1
aL1L
aa(lp1713
g1508
aI247
aI2573
aI2569
aI1
aL1L
aa(lp1714
g1508
aI247
aI2573
aI2569
aI1
aL1L
aa(lp1715
g1508
aI247
aI2573
aI2569
aI1
aL1L
aa(lp1716
g364
aI2113
aI2573
aI2569
aI1371
aL0L
aa(lp1717
g1508
aI247
aI2573
aI2569
aI1
aL1L
aa(lp1718
g364
aI2113
aI2573
aI2569
aI1371
aL0L
aa(lp1719
g1508
aI247
aI2573
aI2569
aI1
aL1L
aa(lp1720
g1508
aI247
aI2573
aI2569
aI1
aL1L
aa(lp1721
g364
aI2113
aI2573
aI2569
aI1371
aL0L
aa(lp1722
g364
aI2113
aI2573
aI2569
aI1371
aL0L
aa(lp1723
g1508
aI247
aI2573
aI2569
aI1
aL1L
aa(lp1724
g1508
aI247
aI2573
aI2569
aI1
aL1L
aa(lp1725
g364
aI2113
aI2573
aI2569
aI1371
aL0L
aa(lp1726
g364
aI2113
aI2573
aI2569
aI1371
aL0L
aa(lp1727
g1508
aI247
aI2573
aI2569
aI1
aL1L
aa(lp1728
g1508
aI247
aI2573
aI2569
aI1
aL1L
aa(lp1729
g364
aI2113
aI2573
aI2569
aI1371
aL0L
aa(lp1730
g1508
aI247
aI2573
aI2569
aI1
aL1L
aa(lp1731
g364
aI2113
aI2573
aI2569
aI1371
aL0L
aa(lp1732
g1508
aI247
aI2573
aI2569
aI1
aL1L
aa(lp1733
g364
aI2113
aI2573
aI2569
aI1371
aL0L
aa(lp1734
g364
aI2113
aI2573
aI2569
aI1371
aL0L
aa(lp1735
g1508
aI247
aI2573
aI2569
aI1
aL1L
aa(lp1736
g364
aI2113
aI2573
aI2569
aI1371
aL0L
aa(lp1737
g1508
aI247
aI2573
aI2569
aI1
aL1L
aa(lp1738
g364
aI2113
aI2573
aI2569
aI1371
aL0L
aa(lp1739
g1508
aI247
aI2573
aI2569
aI1
aL1L
aa(lp1740
g1508
aI247
aI2573
aI2569
aI1
aL1L
aa(lp1741
g1508
aI247
aI2573
aI2569
aI1
aL1L
aa(lp1742
g1508
aI247
aI2573
aI2569
aI1
aL1L
aa(lp1743
g364
aI2113
aI2573
aI2569
aI1371
aL0L
aa(lp1744
g1508
aI247
aI2573
aI2569
aI1
aL1L
aa(lp1745
g364
aI2113
aI2573
aI2569
aI1371
aL0L
aa(lp1746
g1508
aI247
aI2573
aI2569
aI1
aL1L
aa(lp1747
g1508
aI247
aI2573
aI2569
aI1
aL1L
aa(lp1748
g364
aI2113
aI2573
aI2569
aI1371
aL0L
aa(lp1749
g364
aI2113
aI2573
aI2569
aI1371
aL0L
aa(lp1750
g364
aI2113
aI2573
aI2569
aI1371
aL0L
aa(lp1751
g364
aI2113
aI2573
aI2569
aI1371
aL0L
aa(lp1752
g364
aI2113
aI2573
aI2569
aI1371
aL0L
aa(lp1753
g1508
aI247
aI2573
aI2569
aI1
aL1L
aa(lp1754
g1508
aI247
aI2573
aI2569
aI1
aL1L
aa(lp1755
g364
aI2113
aI2573
aI2569
aI1371
aL0L
aa(lp1756
g364
aI2113
aI2573
aI2569
aI1371
aL0L
aa(lp1757
g1508
aI247
aI2573
aI2569
aI1
aL1L
aa(lp1758
g1508
aI247
aI2573
aI2569
aI1
aL1L
aa(lp1759
g364
aI2113
aI2573
aI2569
aI1371
aL0L
aa(lp1760
g1508
aI247
aI2573
aI2569
aI1
aL1L
aa(lp1761
g364
aI2113
aI2573
aI2569
aI1371
aL0L
aa(lp1762
g1508
aI247
aI2573
aI2569
aI1
aL1L
aa(lp1763
g1508
aI247
aI2573
aI2569
aI1
aL1L
aa(lp1764
g364
aI2113
aI2573
aI2569
aI1371
aL0L
aa(lp1765
g1508
aI247
aI2573
aI2569
aI1
aL1L
aa(lp1766
g1508
aI247
aI2573
aI2569
aI1
aL1L
aa(lp1767
g364
aI2113
aI2573
aI2569
aI1371
aL0L
aa(lp1768
g364
aI2113
aI2573
aI2569
aI1371
aL0L
aa(lp1769
g1508
aI247
aI2573
aI2569
aI1
aL1L
aa(lp1770
g364
aI2113
aI2573
aI2569
aI1371
aL0L
aa(lp1771
g1508
aI247
aI2573
aI2569
aI1
aL1L
aa(lp1772
g364
aI2113
aI2573
aI2569
aI1371
aL0L
aa(lp1773
g1508
aI247
aI2573
aI2569
aI1
aL1L
aa(lp1774
g1508
aI247
aI2573
aI2569
aI1
aL1L
aa(lp1775
g1508
aI247
aI2573
aI2569
aI1
aL1L
aa(lp1776
g1508
aI247
aI2573
aI2569
aI1
aL1L
aa(lp1777
g364
aI2113
aI2573
aI2569
aI1371
aL0L
aa(lp1778
g364
aI2113
aI2573
aI2569
aI1371
aL0L
aa(lp1779
g364
aI2113
aI2573
aI2569
aI1371
aL0L
aa(lp1780
g1508
aI247
aI2573
aI2569
aI1
aL1L
aa(lp1781
g364
aI2113
aI2573
aI2569
aI1371
aL0L
aa(lp1782
g1508
aI247
aI2573
aI2569
aI1
aL1L
aa(lp1783
g1508
aI247
aI2573
aI2569
aI1
aL1L
aa(lp1784
g1508
aI247
aI2573
aI2569
aI1
aL1L
aa(lp1785
g1508
aI247
aI2573
aI2569
aI1
aL1L
aa(lp1786
g364
aI2113
aI2573
aI2569
aI1371
aL0L
aa(lp1787
g1508
aI247
aI2573
aI2569
aI1
aL1L
aa(lp1788
g364
aI2113
aI2573
aI2569
aI1371
aL0L
aa(lp1789
g364
aI2113
aI2573
aI2569
aI1371
aL0L
aa(lp1790
g364
aI2113
aI2573
aI2569
aI1371
aL0L
aa(lp1791
g1508
aI247
aI2573
aI2569
aI1
aL1L
aa(lp1792
g1508
aI247
aI2573
aI2569
aI1
aL1L
aa(lp1793
g364
aI2113
aI2573
aI2569
aI1371
aL0L
aa(lp1794
g364
aI2113
aI2573
aI2569
aI1371
aL0L
aa(lp1795
g364
aI2113
aI2573
aI2569
aI1371
aL0L
aa(lp1796
g1508
aI247
aI2573
aI2569
aI1
aL1L
aa(lp1797
g1508
aI247
aI2573
aI2569
aI1
aL1L
aa(lp1798
g364
aI2113
aI2573
aI2569
aI1371
aL0L
aa(lp1799
g1508
aI247
aI2573
aI2569
aI1
aL1L
aa(lp1800
g364
aI2113
aI2573
aI2569
aI1371
aL0L
aa(lp1801
g364
aI2113
aI2573
aI2569
aI1371
aL0L
aa(lp1802
g1508
aI247
aI2573
aI2569
aI1
aL1L
aa(lp1803
g1508
aI247
aI2573
aI2569
aI1
aL1L
aa(lp1804
g1508
aI247
aI2573
aI2569
aI1
aL1L
aa(lp1805
g364
aI2113
aI2573
aI2569
aI1371
aL0L
aa(lp1806
g364
aI2113
aI2573
aI2569
aI1371
aL0L
aa(lp1807
g364
aI2113
aI2573
aI2569
aI1371
aL0L
aa(lp1808
g1508
aI247
aI2573
aI2569
aI1
aL1L
aa(lp1809
g364
aI2113
aI2573
aI2569
aI1371
aL0L
aa(lp1810
g364
aI2113
aI2573
aI2569
aI1371
aL0L
aa(lp1811
g1508
aI247
aI2573
aI2569
aI1
aL1L
aa(lp1812
g1508
aI247
aI2573
aI2569
aI1
aL1L
aa(lp1813
g364
aI2113
aI2573
aI2569
aI1371
aL0L
aa(lp1814
g1508
aI247
aI2573
aI2569
aI1
aL1L
aa(lp1815
g364
aI2113
aI2573
aI2569
aI1371
aL0L
aa(lp1816
g364
aI2113
aI2573
aI2569
aI1371
aL0L
aa(lp1817
g364
aI2113
aI2573
aI2569
aI1371
aL0L
aa(lp1818
g364
aI2113
aI2573
aI2569
aI1371
aL0L
aa(lp1819
g1508
aI247
aI2573
aI2569
aI1
aL1L
aa(lp1820
g364
aI2113
aI2573
aI2569
aI1371
aL0L
aa(lp1821
g364
aI2113
aI2573
aI2569
aI1371
aL0L
aa(lp1822
g364
aI2113
aI2573
aI2569
aI1371
aL0L
aa(lp1823
g360
aI581
aI407
aI1
aI368
aL0L
aa(lp1824
g360
aI581
aI407
aI1
aI368
aL0L
aa(lp1825
g360
aI581
aI407
aI1
aI368
aL0L
aa(lp1826
g360
aI581
aI2573
aI1
aI4
aL0L
aa(lp1827
g364
aI2113
aI2573
aI2569
aI1371
aL0L
aa(lp1828
g1508
aI247
aI2573
aI2569
aI1
aL1L
aa(lp1829
g364
aI2113
aI2573
aI2569
aI1371
aL0L
aa(lp1830
g1508
aI247
aI2573
aI2569
aI1
aL1L
aa(lp1831
g364
aI2113
aI2573
aI2569
aI1371
aL0L
aa(lp1832
g1508
aI247
aI2573
aI2569
aI1
aL1L
aa(lp1833
g364
aI2113
aI2573
aI2569
aI1371
aL0L
aa(lp1834
g364
aI2113
aI2573
aI2569
aI1371
aL0L
aa(lp1835
g1508
aI247
aI2573
aI2569
aI1
aL1L
aa(lp1836
g364
aI2113
aI2573
aI2569
aI1371
aL0L
aa(lp1837
g360
aI581
aI407
aI1
aI368
aL0L
aa(lp1838
g360
aI581
aI407
aI1
aI368
aL0L
aa(lp1839
g360
aI581
aI26
aI1
aI164
aL0L
aa(lp1840
g364
aI2113
aI2573
aI2569
aI1371
aL0L
aa(lp1841
g1508
aI247
aI2573
aI2569
aI1
aL1L
aa(lp1842
g1508
aI247
aI2573
aI2569
aI1
aL1L
aa(lp1843
g1508
aI247
aI2573
aI2569
aI1
aL1L
aa(lp1844
g364
aI2113
aI2573
aI2569
aI1371
aL0L
aa(lp1845
g364
aI2113
aI2573
aI2569
aI1371
aL0L
aa(lp1846
g364
aI2113
aI2573
aI2569
aI1371
aL0L
aa(lp1847
g364
aI2113
aI2573
aI2569
aI1371
aL0L
aa(lp1848
g1508
aI247
aI2573
aI2569
aI1
aL1L
aa(lp1849
g364
aI2113
aI2573
aI2569
aI1371
aL0L
aa(lp1850
g364
aI2113
aI2573
aI2569
aI1371
aL0L
aa(lp1851
g364
aI2113
aI2573
aI2569
aI1371
aL0L
aa(lp1852
g364
aI2113
aI2573
aI2569
aI1371
aL0L
aa(lp1853
g1508
aI247
aI2573
aI2569
aI1
aL1L
aa(lp1854
g1508
aI247
aI2573
aI2569
aI1
aL1L
aa(lp1855
g364
aI2113
aI2573
aI2569
aI1371
aL0L
aa(lp1856
g364
aI2113
aI2573
aI2569
aI1371
aL0L
aa(lp1857
g364
aI2113
aI2573
aI2569
aI1371
aL0L
aa(lp1858
g360
aI581
aI407
aI1
aI368
aL0L
aa(lp1859
g360
aI581
aI407
aI1
aI368
aL0L
aa(lp1860
g360
aI581
aI407
aI1
aI368
aL0L
aa(lp1861
g360
aI581
aI2573
aI1
aI4
aL0L
aa(lp1862
g364
aI2113
aI2573
aI2569
aI1371
aL0L
aa(lp1863
g364
aI2113
aI2573
aI2569
aI1371
aL0L
aa(lp1864
g364
aI2113
aI2573
aI2569
aI1371
aL0L
aa(lp1865
g364
aI2113
aI2573
aI2569
aI1371
aL0L
aa(lp1866
g364
aI2113
aI2573
aI2569
aI1371
aL0L
aa(lp1867
g364
aI2113
aI2573
aI2569
aI1371
aL0L
aa(lp1868
g1508
aI247
aI2573
aI2569
aI1
aL1L
aa(lp1869
g364
aI2113
aI2573
aI2569
aI1371
aL0L
aa(lp1870
g1508
aI247
aI2573
aI2569
aI1
aL1L
aa(lp1871
g1508
aI247
aI2573
aI2569
aI1
aL1L
aa(lp1872
g364
aI2113
aI2573
aI2569
aI1371
aL0L
aa(lp1873
g1508
aI247
aI2573
aI2569
aI1
aL1L
aa(lp1874
g364
aI2113
aI2573
aI2569
aI1371
aL0L
aa(lp1875
g1508
aI247
aI2573
aI2569
aI1
aL1L
aa(lp1876
g364
aI2113
aI2573
aI2569
aI1371
aL0L
aa(lp1877
g364
aI2113
aI2573
aI2569
aI1371
aL0L
aa(lp1878
g1508
aI247
aI2573
aI2569
aI1
aL1L
aa(lp1879
g364
aI2113
aI2573
aI2569
aI1371
aL0L
aa(lp1880
g364
aI2113
aI2573
aI2569
aI1371
aL0L
aa(lp1881
g1508
aI247
aI2573
aI2569
aI1
aL1L
aa(lp1882
g360
aI581
aI27
aI1
aI43
aL0L
aa(lp1883
g364
aI2113
aI2573
aI2569
aI1371
aL0L
aa(lp1884
g364
aI2113
aI2573
aI2569
aI1371
aL0L
aa(lp1885
g360
aI581
aI27
aI1
aI43
aL0L
aa(lp1886
g364
aI2113
aI2573
aI2569
aI1371
aL0L
aa(lp1887
g360
aI581
aI26
aI1
aI43
aL0L
aa(lp1888
g1508
aI247
aI2573
aI2569
aI1
aL1L
aa(lp1889
g364
aI2113
aI2573
aI2569
aI1371
aL0L
aa(lp1890
g360
aI581
aI27
aI1
aI43
aL0L
aa(lp1891
g364
aI2113
aI2573
aI2569
aI1371
aL0L
aa(lp1892
g360
aI581
aI26
aI1
aI43
aL0L
aa(lp1893
g364
aI2113
aI2573
aI2569
aI1371
aL0L
aa(lp1894
g1508
aI247
aI2573
aI2569
aI1
aL1L
aa(lp1895
g360
aI581
aI26
aI1
aI43
aL0L
aa(lp1896
g364
aI2113
aI2573
aI2569
aI1371
aL0L
aa(lp1897
g1508
aI247
aI2573
aI2569
aI1
aL1L
aa(lp1898
S'147.32.84.165'
p1899
aI247
aI2573
aI2569
aI1
aL1L
aa(lp1900
g364
aI2113
aI2573
aI2569
aI1371
aL0L
aa(lp1901
g1899
aI247
aI2573
aI2569
aI1
aL1L
aa(lp1902
g1899
aI247
aI2573
aI2569
aI1
aL1L
aa(lp1903
g1899
aI247
aI2573
aI2569
aI1
aL1L
aa(lp1904
g364
aI2113
aI2573
aI2569
aI1371
aL0L
aa(lp1905
g1899
aI247
aI2573
aI2569
aI1
aL1L
aa(lp1906
g1899
aI247
aI2573
aI2569
aI1
aL1L
aa(lp1907
g1899
aI247
aI2573
aI2569
aI1
aL1L
aa(lp1908
g1899
aI247
aI2573
aI2569
aI1
aL1L
aa(lp1909
g364
aI2113
aI2573
aI2569
aI1371
aL0L
aa(lp1910
g1899
aI247
aI2573
aI2569
aI1
aL1L
aa(lp1911
g1899
aI247
aI2573
aI2569
aI1
aL1L
aa(lp1912
g1508
aI247
aI2573
aI2569
aI1
aL1L
aa(lp1913
g1899
aI247
aI2573
aI2569
aI1
aL1L
aa(lp1914
g1899
aI247
aI2573
aI2569
aI1
aL1L
aa(lp1915
g1899
aI247
aI2573
aI2569
aI1
aL1L
aa(lp1916
g1899
aI247
aI2573
aI2569
aI1
aL1L
aa(lp1917
g364
aI2113
aI2573
aI2569
aI1371
aL0L
aa(lp1918
g1899
aI247
aI2573
aI2569
aI1
aL1L
aa(lp1919
g1899
aI247
aI2573
aI2569
aI1
aL1L
aa(lp1920
g1899
aI247
aI2573
aI2569
aI1
aL1L
aa(lp1921
g364
aI2113
aI2573
aI2569
aI1371
aL0L
aa(lp1922
g1899
aI247
aI2573
aI2569
aI1
aL1L
aa(lp1923
g1899
aI247
aI2573
aI2569
aI1
aL1L
aa(lp1924
g1899
aI247
aI2573
aI2569
aI1
aL1L
aa(lp1925
g1899
aI247
aI2573
aI2569
aI1
aL1L
aa(lp1926
g1899
aI247
aI2573
aI2569
aI1
aL1L
aa(lp1927
g1899
aI247
aI2573
aI2569
aI1
aL1L
aa(lp1928
g364
aI2113
aI2573
aI2569
aI1371
aL0L
aa(lp1929
g1899
aI247
aI2573
aI2569
aI1
aL1L
aa(lp1930
g1899
aI247
aI2573
aI2569
aI1
aL1L
aa(lp1931
g1899
aI247
aI2573
aI2569
aI1
aL1L
aa(lp1932
g364
aI2113
aI2573
aI2569
aI1371
aL0L
aa(lp1933
g1899
aI247
aI2573
aI2569
aI1
aL1L
aa(lp1934
g1899
aI247
aI2573
aI2569
aI1
aL1L
aa(lp1935
g1899
aI247
aI2573
aI2569
aI1
aL1L
aa(lp1936
g364
aI2113
aI2573
aI2569
aI1371
aL0L
aa(lp1937
g1899
aI247
aI2573
aI2569
aI1
aL1L
aa(lp1938
g1899
aI247
aI2573
aI2569
aI1
aL1L
aa(lp1939
g1899
aI247
aI2573
aI2569
aI1
aL1L
aa(lp1940
g1899
aI247
aI2573
aI2569
aI1
aL1L
aa(lp1941
g1899
aI247
aI2573
aI2569
aI1
aL1L
aa(lp1942
g1899
aI247
aI2573
aI2569
aI1
aL1L
aa(lp1943
g1899
aI247
aI2573
aI2569
aI1
aL1L
aa(lp1944
g364
aI2113
aI2573
aI2569
aI1371
aL0L
aa(lp1945
g1899
aI247
aI2573
aI2569
aI1
aL1L
aa(lp1946
g1899
aI247
aI2573
aI2569
aI1
aL1L
aa(lp1947
g364
aI2113
aI2573
aI2569
aI1371
aL0L
aa(lp1948
g1899
aI247
aI2573
aI2569
aI1
aL1L
aa(lp1949
g1899
aI247
aI2573
aI2569
aI1
aL1L
aa(lp1950
g1899
aI247
aI2573
aI2569
aI1
aL1L
aa(lp1951
g1899
aI247
aI2573
aI2569
aI1
aL1L
aa(lp1952
g364
aI2113
aI2573
aI2569
aI1371
aL0L
aa(lp1953
g1899
aI247
aI2573
aI2569
aI1
aL1L
aa(lp1954
g1899
aI247
aI2573
aI2569
aI1
aL1L
aa(lp1955
g1899
aI247
aI2573
aI2569
aI1
aL1L
aa(lp1956
g1899
aI247
aI2573
aI2569
aI1
aL1L
aa(lp1957
g1899
aI247
aI2573
aI2569
aI1
aL1L
aa(lp1958
g364
aI2113
aI2573
aI2569
aI1371
aL0L
aa(lp1959
g1899
aI247
aI2573
aI2569
aI1
aL1L
aa(lp1960
g1899
aI247
aI2573
aI2569
aI1
aL1L
aa(lp1961
g1899
aI247
aI2573
aI2569
aI1
aL1L
aa(lp1962
g1899
aI247
aI2573
aI2569
aI1
aL1L
aa(lp1963
g1899
aI247
aI2573
aI2569
aI1
aL1L
aa(lp1964
g1899
aI247
aI2573
aI2569
aI1
aL1L
aa(lp1965
g364
aI2113
aI2573
aI2569
aI1371
aL0L
aa(lp1966
g1899
aI247
aI2573
aI2569
aI1
aL1L
aa(lp1967
g1899
aI247
aI2573
aI2569
aI1
aL1L
aa(lp1968
g1899
aI247
aI2573
aI2569
aI1
aL1L
aa(lp1969
g364
aI2113
aI2573
aI2569
aI1371
aL0L
aa(lp1970
g1899
aI247
aI2573
aI2569
aI1
aL1L
aa(lp1971
g1899
aI247
aI2573
aI2569
aI1
aL1L
aa(lp1972
g1899
aI247
aI2573
aI2569
aI1
aL1L
aa(lp1973
g1899
aI247
aI2573
aI2569
aI1
aL1L
aa(lp1974
g364
aI2113
aI2573
aI2569
aI1371
aL0L
aa(lp1975
g1899
aI247
aI2573
aI2569
aI1
aL1L
aa(lp1976
g1899
aI247
aI2573
aI2569
aI1
aL1L
aa(lp1977
g1899
aI247
aI2573
aI2569
aI1
aL1L
aa(lp1978
g1899
aI247
aI2573
aI2569
aI1
aL1L
aa(lp1979
g1899
aI247
aI2573
aI2569
aI1
aL1L
aa(lp1980
g1899
aI247
aI2573
aI2569
aI1
aL1L
aa(lp1981
g364
aI2113
aI2573
aI2569
aI1371
aL0L
aa(lp1982
g1899
aI247
aI2573
aI2569
aI1
aL1L
aa(lp1983
g1899
aI247
aI2573
aI2569
aI1
aL1L
aa(lp1984
g1899
aI247
aI2573
aI2569
aI1
aL1L
aa(lp1985
g1899
aI247
aI2573
aI2569
aI1
aL1L
aa(lp1986
g1899
aI247
aI2573
aI2569
aI1
aL1L
aa(lp1987
g364
aI2113
aI2573
aI2569
aI1371
aL0L
aa(lp1988
g1899
aI247
aI2573
aI2569
aI1
aL1L
aa(lp1989
g1899
aI247
aI2573
aI2569
aI1
aL1L
aa(lp1990
g1899
aI247
aI2573
aI2569
aI1
aL1L
aa(lp1991
g1899
aI247
aI2573
aI2569
aI1
aL1L
aa(lp1992
g364
aI2113
aI2573
aI2569
aI1371
aL0L
aa(lp1993
g1899
aI247
aI2573
aI2569
aI1
aL1L
aa(lp1994
g1899
aI247
aI2573
aI2569
aI1
aL1L
aa(lp1995
g1899
aI247
aI2573
aI2569
aI1
aL1L
aa(lp1996
g1899
aI247
aI2573
aI2569
aI1
aL1L
aa(lp1997
g364
aI2113
aI2573
aI2569
aI1371
aL0L
aa(lp1998
g1899
aI247
aI2573
aI2569
aI1
aL1L
aa(lp1999
g1899
aI247
aI2573
aI2569
aI1
aL1L
aa(lp2000
g1899
aI247
aI2573
aI2569
aI1
aL1L
aa(lp2001
g1899
aI247
aI2573
aI2569
aI1
aL1L
aa(lp2002
g1899
aI247
aI2573
aI2569
aI1
aL1L
aa(lp2003
g1899
aI247
aI2573
aI2569
aI1
aL1L
aa(lp2004
g364
aI2113
aI2573
aI2569
aI1371
aL0L
aa(lp2005
g1899
aI247
aI2573
aI2569
aI1
aL1L
aa(lp2006
g1899
aI247
aI2573
aI2569
aI1
aL1L
aa(lp2007
g1899
aI247
aI2573
aI2569
aI1
aL1L
aa(lp2008
g1899
aI247
aI2573
aI2569
aI1
aL1L
aa(lp2009
g1899
aI247
aI2573
aI2569
aI1
aL1L
aa(lp2010
g364
aI2113
aI2573
aI2569
aI1371
aL0L
aa(lp2011
g1899
aI247
aI2573
aI2569
aI1
aL1L
aa(lp2012
g1899
aI247
aI2573
aI2569
aI1
aL1L
aa(lp2013
g364
aI2113
aI2573
aI2569
aI1371
aL0L
aa(lp2014
g1508
aI247
aI2573
aI2569
aI1
aL1L
aa(lp2015
g1899
aI247
aI2573
aI2569
aI1
aL1L
aa(lp2016
g364
aI2113
aI2573
aI2569
aI1371
aL0L
aa(lp2017
g1899
aI247
aI2573
aI2569
aI1
aL1L
aa(lp2018
g364
aI2113
aI2573
aI2569
aI1371
aL0L
aa(lp2019
g364
aI2113
aI2573
aI2569
aI1371
aL0L
aa(lp2020
g1899
aI247
aI2573
aI2569
aI1
aL1L
aa(lp2021
g1899
aI247
aI2573
aI2569
aI1
aL1L
aa(lp2022
g1899
aI247
aI2573
aI2569
aI1
aL1L
aa(lp2023
g1899
aI247
aI2573
aI2569
aI1
aL1L
aa(lp2024
g364
aI2113
aI2573
aI2569
aI1371
aL0L
aa(lp2025
g1899
aI247
aI2573
aI2569
aI1
aL1L
aa(lp2026
g1899
aI247
aI2573
aI2569
aI1
aL1L
aa(lp2027
g1899
aI247
aI2573
aI2569
aI1
aL1L
aa(lp2028
g1899
aI247
aI2573
aI2569
aI1
aL1L
aa(lp2029
g1899
aI247
aI2573
aI2569
aI1
aL1L
aa(lp2030
g364
aI2113
aI2573
aI2569
aI1371
aL0L
aa(lp2031
g1899
aI247
aI2573
aI2569
aI1
aL1L
aa(lp2032
g364
aI2113
aI2573
aI2569
aI1371
aL0L
aa(lp2033
g1899
aI247
aI2573
aI2569
aI1
aL1L
aa(lp2034
g1899
aI247
aI2573
aI2569
aI1
aL1L
aa(lp2035
g364
aI2113
aI2573
aI2569
aI1371
aL0L
aa(lp2036
g1508
aI247
aI2573
aI2569
aI1
aL1L
aa(lp2037
g1899
aI247
aI2573
aI2569
aI1
aL1L
aa(lp2038
g364
aI2113
aI2573
aI2569
aI1371
aL0L
aa(lp2039
g1899
aI247
aI2573
aI2569
aI1
aL1L
aa(lp2040
g1899
aI247
aI2573
aI2569
aI1
aL1L
aa(lp2041
g364
aI2113
aI2573
aI2569
aI1371
aL0L
aa(lp2042
g1899
aI247
aI2573
aI2569
aI1
aL1L
aa(lp2043
g1899
aI247
aI2573
aI2569
aI1
aL1L
aa(lp2044
g1899
aI247
aI2573
aI2569
aI1
aL1L
aa(lp2045
g1899
aI247
aI2573
aI2569
aI1
aL1L
aa(lp2046
g1899
aI247
aI2573
aI2569
aI1
aL1L
aa(lp2047
g364
aI2113
aI2573
aI2569
aI1371
aL0L
aa(lp2048
g1899
aI247
aI2573
aI2569
aI1
aL1L
aa(lp2049
g364
aI2113
aI2573
aI2569
aI1371
aL0L
aa(lp2050
g1899
aI247
aI2573
aI2569
aI1
aL1L
aa(lp2051
g1899
aI247
aI2573
aI2569
aI1
aL1L
aa(lp2052
g1508
aI247
aI2573
aI2569
aI1
aL1L
aa(lp2053
g1899
aI247
aI2573
aI2569
aI1
aL1L
aa(lp2054
g1899
aI247
aI2573
aI2569
aI1
aL1L
aa(lp2055
g1899
aI247
aI2573
aI2569
aI1
aL1L
aa(lp2056
g364
aI2113
aI2573
aI2569
aI1371
aL0L
aa(lp2057
g1899
aI247
aI2573
aI2569
aI1
aL1L
aa(lp2058
g364
aI2113
aI2573
aI2569
aI1371
aL0L
aa(lp2059
g1899
aI247
aI2573
aI2569
aI1
aL1L
aa(lp2060
g1899
aI247
aI2573
aI2569
aI1
aL1L
aa(lp2061
g1899
aI247
aI2573
aI2569
aI1
aL1L
aa(lp2062
g364
aI2113
aI2573
aI2569
aI1371
aL0L
aa(lp2063
g1899
aI247
aI2573
aI2569
aI1
aL1L
aa(lp2064
g1899
aI247
aI2573
aI2569
aI1
aL1L
aa(lp2065
g1899
aI247
aI2573
aI2569
aI1
aL1L
aa(lp2066
g1899
aI247
aI2573
aI2569
aI1
aL1L
aa(lp2067
g1899
aI247
aI2573
aI2569
aI1
aL1L
aa(lp2068
g1899
aI247
aI2573
aI2569
aI1
aL1L
aa(lp2069
g364
aI2113
aI2573
aI2569
aI1371
aL0L
aa(lp2070
g1899
aI247
aI2573
aI2569
aI1
aL1L
aa(lp2071
g1899
aI247
aI2573
aI2569
aI1
aL1L
aa(lp2072
g1899
aI247
aI2573
aI2569
aI1
aL1L
aa(lp2073
g360
aI581
aI407
aI1
aI368
aL0L
aa(lp2074
g360
aI581
aI407
aI1
aI368
aL0L
aa(lp2075
g360
aI581
aI18
aI1
aI164
aL0L
aa(lp2076
g364
aI2113
aI2573
aI2569
aI1371
aL0L
aa(lp2077
g1899
aI247
aI2573
aI2569
aI1
aL1L
aa(lp2078
g1899
aI247
aI2573
aI2569
aI1
aL1L
aa(lp2079
g364
aI2113
aI2573
aI2569
aI1371
aL0L
aa(lp2080
g1899
aI247
aI2573
aI2569
aI1
aL1L
aa(lp2081
g1899
aI247
aI2573
aI2569
aI1
aL1L
aa(lp2082
g364
aI2113
aI2573
aI2569
aI1371
aL0L
aa(lp2083
g1899
aI247
aI2573
aI2569
aI1
aL1L
aa(lp2084
g1899
aI247
aI2573
aI2569
aI1
aL1L
aa(lp2085
g1899
aI247
aI2573
aI2569
aI1
aL1L
aa(lp2086
g1899
aI247
aI2573
aI2569
aI1
aL1L
aa(lp2087
g364
aI2113
aI2573
aI2569
aI1371
aL0L
aa(lp2088
g1899
aI247
aI2573
aI2569
aI1
aL1L
aa(lp2089
g1899
aI247
aI2573
aI2569
aI1
aL1L
aa(lp2090
g1899
aI247
aI2573
aI2569
aI1
aL1L
aa(lp2091
g1899
aI247
aI2573
aI2569
aI1
aL1L
aa(lp2092
g364
aI2113
aI2573
aI2569
aI1371
aL0L
aa(lp2093
g1899
aI247
aI2573
aI2569
aI1
aL1L
aa(lp2094
g1899
aI247
aI2573
aI2569
aI1
aL1L
aa(lp2095
g364
aI2113
aI2573
aI2569
aI1371
aL0L
aa(lp2096
g364
aI2113
aI2573
aI2569
aI1371
aL0L
aa(lp2097
g364
aI2113
aI2573
aI2569
aI1371
aL0L
aa(lp2098
g1899
aI247
aI2573
aI2569
aI1
aL1L
aa(lp2099
g1899
aI247
aI2573
aI2569
aI1
aL1L
aa(lp2100
g364
aI2113
aI2573
aI2569
aI1371
aL0L
aa(lp2101
g1899
aI247
aI2573
aI2569
aI1
aL1L
aa(lp2102
g1899
aI247
aI2573
aI2569
aI1
aL1L
aa(lp2103
g1899
aI247
aI2573
aI2569
aI1
aL1L
aa(lp2104
g364
aI2113
aI2573
aI2569
aI1371
aL0L
aa(lp2105
g1899
aI247
aI2573
aI2569
aI1
aL1L
aa(lp2106
g1899
aI247
aI2573
aI2569
aI1
aL1L
aa(lp2107
g1899
aI247
aI2573
aI2569
aI1
aL1L
aa(lp2108
g1899
aI247
aI2573
aI2569
aI1
aL1L
aa(lp2109
g1899
aI247
aI2573
aI2569
aI1
aL1L
aa(lp2110
g364
aI2113
aI2573
aI2569
aI1371
aL0L
aa(lp2111
g1899
aI247
aI2573
aI2569
aI1
aL1L
aa(lp2112
g1899
aI247
aI2573
aI2569
aI1
aL1L
aa(lp2113
g364
aI2113
aI2573
aI2569
aI1371
aL0L
aa(lp2114
g1899
aI247
aI2573
aI2569
aI1
aL1L
aa(lp2115
g364
aI2113
aI2573
aI2569
aI1371
aL0L
aa(lp2116
g1899
aI247
aI2573
aI2569
aI1
aL1L
aa(lp2117
g1899
aI247
aI2573
aI2569
aI1
aL1L
aa(lp2118
g364
aI2113
aI2573
aI2569
aI1371
aL0L
aa(lp2119
g364
aI2113
aI2573
aI2569
aI1371
aL0L
aa(lp2120
g1899
aI247
aI2573
aI2569
aI1
aL1L
aa(lp2121
g1899
aI247
aI2573
aI2569
aI1
aL1L
aa(lp2122
g1899
aI247
aI2573
aI2569
aI1
aL1L
aa(lp2123
g364
aI2113
aI2573
aI2569
aI1371
aL0L
aa(lp2124
g1899
aI247
aI2573
aI2569
aI1
aL1L
aa(lp2125
g1899
aI247
aI2573
aI2569
aI1
aL1L
aa(lp2126
g1899
aI247
aI2573
aI2569
aI1
aL1L
aa(lp2127
g364
aI2113
aI2573
aI2569
aI1371
aL0L
aa(lp2128
g1899
aI247
aI2573
aI2569
aI1
aL1L
aa(lp2129
g1899
aI247
aI2573
aI2569
aI1
aL1L
aa(lp2130
g1899
aI247
aI2573
aI2569
aI1
aL1L
aa(lp2131
g364
aI2113
aI2573
aI2569
aI1371
aL0L
aa(lp2132
g1899
aI247
aI2573
aI2569
aI1
aL1L
aa(lp2133
g364
aI2113
aI2573
aI2569
aI1371
aL0L
aa(lp2134
g364
aI2113
aI2573
aI2569
aI1371
aL0L
aa(lp2135
g1899
aI247
aI2573
aI2569
aI1
aL1L
aa(lp2136
g364
aI2113
aI2573
aI2569
aI1371
aL0L
aa(lp2137
g1899
aI247
aI2573
aI2569
aI1
aL1L
aa(lp2138
g364
aI2113
aI2573
aI2569
aI1371
aL0L
aa(lp2139
g1899
aI247
aI2573
aI2569
aI1
aL1L
aa(lp2140
g364
aI2113
aI2573
aI2569
aI1371
aL0L
aa(lp2141
g1899
aI247
aI2573
aI2569
aI1
aL1L
aa(lp2142
g1899
aI247
aI2573
aI2569
aI1
aL1L
aa(lp2143
g1508
aI247
aI2573
aI2569
aI1
aL1L
aa(lp2144
g364
aI2113
aI2573
aI2569
aI1371
aL0L
aa(lp2145
g1899
aI247
aI2573
aI2569
aI1
aL1L
aa(lp2146
g1899
aI247
aI2573
aI2569
aI1
aL1L
aa(lp2147
g364
aI2113
aI2573
aI2569
aI1371
aL0L
aa(lp2148
g1899
aI247
aI2573
aI2569
aI1
aL1L
aa(lp2149
g364
aI2113
aI2573
aI2569
aI1371
aL0L
aa(lp2150
g1899
aI247
aI2573
aI2569
aI1
aL1L
aa(lp2151
g364
aI2113
aI2573
aI2569
aI1371
aL0L
aa(lp2152
g1899
aI247
aI2573
aI2569
aI1
aL1L
aa(lp2153
g364
aI2113
aI2573
aI2569
aI1371
aL0L
aa(lp2154
g364
aI2113
aI2573
aI2569
aI1371
aL0L
aa(lp2155
g1899
aI247
aI2573
aI2569
aI1
aL1L
aa(lp2156
g364
aI2113
aI2573
aI2569
aI1371
aL0L
aa(lp2157
g1899
aI247
aI2573
aI2569
aI1
aL1L
aa(lp2158
g364
aI2113
aI2573
aI2569
aI1371
aL0L
aa(lp2159
g1899
aI247
aI2573
aI2569
aI1
aL1L
aa(lp2160
g360
aI581
aI407
aI1
aI368
aL0L
aa(lp2161
g360
aI581
aI407
aI1
aI368
aL0L
aa(lp2162
g360
aI581
aI407
aI1
aI368
aL0L
aa(lp2163
g360
aI581
aI2573
aI1
aI4
aL0L
aa(lp2164
g364
aI2113
aI2573
aI2569
aI1371
aL0L
aa(lp2165
g1899
aI247
aI2573
aI2569
aI1
aL1L
aa(lp2166
g364
aI2113
aI2573
aI2569
aI1371
aL0L
aa(lp2167
g1899
aI247
aI2573
aI2569
aI1
aL1L
aa(lp2168
g364
aI2113
aI2573
aI2569
aI1371
aL0L
aa(lp2169
g364
aI2113
aI2573
aI2569
aI1371
aL0L
aa(lp2170
g364
aI2113
aI2573
aI2569
aI1371
aL0L
aa(lp2171
g1899
aI247
aI2573
aI2569
aI1
aL1L
aa(lp2172
g364
aI2113
aI2573
aI2569
aI1371
aL0L
aa(lp2173
g1508
aI247
aI2573
aI2569
aI1
aL1L
aa(lp2174
g1899
aI247
aI2573
aI2569
aI1
aL1L
aa(lp2175
g364
aI2113
aI2573
aI2569
aI1371
aL0L
aa(lp2176
g364
aI2113
aI2573
aI2569
aI1371
aL0L
aa(lp2177
g364
aI2113
aI2573
aI2569
aI1371
aL0L
aa(lp2178
g1899
aI247
aI2573
aI2569
aI1
aL1L
aa(lp2179
g1899
aI247
aI2573
aI2569
aI1
aL1L
aa(lp2180
g364
aI2113
aI2573
aI2569
aI1371
aL0L
aa(lp2181
g1899
aI247
aI2573
aI2569
aI1
aL1L
aa(lp2182
g364
aI2113
aI2573
aI2569
aI1371
aL0L
aa(lp2183
g364
aI2113
aI2573
aI2569
aI1371
aL0L
aa(lp2184
g364
aI2113
aI2573
aI2569
aI1371
aL0L
aa(lp2185
g1899
aI247
aI2573
aI2569
aI1
aL1L
aa(lp2186
g364
aI2113
aI2573
aI2569
aI1371
aL0L
aa(lp2187
g1899
aI247
aI2573
aI2569
aI1
aL1L
aa(lp2188
g1899
aI247
aI2573
aI2569
aI1
aL1L
aa(lp2189
g364
aI2113
aI2573
aI2569
aI1371
aL0L
aa(lp2190
g360
aI581
aI407
aI1
aI368
aL0L
aa(lp2191
g360
aI581
aI407
aI1
aI368
aL0L
aa(lp2192
g360
aI581
aI30
aI1
aI164
aL0L
aa(lp2193
g364
aI2113
aI2573
aI2569
aI1371
aL0L
aa(lp2194
g364
aI2113
aI2573
aI2569
aI1371
aL0L
aa(lp2195
g1899
aI247
aI2573
aI2569
aI1
aL1L
aa(lp2196
g364
aI2113
aI2573
aI2569
aI1371
aL0L
aa(lp2197
g1899
aI247
aI2573
aI2569
aI1
aL1L
aa(lp2198
g1899
aI247
aI2573
aI2569
aI1
aL1L
aa(lp2199
g1899
aI247
aI2573
aI2569
aI1
aL1L
aa(lp2200
g364
aI2113
aI2573
aI2569
aI1371
aL0L
aa(lp2201
g1899
aI247
aI2573
aI2569
aI1
aL1L
aa(lp2202
g364
aI2113
aI2573
aI2569
aI1371
aL0L
aa(lp2203
g364
aI2113
aI2573
aI2569
aI1371
aL0L
aa(lp2204
g364
aI2113
aI2573
aI2569
aI1371
aL0L
aa(lp2205
g364
aI2113
aI2573
aI2569
aI1371
aL0L
aa(lp2206
g1899
aI247
aI2573
aI2569
aI1
aL1L
aa(lp2207
g1899
aI247
aI2573
aI2569
aI1
aL1L
aa(lp2208
g364
aI2113
aI2573
aI2569
aI1371
aL0L
aa(lp2209
g364
aI2113
aI2573
aI2569
aI1371
aL0L
aa(lp2210
g364
aI2113
aI2573
aI2569
aI1371
aL0L
aa(lp2211
g364
aI2113
aI2573
aI2569
aI1371
aL0L
aa(lp2212
g1899
aI247
aI2573
aI2569
aI1
aL1L
aa(lp2213
g364
aI2113
aI2573
aI2569
aI1371
aL0L
aa(lp2214
g1899
aI247
aI2573
aI2569
aI1
aL1L
aa(lp2215
g1899
aI247
aI2573
aI2569
aI1
aL1L
aa(lp2216
g364
aI2113
aI2573
aI2569
aI1371
aL0L
aa(lp2217
g1899
aI247
aI2573
aI2569
aI1
aL1L
aa(lp2218
g1899
aI247
aI2573
aI2569
aI1
aL1L
aa(lp2219
g1899
aI247
aI2573
aI2569
aI1
aL1L
aa(lp2220
g364
aI2113
aI2573
aI2569
aI1371
aL0L
aa(lp2221
g1899
aI247
aI2573
aI2569
aI1
aL1L
aa(lp2222
g1899
aI247
aI2573
aI2569
aI1
aL1L
aa(lp2223
g364
aI2113
aI2573
aI2569
aI1371
aL0L
aa(lp2224
g1899
aI247
aI2573
aI2569
aI1
aL1L
aa(lp2225
g364
aI2113
aI2573
aI2569
aI1371
aL0L
aa(lp2226
g364
aI2113
aI2573
aI2569
aI1371
aL0L
aa(lp2227
g1899
aI247
aI2573
aI2569
aI1
aL1L
aa(lp2228
g364
aI2113
aI2573
aI2569
aI1371
aL0L
aa(lp2229
g364
aI2113
aI2573
aI2569
aI1371
aL0L
aa(lp2230
g1899
aI247
aI2573
aI2569
aI1
aL1L
aa(lp2231
g364
aI2113
aI2573
aI2569
aI1371
aL0L
aa(lp2232
g364
aI2113
aI2573
aI2569
aI1371
aL0L
aa(lp2233
g1899
aI247
aI2573
aI2569
aI1
aL1L
aa(lp2234
g364
aI2113
aI2573
aI2569
aI1371
aL0L
aa(lp2235
g364
aI2113
aI2573
aI2569
aI1371
aL0L
aa(lp2236
g360
aI581
aI407
aI1
aI368
aL0L
aa(lp2237
g360
aI581
aI407
aI1
aI368
aL0L
aa(lp2238
g360
aI581
aI27
aI1
aI164
aL0L
aa(lp2239
g364
aI2113
aI2573
aI2569
aI1371
aL0L
aa(lp2240
g364
aI2113
aI2573
aI2569
aI1371
aL0L
aa(lp2241
g364
aI2113
aI2573
aI2569
aI1371
aL0L
aa(lp2242
g1899
aI247
aI2573
aI2569
aI1
aL1L
aa(lp2243
g364
aI2113
aI2573
aI2569
aI1371
aL0L
aa(lp2244
g364
aI2113
aI2573
aI2569
aI1371
aL0L
aa(lp2245
g364
aI2113
aI2573
aI2569
aI1371
aL0L
aa(lp2246
g364
aI2113
aI2573
aI2569
aI1371
aL0L
aa(lp2247
g364
aI2113
aI2573
aI2569
aI1371
aL0L
aa(lp2248
g364
aI2113
aI2573
aI2569
aI1371
aL0L
aa(lp2249
g1899
aI247
aI2573
aI2569
aI1
aL1L
aa(lp2250
g364
aI2113
aI2573
aI2569
aI1371
aL0L
aa(lp2251
g1508
aI247
aI2573
aI2569
aI1
aL1L
aa(lp2252
g1899
aI247
aI2573
aI2569
aI1
aL1L
aa(lp2253
g364
aI2113
aI2573
aI2569
aI1371
aL0L
aa(lp2254
g364
aI2113
aI2573
aI2569
aI1371
aL0L
aa(lp2255
g364
aI2113
aI2573
aI2569
aI1371
aL0L
aa(lp2256
g364
aI2113
aI2573
aI2569
aI1371
aL0L
aa(lp2257
g364
aI2113
aI2573
aI2569
aI1371
aL0L
aa(lp2258
g1899
aI247
aI2573
aI2569
aI1
aL1L
aa(lp2259
g1899
aI247
aI2573
aI2569
aI1
aL1L
aa(lp2260
g364
aI2113
aI2573
aI2569
aI1371
aL0L
aa(lp2261
g1899
aI247
aI2573
aI2569
aI1
aL1L
aa(lp2262
g364
aI2113
aI2573
aI2569
aI1371
aL0L
aa(lp2263
g1899
aI247
aI2573
aI2569
aI1
aL1L
aa(lp2264
g1899
aI247
aI2573
aI2569
aI1
aL1L
aa(lp2265
g1899
aI247
aI2573
aI2569
aI1
aL1L
aa(lp2266
g364
aI2113
aI2573
aI2569
aI1371
aL0L
aa(lp2267
g364
aI2113
aI2573
aI2569
aI1371
aL0L
aa(lp2268
g1899
aI247
aI2573
aI2569
aI1
aL1L
aa(lp2269
g364
aI2113
aI2573
aI2569
aI1371
aL0L
aa(lp2270
g364
aI2113
aI2573
aI2569
aI1371
aL0L
aa(lp2271
g364
aI2113
aI2573
aI2569
aI1371
aL0L
aa(lp2272
g364
aI2113
aI2573
aI2569
aI1371
aL0L
aa(lp2273
g364
aI2113
aI2573
aI2569
aI1371
aL0L
aa(lp2274
g1899
aI247
aI2573
aI2569
aI1
aL1L
aa(lp2275
g364
aI2113
aI2573
aI2569
aI1371
aL0L
aa(lp2276
g1899
aI247
aI2573
aI2569
aI1
aL1L
aa(lp2277
g364
aI2113
aI2573
aI2569
aI1371
aL0L
aa(lp2278
g1899
aI247
aI2573
aI2569
aI1
aL1L
aa(lp2279
g364
aI2113
aI2573
aI2569
aI1371
aL0L
aa(lp2280
g364
aI2113
aI2573
aI2569
aI1371
aL0L
aa(lp2281
g364
aI2113
aI2573
aI2569
aI1371
aL0L
aa(lp2282
g1899
aI247
aI2573
aI2569
aI1
aL1L
aa(lp2283
g1899
aI247
aI2573
aI2569
aI1
aL1L
aa(lp2284
g1899
aI247
aI2573
aI2569
aI1
aL1L
aa(lp2285
g364
aI2113
aI2573
aI2569
aI1371
aL0L
aa(lp2286
g364
aI2113
aI2573
aI2569
aI1371
aL0L
aa(lp2287
g364
aI2113
aI2573
aI2569
aI1371
aL0L
aa(lp2288
g1899
aI247
aI2573
aI2569
aI1
aL1L
aa(lp2289
g364
aI2113
aI2573
aI2569
aI1371
aL0L
aa(lp2290
g364
aI2113
aI2573
aI2569
aI1371
aL0L
aa(lp2291
g1899
aI247
aI2573
aI2569
aI1
aL1L
aa(lp2292
g1508
aI247
aI2573
aI2569
aI1
aL1L
aa(lp2293
g364
aI2113
aI2573
aI2569
aI1371
aL0L
aa(lp2294
g364
aI2113
aI2573
aI2569
aI1371
aL0L
aa(lp2295
g364
aI2113
aI2573
aI2569
aI1371
aL0L
aa(lp2296
g364
aI2113
aI2573
aI2569
aI1371
aL0L
aa(lp2297
g364
aI2113
aI2573
aI2569
aI1371
aL0L
aa(lp2298
g364
aI2113
aI2573
aI2569
aI1371
aL0L
aa(lp2299
g364
aI2113
aI2573
aI2569
aI1371
aL0L
aa(lp2300
g364
aI2113
aI2573
aI2569
aI1371
aL0L
aa(lp2301
g1899
aI247
aI2573
aI2569
aI1
aL1L
aa(lp2302
g364
aI2113
aI2573
aI2569
aI1371
aL0L
aa(lp2303
g364
aI2113
aI2573
aI2569
aI1371
aL0L
aa(lp2304
g364
aI2113
aI2573
aI2569
aI1371
aL0L
aa(lp2305
g364
aI2113
aI2573
aI2569
aI1371
aL0L
aa(lp2306
g364
aI2113
aI2573
aI2569
aI1371
aL0L
aa(lp2307
g364
aI2113
aI2573
aI2569
aI1371
aL0L
aa(lp2308
g364
aI2113
aI2573
aI2569
aI1371
aL0L
aa(lp2309
g364
aI2113
aI2573
aI2569
aI1371
aL0L
aa(lp2310
g1899
aI247
aI2573
aI2569
aI1
aL1L
aa(lp2311
g364
aI2113
aI2573
aI2569
aI1371
aL0L
aa(lp2312
g1899
aI247
aI2573
aI2569
aI1
aL1L
aa(lp2313
g1899
aI247
aI2573
aI2569
aI1
aL1L
aa(lp2314
g364
aI2113
aI2573
aI2569
aI1371
aL0L
aa(lp2315
g364
aI2113
aI2573
aI2569
aI1371
aL0L
aa(lp2316
g1899
aI247
aI2573
aI2569
aI1
aL1L
aa(lp2317
g364
aI2113
aI2573
aI2569
aI1371
aL0L
aa(lp2318
g364
aI2113
aI2573
aI2569
aI1371
aL0L
aa(lp2319
g364
aI2113
aI2573
aI2569
aI1371
aL0L
aa(lp2320
g364
aI2113
aI2573
aI2569
aI1371
aL0L
aa(lp2321
g364
aI2113
aI2573
aI2569
aI1371
aL0L
aa(lp2322
g364
aI2113
aI2573
aI2569
aI1371
aL0L
aa(lp2323
g364
aI2113
aI2573
aI2569
aI1371
aL0L
aa(lp2324
g364
aI2113
aI2573
aI2569
aI1371
aL0L
aa(lp2325
g364
aI2113
aI2573
aI2569
aI1371
aL0L
aa(lp2326
g364
aI2113
aI2573
aI2569
aI1371
aL0L
aa(lp2327
g364
aI2113
aI2573
aI2569
aI1371
aL0L
aa(lp2328
g364
aI2113
aI2573
aI2569
aI1371
aL0L
aa(lp2329
g364
aI2113
aI2573
aI2569
aI1371
aL0L
aa(lp2330
g360
aI581
aI407
aI1
aI368
aL0L
aa(lp2331
g360
aI581
aI407
aI1
aI368
aL0L
aa(lp2332
g360
aI581
aI10
aI1
aI164
aL0L
aa(lp2333
g364
aI2113
aI2573
aI2569
aI1371
aL0L
aa(lp2334
g364
aI2113
aI2573
aI2569
aI1371
aL0L
aa(lp2335
g364
aI2113
aI2573
aI2569
aI1371
aL0L
aa(lp2336
g364
aI2113
aI2573
aI2569
aI1371
aL0L
aa(lp2337
g364
aI2113
aI2573
aI2569
aI1371
aL0L
aa(lp2338
g364
aI2113
aI2573
aI2569
aI1371
aL0L
aa(lp2339
g364
aI2113
aI2573
aI2569
aI1371
aL0L
aa(lp2340
g364
aI2113
aI2573
aI2569
aI1371
aL0L
aa(lp2341
g364
aI2113
aI2573
aI2569
aI1371
aL0L
aa(lp2342
g1899
aI247
aI2573
aI2569
aI1
aL1L
aa(lp2343
g364
aI2113
aI2573
aI2569
aI1371
aL0L
aa(lp2344
g364
aI2113
aI2573
aI2569
aI1371
aL0L
aa(lp2345
g1899
aI247
aI2573
aI2569
aI1
aL1L
aa(lp2346
g364
aI2113
aI2573
aI2569
aI1371
aL0L
aa(lp2347
g364
aI2113
aI2573
aI2569
aI1371
aL0L
aa(lp2348
g364
aI2113
aI2573
aI2569
aI1371
aL0L
aa(lp2349
g364
aI2113
aI2573
aI2569
aI1371
aL0L
aa(lp2350
g364
aI2113
aI2573
aI2569
aI1371
aL0L
aa(lp2351
g364
aI2113
aI2573
aI2569
aI1371
aL0L
aa(lp2352
g364
aI2113
aI2573
aI2569
aI1371
aL0L
aa(lp2353
g364
aI2113
aI2573
aI2569
aI1371
aL0L
aa(lp2354
g364
aI2113
aI2573
aI2569
aI1371
aL0L
aa(lp2355
g364
aI2113
aI2573
aI2569
aI1371
aL0L
aa(lp2356
g364
aI2113
aI2573
aI2569
aI1371
aL0L
aa(lp2357
g364
aI2113
aI2573
aI2569
aI1371
aL0L
aa(lp2358
g364
aI2113
aI2573
aI2569
aI1371
aL0L
aa(lp2359
g364
aI2113
aI2573
aI2569
aI1371
aL0L
aa(lp2360
g364
aI2113
aI2573
aI2569
aI1371
aL0L
aa(lp2361
g364
aI2113
aI2573
aI2569
aI1371
aL0L
aa(lp2362
g364
aI2113
aI2573
aI2569
aI1371
aL0L
aa(lp2363
g364
aI2113
aI2573
aI2569
aI1371
aL0L
aa(lp2364
g1899
aI247
aI2573
aI2569
aI1
aL1L
aa(lp2365
g364
aI2113
aI2573
aI2569
aI1371
aL0L
aa(lp2366
g364
aI2113
aI2573
aI2569
aI1371
aL0L
aa(lp2367
g364
aI2113
aI2573
aI2569
aI1371
aL0L
aa(lp2368
g364
aI2113
aI2573
aI2569
aI1371
aL0L
aa(lp2369
g364
aI2113
aI2573
aI2569
aI1371
aL0L
aa(lp2370
g364
aI2113
aI2573
aI2569
aI1371
aL0L
aa(lp2371
g364
aI2113
aI2573
aI2569
aI1371
aL0L
aa(lp2372
g364
aI2113
aI2573
aI2569
aI1371
aL0L
aa(lp2373
g364
aI2113
aI2573
aI2569
aI1371
aL0L
aa(lp2374
g364
aI2113
aI2573
aI2569
aI1371
aL0L
aa(lp2375
g364
aI2113
aI2573
aI2569
aI1371
aL0L
aa(lp2376
g364
aI2113
aI2573
aI2569
aI1371
aL0L
aa(lp2377
g364
aI2113
aI2573
aI2569
aI1371
aL0L
aa(lp2378
g364
aI2113
aI2573
aI2569
aI1371
aL0L
aa(lp2379
g364
aI2113
aI2573
aI2569
aI1371
aL0L
aa(lp2380
g364
aI2113
aI2573
aI2569
aI1371
aL0L
aa(lp2381
g364
aI2113
aI2573
aI2569
aI1371
aL0L
aa(lp2382
g364
aI2113
aI2573
aI2569
aI1371
aL0L
aa(lp2383
g364
aI2113
aI2573
aI2569
aI1371
aL0L
aa(lp2384
g364
aI2113
aI2573
aI2569
aI1371
aL0L
aa(lp2385
g364
aI2113
aI2573
aI2569
aI1371
aL0L
aa(lp2386
g364
aI2113
aI2573
aI2569
aI1371
aL0L
aa(lp2387
g364
aI2113
aI2573
aI2569
aI1371
aL0L
aa(lp2388
g364
aI2113
aI2573
aI2569
aI1371
aL0L
aa(lp2389
g364
aI2113
aI2573
aI2569
aI1371
aL0L
aa(lp2390
g364
aI2113
aI2573
aI2569
aI1371
aL0L
aa(lp2391
g364
aI2113
aI2573
aI2569
aI1371
aL0L
aa(lp2392
g364
aI2113
aI2573
aI2569
aI1371
aL0L
aa(lp2393
g364
aI2113
aI2573
aI2569
aI1371
aL0L
aa(lp2394
g364
aI2113
aI2573
aI2569
aI1371
aL0L
aa(lp2395
g364
aI2113
aI2573
aI2569
aI1371
aL0L
aa(lp2396
g364
aI2113
aI2573
aI2569
aI1371
aL0L
aa(lp2397
g364
aI2113
aI2573
aI2569
aI1371
aL0L
aa(lp2398
g364
aI2113
aI2573
aI2569
aI1371
aL0L
aa(lp2399
g364
aI2113
aI2573
aI2569
aI1371
aL0L
aa(lp2400
g364
aI2113
aI2573
aI2569
aI1371
aL0L
aa(lp2401
g364
aI2113
aI2573
aI2569
aI1371
aL0L
aa(lp2402
g364
aI2113
aI2573
aI2569
aI1371
aL0L
aa(lp2403
g364
aI2113
aI2573
aI2569
aI1371
aL0L
aa(lp2404
g364
aI2113
aI2573
aI2569
aI1371
aL0L
aa(lp2405
g364
aI2113
aI2573
aI2569
aI1371
aL0L
aa(lp2406
g360
aI581
aI407
aI1
aI368
aL0L
aa(lp2407
g360
aI581
aI407
aI1
aI368
aL0L
aa(lp2408
g360
aI581
aI18
aI1
aI164
aL0L
aa(lp2409
g364
aI2113
aI2573
aI2569
aI1371
aL0L
aa(lp2410
g364
aI2113
aI2573
aI2569
aI1371
aL0L
aa(lp2411
g364
aI2113
aI2573
aI2569
aI1371
aL0L
aa(lp2412
g364
aI2113
aI2573
aI2569
aI1371
aL0L
aa(lp2413
g364
aI2113
aI2573
aI2569
aI1371
aL0L
aa(lp2414
g364
aI2113
aI2573
aI2569
aI1371
aL0L
aa(lp2415
g364
aI2113
aI2573
aI2569
aI1371
aL0L
aa(lp2416
g364
aI2113
aI2573
aI2569
aI1371
aL0L
aa(lp2417
g364
aI2113
aI2573
aI2569
aI1371
aL0L
aa(lp2418
g364
aI2113
aI2573
aI2569
aI1371
aL0L
aa(lp2419
g364
aI2113
aI2573
aI2569
aI1371
aL0L
aa(lp2420
g364
aI2113
aI2573
aI2569
aI1371
aL0L
aa(lp2421
g364
aI2113
aI2573
aI2569
aI1371
aL0L
aa(lp2422
g364
aI2113
aI2573
aI2569
aI1371
aL0L
aa(lp2423
g364
aI2113
aI2573
aI2569
aI1371
aL0L
aa(lp2424
g364
aI2113
aI2573
aI2569
aI1371
aL0L
aa(lp2425
g364
aI2113
aI2573
aI2569
aI1371
aL0L
aa(lp2426
g364
aI2113
aI2573
aI2569
aI1371
aL0L
aa(lp2427
g364
aI2113
aI2573
aI2569
aI1371
aL0L
aa(lp2428
g364
aI2113
aI2573
aI2569
aI1371
aL0L
aa(lp2429
g364
aI2113
aI2573
aI2569
aI1371
aL0L
aa(lp2430
g364
aI2113
aI2573
aI2569
aI1371
aL0L
aa(lp2431
g364
aI2113
aI2573
aI2569
aI1371
aL0L
aa(lp2432
g364
aI2113
aI2573
aI2569
aI1371
aL0L
aa(lp2433
g364
aI2113
aI2573
aI2569
aI1371
aL0L
aa(lp2434
g364
aI2113
aI2573
aI2569
aI1371
aL0L
aa(lp2435
g364
aI2113
aI2573
aI2569
aI1371
aL0L
aa(lp2436
g364
aI2113
aI2573
aI2569
aI1371
aL0L
aa(lp2437
g364
aI2113
aI2573
aI2569
aI1371
aL0L
aa(lp2438
g364
aI2113
aI2573
aI2569
aI1371
aL0L
aa(lp2439
g364
aI2113
aI2573
aI2569
aI1371
aL0L
aa(lp2440
g364
aI2113
aI2573
aI2569
aI1371
aL0L
aa(lp2441
g364
aI2113
aI2573
aI2569
aI1371
aL0L
aa(lp2442
g364
aI2113
aI2573
aI2569
aI1371
aL0L
aa(lp2443
g364
aI2113
aI2573
aI2569
aI1371
aL0L
aa(lp2444
g364
aI2113
aI2573
aI2569
aI1371
aL0L
aa(lp2445
g364
aI2113
aI2573
aI2569
aI1371
aL0L
aa(lp2446
g364
aI2113
aI2573
aI2569
aI1371
aL0L
aa(lp2447
g364
aI2113
aI2573
aI2569
aI1371
aL0L
aa(lp2448
g364
aI2113
aI2573
aI2569
aI1371
aL0L
aa(lp2449
g364
aI2113
aI2573
aI2569
aI1371
aL0L
aa(lp2450
g364
aI2113
aI2573
aI2569
aI1371
aL0L
aa(lp2451
g364
aI2113
aI2573
aI2569
aI1371
aL0L
aa(lp2452
g364
aI2113
aI2573
aI2569
aI1371
aL0L
aa(lp2453
g364
aI2113
aI2573
aI2569
aI1371
aL0L
aa(lp2454
g364
aI2113
aI2573
aI2569
aI1371
aL0L
aa(lp2455
g364
aI2113
aI2573
aI2569
aI1371
aL0L
aa(lp2456
g364
aI2113
aI2573
aI2569
aI1371
aL0L
aa(lp2457
g364
aI2113
aI2573
aI2569
aI1371
aL0L
aa(lp2458
g364
aI2113
aI2573
aI2569
aI1371
aL0L
aa(lp2459
g364
aI2113
aI2573
aI2569
aI1371
aL0L
aa(lp2460
g364
aI2113
aI2573
aI2569
aI1371
aL0L
aa(lp2461
g364
aI2113
aI2573
aI2569
aI1371
aL0L
aa(lp2462
g360
aI581
aI407
aI1
aI368
aL0L
aa(lp2463
g360
aI581
aI407
aI1
aI368
aL0L
aa(lp2464
g360
aI581
aI30
aI1
aI164
aL0L
aa(lp2465
g364
aI2113
aI2573
aI2569
aI1371
aL0L
aa(lp2466
g364
aI2113
aI2573
aI2569
aI1371
aL0L
aa(lp2467
g364
aI2113
aI2573
aI2569
aI1371
aL0L
aa(lp2468
g364
aI2113
aI2573
aI2569
aI1371
aL0L
aa(lp2469
g364
aI2113
aI2573
aI2569
aI1371
aL0L
aa(lp2470
g364
aI2113
aI2573
aI2569
aI1371
aL0L
aa(lp2471
g364
aI2113
aI2573
aI2569
aI1371
aL0L
aa(lp2472
g364
aI2113
aI2573
aI2569
aI1371
aL0L
aa(lp2473
g364
aI2113
aI2573
aI2569
aI1371
aL0L
aa(lp2474
g364
aI2113
aI2573
aI2569
aI1371
aL0L
aa(lp2475
g364
aI2113
aI2573
aI2569
aI1371
aL0L
aa(lp2476
g364
aI2113
aI2573
aI2569
aI1371
aL0L
aa(lp2477
g364
aI2113
aI2573
aI2569
aI1371
aL0L
aa(lp2478
g364
aI2113
aI2573
aI2569
aI1371
aL0L
aa(lp2479
g364
aI2113
aI2573
aI2569
aI1371
aL0L
aa(lp2480
g364
aI2113
aI2573
aI2569
aI1371
aL0L
aa(lp2481
g364
aI2113
aI2573
aI2569
aI1371
aL0L
aa(lp2482
g360
aI581
aI407
aI1
aI368
aL0L
aa(lp2483
g360
aI581
aI407
aI1
aI368
aL0L
aa(lp2484
g360
aI581
aI18
aI1
aI164
aL0L
aa(lp2485
g364
aI2113
aI2573
aI2569
aI1371
aL0L
aa(lp2486
g364
aI2113
aI2573
aI2569
aI1371
aL0L
aa(lp2487
g364
aI2113
aI2573
aI2569
aI1371
aL0L
aa(lp2488
g364
aI2113
aI2573
aI2569
aI1371
aL0L
aa(lp2489
g364
aI2113
aI2573
aI2569
aI1371
aL0L
aa(lp2490
g364
aI2113
aI2573
aI2569
aI1371
aL0L
aa(lp2491
g364
aI2113
aI2573
aI2569
aI1371
aL0L
aa(lp2492
g364
aI2113
aI2573
aI2569
aI1371
aL0L
aa(lp2493
g364
aI2113
aI2573
aI2569
aI1371
aL0L
aa(lp2494
g364
aI2113
aI2573
aI2569
aI1371
aL0L
aa(lp2495
g364
aI2113
aI2573
aI2569
aI1371
aL0L
aa(lp2496
g364
aI2113
aI2573
aI2569
aI1371
aL0L
aa(lp2497
g364
aI2113
aI2573
aI2569
aI1371
aL0L
aa(lp2498
g364
aI2113
aI2573
aI2569
aI1371
aL0L
aa(lp2499
g364
aI2113
aI2573
aI2569
aI1371
aL0L
aa(lp2500
g364
aI2113
aI2573
aI2569
aI1371
aL0L
aa(lp2501
g364
aI2113
aI2573
aI2569
aI1371
aL0L
aa(lp2502
g364
aI2113
aI2573
aI2569
aI1371
aL0L
aa(lp2503
g364
aI2113
aI2573
aI2569
aI1371
aL0L
aa(lp2504
g364
aI2113
aI2573
aI2569
aI1371
aL0L
aa(lp2505
g364
aI2113
aI2573
aI2569
aI1371
aL0L
aa(lp2506
g364
aI2113
aI2573
aI2569
aI1371
aL0L
aa(lp2507
g364
aI2113
aI2573
aI2569
aI1371
aL0L
aa(lp2508
g364
aI2113
aI2573
aI2569
aI1371
aL0L
aa(lp2509
g364
aI2113
aI2573
aI2569
aI1371
aL0L
aa(lp2510
g364
aI2113
aI2573
aI2569
aI1371
aL0L
aa(lp2511
g364
aI2113
aI2573
aI2569
aI1371
aL0L
aa(lp2512
g364
aI2113
aI2573
aI2569
aI1371
aL0L
aa(lp2513
g364
aI2113
aI2573
aI2569
aI1371
aL0L
aa(lp2514
g364
aI2113
aI2573
aI2569
aI1371
aL0L
aa(lp2515
g364
aI2113
aI2573
aI2569
aI1371
aL0L
aa(lp2516
g364
aI2113
aI2573
aI2569
aI1371
aL0L
aa(lp2517
g364
aI2113
aI2573
aI2569
aI1371
aL0L
aa(lp2518
g364
aI2113
aI2573
aI2569
aI1371
aL0L
aa(lp2519
g364
aI2113
aI2573
aI2569
aI1371
aL0L
aa(lp2520
g364
aI2113
aI2573
aI2569
aI1371
aL0L
aa(lp2521
g364
aI2113
aI2573
aI2569
aI1371
aL0L
aa(lp2522
g364
aI2113
aI2573
aI2569
aI1371
aL0L
aa(lp2523
g364
aI2113
aI2573
aI2569
aI1371
aL0L
aa(lp2524
g364
aI2113
aI2573
aI2569
aI1371
aL0L
aa(lp2525
g364
aI2113
aI2573
aI2569
aI1371
aL0L
aa(lp2526
g364
aI2113
aI2573
aI2569
aI1371
aL0L
aa(lp2527
g364
aI2113
aI2573
aI2569
aI1371
aL0L
aa(lp2528
g364
aI2113
aI2573
aI2569
aI1371
aL0L
aa(lp2529
g364
aI2113
aI2573
aI2569
aI1371
aL0L
aa(lp2530
g364
aI2113
aI2573
aI2569
aI1371
aL0L
aa(lp2531
g364
aI2113
aI2573
aI2569
aI1371
aL0L
aa(lp2532
g364
aI2113
aI2573
aI2569
aI1371
aL0L
aa(lp2533
g364
aI2113
aI2573
aI2569
aI1371
aL0L
aa(lp2534
g364
aI2113
aI2573
aI2569
aI1371
aL0L
aa(lp2535
g364
aI2113
aI2573
aI2569
aI1371
aL0L
aa(lp2536
g364
aI2113
aI2573
aI2569
aI1371
aL0L
aa(lp2537
g364
aI2113
aI2573
aI2569
aI1371
aL0L
aa(lp2538
g364
aI2113
aI2573
aI2569
aI1371
aL0L
aa(lp2539
g364
aI2113
aI2573
aI2569
aI1371
aL0L
aa(lp2540
g364
aI2113
aI2573
aI2569
aI1371
aL0L
aa(lp2541
g364
aI2113
aI2573
aI2569
aI1371
aL0L
aa(lp2542
g364
aI2113
aI2573
aI2569
aI1371
aL0L
aa(lp2543
g364
aI2113
aI2573
aI2569
aI1371
aL0L
aa(lp2544
g364
aI2113
aI2573
aI2569
aI1371
aL0L
aa(lp2545
g364
aI2113
aI2573
aI2569
aI1371
aL0L
aa(lp2546
g364
aI2113
aI2573
aI2569
aI1371
aL0L
aa(lp2547
g364
aI2113
aI2573
aI2569
aI1371
aL0L
aa(lp2548
g364
aI2113
aI2573
aI2569
aI1371
aL0L
aa(lp2549
g364
aI2113
aI2573
aI2569
aI1371
aL0L
aa(lp2550
g364
aI2113
aI2573
aI2569
aI1371
aL0L
aa(lp2551
g364
aI2113
aI2573
aI2569
aI1371
aL0L
aa(lp2552
g364
aI2113
aI2573
aI2569
aI1371
aL0L
aa(lp2553
g364
aI2113
aI2573
aI2569
aI1371
aL0L
aa(lp2554
g364
aI2113
aI2573
aI2569
aI1371
aL0L
aa(lp2555
g360
aI581
aI407
aI1
aI368
aL0L
aa(lp2556
g360
aI581
aI407
aI1
aI368
aL0L
aa(lp2557
g360
aI581
aI26
aI1
aI164
aL0L
aa(lp2558
g364
aI2113
aI2573
aI2569
aI1371
aL0L
aa(lp2559
g364
aI2113
aI2573
aI2569
aI1371
aL0L
aa(lp2560
g364
aI2113
aI2573
aI2569
aI1371
aL0L
aa(lp2561
g364
aI2113
aI2573
aI2569
aI1371
aL0L
aa(lp2562
g364
aI2113
aI2573
aI2569
aI1371
aL0L
aa(lp2563
g364
aI2113
aI2573
aI2569
aI1371
aL0L
aa(lp2564
g364
aI2113
aI2573
aI2569
aI1371
aL0L
aa(lp2565
g364
aI2113
aI2573
aI2569
aI1371
aL0L
aa(lp2566
g364
aI2113
aI2573
aI2569
aI1371
aL0L
aa(lp2567
g364
aI2113
aI2573
aI2569
aI1371
aL0L
aa(lp2568
g364
aI2113
aI2573
aI2569
aI1371
aL0L
aa(lp2569
g364
aI2113
aI2573
aI2569
aI1371
aL0L
aa(lp2570
g364
aI2113
aI2573
aI2569
aI1371
aL0L
aa(lp2571
g364
aI2113
aI2573
aI2569
aI1371
aL0L
aa(lp2572
g364
aI2113
aI2573
aI2569
aI1371
aL0L
aa(lp2573
g364
aI2113
aI2573
aI2569
aI1371
aL0L
aa(lp2574
g364
aI2113
aI2573
aI2569
aI1371
aL0L
aa(lp2575
g364
aI2113
aI2573
aI2569
aI1371
aL0L
aa(lp2576
g364
aI2113
aI2573
aI2569
aI1371
aL0L
aa(lp2577
g364
aI2113
aI2573
aI2569
aI1371
aL0L
aa(lp2578
g364
aI2113
aI2573
aI2569
aI1371
aL0L
aa(lp2579
g364
aI2113
aI2573
aI2569
aI1371
aL0L
aa(lp2580
g364
aI2113
aI2573
aI2569
aI1371
aL0L
aa(lp2581
g364
aI2113
aI2573
aI2569
aI1371
aL0L
aa(lp2582
g364
aI2113
aI2573
aI2569
aI1371
aL0L
aa(lp2583
g364
aI2113
aI2573
aI2569
aI1371
aL0L
aa(lp2584
g364
aI2113
aI2573
aI2569
aI1371
aL0L
aa(lp2585
g364
aI2113
aI2573
aI2569
aI1371
aL0L
aa(lp2586
g364
aI2113
aI2573
aI2569
aI1371
aL0L
aa(lp2587
g364
aI2113
aI2573
aI2569
aI1371
aL0L
aa(lp2588
g364
aI2113
aI2573
aI2569
aI1371
aL0L
aa(lp2589
g364
aI2113
aI2573
aI2569
aI1371
aL0L
aa(lp2590
g364
aI2113
aI2573
aI2569
aI1371
aL0L
aa(lp2591
g364
aI2113
aI2573
aI2569
aI1371
aL0L
aa(lp2592
g364
aI2113
aI2573
aI2569
aI1371
aL0L
aa(lp2593
g364
aI2113
aI2573
aI2569
aI1371
aL0L
aa(lp2594
g364
aI2113
aI2573
aI2569
aI1371
aL0L
aa(lp2595
g364
aI2113
aI2573
aI2569
aI1371
aL0L
aa(lp2596
g364
aI2113
aI2573
aI2569
aI1371
aL0L
aa(lp2597
g364
aI2113
aI2573
aI2569
aI1371
aL0L
aa(lp2598
g364
aI2113
aI2573
aI2569
aI1371
aL0L
aa(lp2599
g364
aI2113
aI2573
aI2569
aI1371
aL0L
aa(lp2600
g364
aI2113
aI2573
aI2569
aI1371
aL0L
aa(lp2601
g364
aI2113
aI2573
aI2569
aI1371
aL0L
aa(lp2602
g364
aI2113
aI2573
aI2569
aI1371
aL0L
aa(lp2603
g364
aI2113
aI2573
aI2569
aI1371
aL0L
aa(lp2604
g364
aI2113
aI2573
aI2569
aI1371
aL0L
aa(lp2605
g364
aI2113
aI2573
aI2569
aI1371
aL0L
aa(lp2606
g364
aI2113
aI2573
aI2569
aI1371
aL0L
aa(lp2607
g364
aI2113
aI2573
aI2569
aI1371
aL0L
aa(lp2608
g364
aI2113
aI2573
aI2569
aI1371
aL0L
aa(lp2609
g364
aI2113
aI2573
aI2569
aI1371
aL0L
aa(lp2610
g364
aI2113
aI2573
aI2569
aI1371
aL0L
aa(lp2611
g364
aI2113
aI2573
aI2569
aI1371
aL0L
aa(lp2612
g364
aI2113
aI2573
aI2569
aI1371
aL0L
aa(lp2613
g364
aI2113
aI2573
aI2569
aI1371
aL0L
aa(lp2614
g364
aI2113
aI2573
aI2569
aI1371
aL0L
aa(lp2615
g364
aI2113
aI2573
aI2569
aI1371
aL0L
aa(lp2616
g364
aI2113
aI2573
aI2569
aI1371
aL0L
aa(lp2617
g364
aI2113
aI2573
aI2569
aI1371
aL0L
aa(lp2618
g364
aI2113
aI2573
aI2569
aI1371
aL0L
aa(lp2619
g364
aI2113
aI2573
aI2569
aI1371
aL0L
aa(lp2620
g364
aI2113
aI2573
aI2569
aI1371
aL0L
aa(lp2621
g364
aI2113
aI2573
aI2569
aI1371
aL0L
aa(lp2622
g364
aI2113
aI2573
aI2569
aI1371
aL0L
aa(lp2623
g364
aI2113
aI2573
aI2569
aI1371
aL0L
aa(lp2624
g364
aI2113
aI2573
aI2569
aI1371
aL0L
aa(lp2625
g364
aI2113
aI2573
aI2569
aI1371
aL0L
aa(lp2626
g364
aI2113
aI2573
aI2569
aI1371
aL0L
aa(lp2627
g364
aI2113
aI2573
aI2569
aI1371
aL0L
aa(lp2628
g360
aI581
aI407
aI1
aI368
aL0L
aa(lp2629
g360
aI581
aI407
aI1
aI368
aL0L
aa(lp2630
g360
aI581
aI27
aI1
aI164
aL0L
aa(lp2631
g364
aI2113
aI2573
aI2569
aI1371
aL0L
aa(lp2632
g364
aI2113
aI2573
aI2569
aI1371
aL0L
aa(lp2633
g364
aI2113
aI2573
aI2569
aI1371
aL0L
aa(lp2634
g364
aI2113
aI2573
aI2569
aI1371
aL0L
aa(lp2635
g364
aI2113
aI2573
aI2569
aI1371
aL0L
aa(lp2636
g364
aI2113
aI2573
aI2569
aI1371
aL0L
aa(lp2637
g364
aI2113
aI2573
aI2569
aI1371
aL0L
aa(lp2638
g364
aI2113
aI2573
aI2569
aI1371
aL0L
aa(lp2639
g364
aI2113
aI2573
aI2569
aI1371
aL0L
aa(lp2640
g364
aI2113
aI2573
aI2569
aI1371
aL0L
aa(lp2641
g364
aI2113
aI2573
aI2569
aI1371
aL0L
aa(lp2642
g364
aI2113
aI2573
aI2569
aI1371
aL0L
aa(lp2643
g364
aI2113
aI2573
aI2569
aI1371
aL0L
aa(lp2644
g364
aI2113
aI2573
aI2569
aI1371
aL0L
aa(lp2645
g364
aI2113
aI2573
aI2569
aI1371
aL0L
aa(lp2646
g364
aI2113
aI2573
aI2569
aI1371
aL0L
aa(lp2647
g364
aI2113
aI2573
aI2569
aI1371
aL0L
aa(lp2648
g364
aI2113
aI2573
aI2569
aI1371
aL0L
aa(lp2649
g364
aI2113
aI2573
aI2569
aI1371
aL0L
aa(lp2650
g364
aI2113
aI2573
aI2569
aI1371
aL0L
aa(lp2651
g364
aI2113
aI2573
aI2569
aI1371
aL0L
aa(lp2652
g364
aI2113
aI2573
aI2569
aI1371
aL0L
aa(lp2653
g364
aI2113
aI2573
aI2569
aI1371
aL0L
aa(lp2654
g364
aI2113
aI2573
aI2569
aI1371
aL0L
aa(lp2655
g364
aI2113
aI2573
aI2569
aI1371
aL0L
aa(lp2656
g364
aI2113
aI2573
aI2569
aI1371
aL0L
aa(lp2657
g364
aI2113
aI2573
aI2569
aI1371
aL0L
aa(lp2658
g364
aI2113
aI2573
aI2569
aI1371
aL0L
aa(lp2659
g364
aI2113
aI2573
aI2569
aI1371
aL0L
aa(lp2660
g364
aI2113
aI2573
aI2569
aI1371
aL0L
aa(lp2661
g364
aI2113
aI2573
aI2569
aI1371
aL0L
aa(lp2662
g364
aI2113
aI2573
aI2569
aI1371
aL0L
aa(lp2663
g364
aI2113
aI2573
aI2569
aI1371
aL0L
aa(lp2664
g364
aI2113
aI2573
aI2569
aI1371
aL0L
aa(lp2665
g364
aI2113
aI2573
aI2569
aI1371
aL0L
aa(lp2666
g364
aI2113
aI2573
aI2569
aI1371
aL0L
aa(lp2667
g364
aI2113
aI2573
aI2569
aI1371
aL0L
aa(lp2668
g364
aI2113
aI2573
aI2569
aI1371
aL0L
aa(lp2669
g364
aI2113
aI2573
aI2569
aI1371
aL0L
aa(lp2670
g364
aI2113
aI2573
aI2569
aI1371
aL0L
aa(lp2671
g364
aI2113
aI2573
aI2569
aI1371
aL0L
aa(lp2672
g364
aI2113
aI2573
aI2569
aI1371
aL0L
aa(lp2673
g364
aI2113
aI2573
aI2569
aI1371
aL0L
aa(lp2674
g364
aI2113
aI2573
aI2569
aI1371
aL0L
aa(lp2675
g364
aI2113
aI2573
aI2569
aI1371
aL0L
aa(lp2676
g364
aI2113
aI2573
aI2569
aI1371
aL0L
aa(lp2677
g364
aI2113
aI2573
aI2569
aI1371
aL0L
aa(lp2678
g364
aI2113
aI2573
aI2569
aI1371
aL0L
aa(lp2679
g364
aI2113
aI2573
aI2569
aI1371
aL0L
aa(lp2680
g364
aI2113
aI2573
aI2569
aI1371
aL0L
aa(lp2681
g364
aI2113
aI2573
aI2569
aI1371
aL0L
aa(lp2682
g364
aI2113
aI2573
aI2569
aI1371
aL0L
aa(lp2683
g364
aI2113
aI2573
aI2569
aI1371
aL0L
aa(lp2684
g364
aI2113
aI2573
aI2569
aI1371
aL0L
aa(lp2685
g364
aI2113
aI2573
aI2569
aI1371
aL0L
aa(lp2686
g364
aI2113
aI2573
aI2569
aI1371
aL0L
aa(lp2687
g364
aI2113
aI2573
aI2569
aI1371
aL0L
aa(lp2688
g364
aI2113
aI2573
aI2569
aI1371
aL0L
aa(lp2689
g364
aI2113
aI2573
aI2569
aI1371
aL0L
aa(lp2690
g360
aI581
aI407
aI1
aI368
aL0L
aa(lp2691
g360
aI581
aI407
aI1
aI368
aL0L
aa(lp2692
g360
aI581
aI30
aI1
aI164
aL0L
aa(lp2693
g364
aI2113
aI2573
aI2569
aI1371
aL0L
aa(lp2694
g364
aI2113
aI2573
aI2569
aI1371
aL0L
aa(lp2695
g364
aI2113
aI2573
aI2569
aI1371
aL0L
aa(lp2696
g364
aI2113
aI2573
aI2569
aI1371
aL0L
aa(lp2697
g364
aI2113
aI2573
aI2569
aI1371
aL0L
aa(lp2698
g364
aI2113
aI2573
aI2569
aI1371
aL0L
aa(lp2699
g364
aI2113
aI2573
aI2569
aI1371
aL0L
aa(lp2700
g364
aI2113
aI2573
aI2569
aI1371
aL0L
aa(lp2701
g364
aI2113
aI2573
aI2569
aI1371
aL0L
aa(lp2702
g360
aI581
aI407
aI1
aI368
aL0L
aa(lp2703
g360
aI581
aI407
aI1
aI368
aL0L
aa(lp2704
g360
aI581
aI18
aI1
aI164
aL0L
aa(lp2705
g364
aI2113
aI2573
aI2569
aI1371
aL0L
aa(lp2706
g364
aI2113
aI2573
aI2569
aI1371
aL0L
aa(lp2707
g364
aI2113
aI2573
aI2569
aI1371
aL0L
aa(lp2708
g364
aI2113
aI2573
aI2569
aI1371
aL0L
aa(lp2709
g364
aI2113
aI2573
aI2569
aI1371
aL0L
aa(lp2710
g364
aI2113
aI2573
aI2569
aI1371
aL0L
aa(lp2711
g364
aI2113
aI2573
aI2569
aI1371
aL0L
aa(lp2712
g364
aI2113
aI2573
aI2569
aI1371
aL0L
aa(lp2713
g364
aI2113
aI2573
aI2569
aI1371
aL0L
aa(lp2714
g364
aI2113
aI2573
aI2569
aI1371
aL0L
aa(lp2715
g364
aI2113
aI2573
aI2569
aI1371
aL0L
aa(lp2716
g364
aI2113
aI2573
aI2569
aI1371
aL0L
aa(lp2717
g364
aI2113
aI2573
aI2569
aI1371
aL0L
aa(lp2718
g364
aI2113
aI2573
aI2569
aI1371
aL0L
aa(lp2719
g364
aI2113
aI2573
aI2569
aI1371
aL0L
aa(lp2720
g364
aI2113
aI2573
aI2569
aI1371
aL0L
aa(lp2721
g364
aI2113
aI2573
aI2569
aI1371
aL0L
aa(lp2722
g364
aI2113
aI2573
aI2569
aI1371
aL0L
aa(lp2723
g364
aI2113
aI2573
aI2569
aI1371
aL0L
aa(lp2724
g364
aI2113
aI2573
aI2569
aI1371
aL0L
aa(lp2725
g364
aI2113
aI2573
aI2569
aI1371
aL0L
aa(lp2726
g364
aI2113
aI2573
aI2569
aI1371
aL0L
aa(lp2727
g364
aI2113
aI2573
aI2569
aI1371
aL0L
aa(lp2728
g364
aI2113
aI2573
aI2569
aI1371
aL0L
aa(lp2729
g364
aI2113
aI2573
aI2569
aI1371
aL0L
aa(lp2730
g364
aI2113
aI2573
aI2569
aI1371
aL0L
aa(lp2731
g364
aI2113
aI2573
aI2569
aI1371
aL0L
aa(lp2732
g364
aI2113
aI2573
aI2569
aI1371
aL0L
aa(lp2733
g364
aI2113
aI2573
aI2569
aI1371
aL0L
aa(lp2734
g364
aI2113
aI2573
aI2569
aI1371
aL0L
aa(lp2735
g364
aI2113
aI2573
aI2569
aI1371
aL0L
aa(lp2736
g364
aI2113
aI2573
aI2569
aI1371
aL0L
aa(lp2737
g360
aI581
aI407
aI1
aI368
aL0L
aa(lp2738
g360
aI581
aI407
aI1
aI368
aL0L
aa(lp2739
g364
aI2113
aI2573
aI2569
aI1371
aL0L
aa(lp2740
g364
aI2113
aI2573
aI2569
aI1371
aL0L
aa(lp2741
g364
aI2113
aI2573
aI2569
aI1371
aL0L
aa(lp2742
g364
aI2113
aI2573
aI2569
aI1371
aL0L
aa(lp2743
g360
aI581
aI407
aI1
aI368
aL0L
aa(lp2744
g364
aI2113
aI2573
aI2569
aI1371
aL0L
aa(lp2745
g360
aI581
aI407
aI1
aI368
aL0L
aa(lp2746
g360
aI581
aI3
aI1
aI164
aL0L
aa(lp2747
g364
aI2113
aI2573
aI2569
aI1371
aL0L
aa(lp2748
g364
aI2113
aI2573
aI2569
aI1371
aL0L
aa(lp2749
g360
aI581
aI407
aI1
aI368
aL0L
aa(lp2750
g360
aI581
aI407
aI1
aI368
aL0L
aa(lp2751
g364
aI2113
aI2573
aI2569
aI1371
aL0L
aa(lp2752
g364
aI2113
aI2573
aI2569
aI1371
aL0L
aa(lp2753
g364
aI2113
aI2573
aI2569
aI1371
aL0L
aa(lp2754
g364
aI2113
aI2573
aI2569
aI1371
aL0L
aa(lp2755
g364
aI2113
aI2573
aI2569
aI1371
aL0L
aa(lp2756
g364
aI2113
aI2573
aI2569
aI1371
aL0L
aa(lp2757
g364
aI2113
aI2573
aI2569
aI1371
aL0L
aa(lp2758
g364
aI2113
aI2573
aI2569
aI1371
aL0L
aa(lp2759
g364
aI2113
aI2573
aI2569
aI1371
aL0L
aa(lp2760
g364
aI2113
aI2573
aI2569
aI1371
aL0L
aa(lp2761
g364
aI2113
aI2573
aI2569
aI1371
aL0L
aa(lp2762
g364
aI2113
aI2573
aI2569
aI1371
aL0L
aa(lp2763
g364
aI2113
aI2573
aI2569
aI1371
aL0L
aa(lp2764
g364
aI2113
aI2573
aI2569
aI1371
aL0L
aa(lp2765
g364
aI2113
aI2573
aI2569
aI1371
aL0L
aa(lp2766
g364
aI2113
aI2573
aI2569
aI1371
aL0L
aa(lp2767
g364
aI2113
aI2573
aI2569
aI1371
aL0L
aa(lp2768
g364
aI2113
aI2573
aI2569
aI1371
aL0L
aa(lp2769
g364
aI2113
aI2573
aI2569
aI1371
aL0L
aa(lp2770
g364
aI2113
aI2573
aI2569
aI1371
aL0L
aa(lp2771
g364
aI2113
aI2573
aI2569
aI1371
aL0L
aa(lp2772
g364
aI2113
aI2573
aI2569
aI1371
aL0L
aa(lp2773
g364
aI2113
aI2573
aI2569
aI1371
aL0L
aa(lp2774
g364
aI2113
aI2573
aI2569
aI1371
aL0L
aa(lp2775
g364
aI2113
aI2573
aI2569
aI1371
aL0L
aa(lp2776
g364
aI2113
aI2573
aI2569
aI1371
aL0L
aa(lp2777
g364
aI2113
aI2573
aI2569
aI1371
aL0L
aa(lp2778
g364
aI2113
aI2573
aI2569
aI1371
aL0L
aa(lp2779
g364
aI2113
aI2573
aI2569
aI1371
aL0L
aa(lp2780
g364
aI2113
aI2573
aI2569
aI1371
aL0L
aa(lp2781
g364
aI2113
aI2573
aI2569
aI1371
aL0L
aa(lp2782
g360
aI581
aI407
aI1
aI368
aL0L
aa(lp2783
g360
aI581
aI407
aI1
aI368
aL0L
aa(lp2784
g360
aI581
aI10
aI1
aI164
aL0L
aa(lp2785
g364
aI2113
aI2573
aI2569
aI1371
aL0L
aa(lp2786
g364
aI2113
aI2573
aI2569
aI1371
aL0L
aa(lp2787
g364
aI2113
aI2573
aI2569
aI1371
aL0L
aa(lp2788
g364
aI2113
aI2573
aI2569
aI1371
aL0L
aa(lp2789
g364
aI2113
aI2573
aI2569
aI1371
aL0L
aa(lp2790
g364
aI2113
aI2573
aI2569
aI1371
aL0L
aa(lp2791
g364
aI2113
aI2573
aI2569
aI1371
aL0L
aa(lp2792
g364
aI2113
aI2573
aI2569
aI1371
aL0L
aa(lp2793
g364
aI2113
aI2573
aI2569
aI1371
aL0L
aa(lp2794
g364
aI2113
aI2573
aI2569
aI1371
aL0L
aa(lp2795
g364
aI2113
aI2573
aI2569
aI1371
aL0L
aa(lp2796
g364
aI2113
aI2573
aI2569
aI1371
aL0L
aa(lp2797
g364
aI2113
aI2573
aI2569
aI1371
aL0L
aa(lp2798
g364
aI2113
aI2573
aI2569
aI1371
aL0L
aa(lp2799
g364
aI2113
aI2573
aI2569
aI1371
aL0L
aa(lp2800
g364
aI2113
aI2573
aI2569
aI1371
aL0L
aa(lp2801
g364
aI2113
aI2573
aI2569
aI1371
aL0L
aa(lp2802
g364
aI2113
aI2573
aI2569
aI1371
aL0L
aa(lp2803
g364
aI2113
aI2573
aI2569
aI1371
aL0L
aa(lp2804
g364
aI2113
aI2573
aI2569
aI1371
aL0L
aa(lp2805
g364
aI2113
aI2573
aI2569
aI1371
aL0L
aa(lp2806
g364
aI2113
aI2573
aI2569
aI1371
aL0L
aa(lp2807
g364
aI2113
aI2573
aI2569
aI1371
aL0L
aa(lp2808
g364
aI2113
aI2573
aI2569
aI1371
aL0L
aa(lp2809
g364
aI2113
aI2573
aI2569
aI1371
aL0L
aa(lp2810
g364
aI2113
aI2573
aI2569
aI1371
aL0L
aa(lp2811
g364
aI2113
aI2573
aI2569
aI1371
aL0L
aa(lp2812
g364
aI2113
aI2573
aI2569
aI1371
aL0L
aa(lp2813
g364
aI2113
aI2573
aI2569
aI1371
aL0L
aa(lp2814
g364
aI2113
aI2573
aI2569
aI1371
aL0L
aa(lp2815
g364
aI2113
aI2573
aI2569
aI1371
aL0L
aa(lp2816
g364
aI2113
aI2573
aI2569
aI1371
aL0L
aa(lp2817
g364
aI2113
aI2573
aI2569
aI1371
aL0L
aa(lp2818
g364
aI2113
aI2573
aI2569
aI1371
aL0L
aa(lp2819
g364
aI2113
aI2573
aI2569
aI1371
aL0L
aa(lp2820
g364
aI2113
aI2573
aI2569
aI1371
aL0L
aa(lp2821
g364
aI2113
aI2573
aI2569
aI1371
aL0L
aa(lp2822
g364
aI2113
aI2573
aI2569
aI1371
aL0L
aa(lp2823
g364
aI2113
aI2573
aI2569
aI1371
aL0L
aa(lp2824
g360
aI581
aI407
aI1
aI368
aL0L
aa(lp2825
g364
aI2113
aI2573
aI2569
aI1371
aL0L
aa(lp2826
g360
aI581
aI407
aI1
aI368
aL0L
aa(lp2827
g364
aI2113
aI2573
aI2569
aI1371
aL0L
aa(lp2828
g364
aI2113
aI2573
aI2569
aI1371
aL0L
aa(lp2829
g364
aI2113
aI2573
aI2569
aI1371
aL0L
aa(lp2830
g364
aI2113
aI2573
aI2569
aI1371
aL0L
aa(lp2831
g364
aI2113
aI2573
aI2569
aI1371
aL0L
aa(lp2832
g364
aI2113
aI2573
aI2569
aI1371
aL0L
aa(lp2833
g364
aI2113
aI2573
aI2569
aI1371
aL0L
aa(lp2834
g364
aI2113
aI2573
aI2569
aI1371
aL0L
aa(lp2835
g364
aI2113
aI2573
aI2569
aI1371
aL0L
aa(lp2836
g364
aI2113
aI2573
aI2569
aI1371
aL0L
aa(lp2837
g364
aI2113
aI2573
aI2569
aI1371
aL0L
aa(lp2838
g364
aI2113
aI2573
aI2569
aI1371
aL0L
aa(lp2839
g364
aI2113
aI2573
aI2569
aI1371
aL0L
aa(lp2840
g364
aI2113
aI2573
aI2569
aI1371
aL0L
aa(lp2841
g364
aI2113
aI2573
aI2569
aI1371
aL0L
aa(lp2842
g364
aI2113
aI2573
aI2569
aI1371
aL0L
aa(lp2843
g364
aI2113
aI2573
aI2569
aI1371
aL0L
aa(lp2844
g364
aI2113
aI2573
aI2569
aI1371
aL0L
aa(lp2845
g364
aI2113
aI2573
aI2569
aI1371
aL0L
aa(lp2846
g364
aI2113
aI2573
aI2569
aI1371
aL0L
aa(lp2847
g364
aI2113
aI2573
aI2569
aI1371
aL0L
aa(lp2848
g364
aI2113
aI2573
aI2569
aI1371
aL0L
aa(lp2849
g364
aI2113
aI2573
aI2569
aI1371
aL0L
aa(lp2850
g364
aI2113
aI2573
aI2569
aI1371
aL0L
aa(lp2851
g364
aI2113
aI2573
aI2569
aI1371
aL0L
aa(lp2852
g364
aI2113
aI2573
aI2569
aI1371
aL0L
aa(lp2853
g364
aI2113
aI2573
aI2569
aI1371
aL0L
aa(lp2854
g364
aI2113
aI2573
aI2569
aI1371
aL0L
aa(lp2855
g364
aI2113
aI2573
aI2569
aI1371
aL0L
aa(lp2856
g364
aI2113
aI2573
aI2569
aI1371
aL0L
aa(lp2857
g360
aI581
aI407
aI2
aI368
aL0L
aa(lp2858
g360
aI581
aI407
aI1
aI368
aL0L
aa(lp2859
g360
aI581
aI20
aI1
aI164
aL0L
aa(lp2860
g364
aI2113
aI2573
aI2569
aI1371
aL0L
aa(lp2861
g364
aI2113
aI2573
aI2569
aI1371
aL0L
aa(lp2862
g364
aI2113
aI2573
aI2569
aI1371
aL0L
aa(lp2863
g364
aI2113
aI2573
aI2569
aI1371
aL0L
aa(lp2864
g364
aI2113
aI2573
aI2569
aI1371
aL0L
aa(lp2865
g364
aI2113
aI2573
aI2569
aI1371
aL0L
aa(lp2866
g364
aI2113
aI2573
aI2569
aI1371
aL0L
aa(lp2867
g364
aI2113
aI2573
aI2569
aI1371
aL0L
aa(lp2868
g364
aI2113
aI2573
aI2569
aI1371
aL0L
aa(lp2869
g364
aI2113
aI2573
aI2569
aI1371
aL0L
aa(lp2870
g364
aI2113
aI2573
aI2569
aI1371
aL0L
aa(lp2871
g364
aI2113
aI2573
aI2569
aI1371
aL0L
aa(lp2872
g364
aI2113
aI2573
aI2569
aI1371
aL0L
aa(lp2873
g364
aI2113
aI2573
aI2569
aI1371
aL0L
aa(lp2874
g364
aI2113
aI2573
aI2569
aI1371
aL0L
aa(lp2875
g364
aI2113
aI2573
aI2569
aI1371
aL0L
aa(lp2876
g364
aI2113
aI2573
aI2569
aI1371
aL0L
aa(lp2877
g364
aI2113
aI2573
aI2569
aI1371
aL0L
aa(lp2878
g364
aI2113
aI2573
aI2569
aI1371
aL0L
aa(lp2879
g364
aI2113
aI2573
aI2569
aI1371
aL0L
aa(lp2880
g364
aI2113
aI2573
aI2569
aI1371
aL0L
aa(lp2881
g364
aI2113
aI2573
aI2569
aI1371
aL0L
aa(lp2882
g364
aI2113
aI2573
aI2569
aI1371
aL0L
aa(lp2883
g364
aI2113
aI2573
aI2569
aI1371
aL0L
aa(lp2884
g364
aI2113
aI2573
aI2569
aI1371
aL0L
aa(lp2885
g364
aI2113
aI2573
aI2569
aI1371
aL0L
aa(lp2886
g364
aI2113
aI2573
aI2569
aI1371
aL0L
aa(lp2887
g364
aI2113
aI2573
aI2569
aI1371
aL0L
aa(lp2888
g364
aI2113
aI2573
aI2569
aI1371
aL0L
aa(lp2889
g364
aI2113
aI2573
aI2569
aI1371
aL0L
aa(lp2890
g364
aI2113
aI2573
aI2569
aI1371
aL0L
aa(lp2891
g364
aI2113
aI2573
aI2569
aI1371
aL0L
aa(lp2892
g364
aI2113
aI2573
aI2569
aI1371
aL0L
aa(lp2893
g364
aI2113
aI2573
aI2569
aI1371
aL0L
aa(lp2894
g364
aI2113
aI2573
aI2569
aI1371
aL0L
aa(lp2895
g364
aI2113
aI2573
aI2569
aI1371
aL0L
aa(lp2896
g364
aI2113
aI2573
aI2569
aI1371
aL0L
aa(lp2897
g364
aI2113
aI2573
aI2569
aI1371
aL0L
aa(lp2898
g364
aI2113
aI2573
aI2569
aI1371
aL0L
aa(lp2899
g360
aI581
aI3
aI1
aI164
aL0L
aa(lp2900
g360
aI581
aI3
aI1
aI164
aL0L
aa(lp2901
g360
aI581
aI1
aI1
aI164
aL0L
aa(lp2902
g364
aI2113
aI2573
aI2569
aI1371
aL0L
aa(lp2903
g364
aI2113
aI2573
aI2569
aI1371
aL0L
aa(lp2904
g364
aI2113
aI2573
aI2569
aI1371
aL0L
aa(lp2905
g364
aI2113
aI2573
aI2569
aI1371
aL0L
aa(lp2906
g364
aI2113
aI2573
aI2569
aI1371
aL0L
aa(lp2907
g364
aI2113
aI2573
aI2569
aI1371
aL0L
aa(lp2908
g364
aI2113
aI2573
aI2569
aI1371
aL0L
aa(lp2909
g364
aI2113
aI2573
aI2569
aI1371
aL0L
aa(lp2910
g364
aI2113
aI2573
aI2569
aI1371
aL0L
aa(lp2911
g364
aI2113
aI2573
aI2569
aI1371
aL0L
aa(lp2912
g364
aI2113
aI2573
aI2569
aI1371
aL0L
aa(lp2913
g364
aI2113
aI2573
aI2569
aI1371
aL0L
aa(lp2914
g364
aI2113
aI2573
aI2569
aI1371
aL0L
aa(lp2915
g364
aI2113
aI2573
aI2569
aI1371
aL0L
aa(lp2916
g364
aI2113
aI2573
aI2569
aI1371
aL0L
aa(lp2917
g364
aI2113
aI2573
aI2569
aI1371
aL0L
aa(lp2918
g364
aI2113
aI2573
aI2569
aI1371
aL0L
aa(lp2919
g364
aI2113
aI2573
aI2569
aI1371
aL0L
aa(lp2920
g364
aI2113
aI2573
aI2569
aI1371
aL0L
aa(lp2921
g364
aI2113
aI2573
aI2569
aI1371
aL0L
aa(lp2922
g364
aI2113
aI2573
aI2569
aI1371
aL0L
aa(lp2923
g364
aI2113
aI2573
aI2569
aI1371
aL0L
aa(lp2924
g364
aI2113
aI2573
aI2569
aI1371
aL0L
aa(lp2925
g364
aI2113
aI2573
aI2569
aI1371
aL0L
aa(lp2926
g364
aI2113
aI2573
aI2569
aI1371
aL0L
aa(lp2927
g364
aI2113
aI2573
aI2569
aI1371
aL0L
aa(lp2928
g364
aI2113
aI2573
aI2569
aI1371
aL0L
aa(lp2929
g364
aI2113
aI2573
aI2569
aI1371
aL0L
aa(lp2930
g360
aI581
aI407
aI1
aI368
aL0L
aa(lp2931
g360
aI581
aI407
aI1
aI368
aL0L
aa(lp2932
g360
aI581
aI407
aI1
aI368
aL0L
aa(lp2933
g360
aI581
aI407
aI1
aI368
aL0L
aa(lp2934
g360
aI581
aI407
aI1
aI368
aL0L
aa(lp2935
g360
aI581
aI30
aI1
aI164
aL0L
aa(lp2936
g364
aI2113
aI2573
aI2569
aI1371
aL0L
aa(lp2937
g364
aI2113
aI2573
aI2569
aI1371
aL0L
aa(lp2938
g364
aI2113
aI2573
aI2569
aI1371
aL0L
aa(lp2939
g360
aI581
aI407
aI1
aI368
aL0L
aa(lp2940
g360
aI581
aI407
aI1
aI368
aL0L
aa(lp2941
g360
aI581
aI27
aI1
aI164
aL0L
aa(lp2942
g364
aI2113
aI2573
aI2569
aI1371
aL0L
aa(lp2943
g364
aI2113
aI2573
aI2569
aI1371
aL0L
aa(lp2944
g364
aI2113
aI2573
aI2569
aI1371
aL0L
aa(lp2945
g364
aI2113
aI2573
aI2569
aI1371
aL0L
aa(lp2946
g364
aI2113
aI2573
aI2569
aI1371
aL0L
aa(lp2947
g364
aI2113
aI2573
aI2569
aI1371
aL0L
aa(lp2948
g364
aI2113
aI2573
aI2569
aI1371
aL0L
aa(lp2949
g364
aI2113
aI2573
aI2569
aI1371
aL0L
aa(lp2950
g364
aI2113
aI2573
aI2569
aI1371
aL0L
aa(lp2951
g364
aI2113
aI2573
aI2569
aI1371
aL0L
aa(lp2952
g364
aI2113
aI2573
aI2569
aI1371
aL0L
aa(lp2953
g364
aI2113
aI2573
aI2569
aI1371
aL0L
aa(lp2954
g364
aI2113
aI2573
aI2569
aI1371
aL0L
aa(lp2955
g360
aI581
aI407
aI1
aI368
aL0L
aa(lp2956
g360
aI581
aI407
aI1
aI368
aL0L
aa(lp2957
g360
aI581
aI407
aI1
aI368
aL0L
aa(lp2958
g364
aI2113
aI2573
aI2569
aI1371
aL0L
aa(lp2959
g364
aI2113
aI2573
aI2569
aI1371
aL0L
aa(lp2960
g364
aI2113
aI2573
aI2569
aI1371
aL0L
aa(lp2961
g364
aI2113
aI2573
aI2569
aI1371
aL0L
aa(lp2962
g364
aI2113
aI2573
aI2569
aI1371
aL0L
aa(lp2963
g364
aI2113
aI2573
aI2569
aI1371
aL0L
aa(lp2964
g364
aI2113
aI2573
aI2569
aI1371
aL0L
aa(lp2965
g364
aI2113
aI2573
aI2569
aI1371
aL0L
aa(lp2966
g364
aI2113
aI2573
aI2569
aI1371
aL0L
aa(lp2967
g364
aI2113
aI2573
aI2569
aI1371
aL0L
aa(lp2968
g364
aI2113
aI2573
aI2569
aI1371
aL0L
aa(lp2969
g364
aI2113
aI2573
aI2569
aI1371
aL0L
aa(lp2970
g364
aI2113
aI2573
aI2569
aI1371
aL0L
aa(lp2971
g364
aI2113
aI2573
aI2569
aI1371
aL0L
aa(lp2972
g364
aI2113
aI2573
aI2569
aI1371
aL0L
aa(lp2973
g364
aI2113
aI2573
aI2569
aI1371
aL0L
aa(lp2974
g364
aI2113
aI2573
aI2569
aI1371
aL0L
aa(lp2975
g364
aI2113
aI2573
aI2569
aI1371
aL0L
aa(lp2976
g364
aI2113
aI2573
aI2569
aI1371
aL0L
aa(lp2977
g364
aI2113
aI2573
aI2569
aI1371
aL0L
aa(lp2978
g364
aI2113
aI2573
aI2569
aI1371
aL0L
aa(lp2979
g364
aI2113
aI2573
aI2569
aI1371
aL0L
aa(lp2980
g360
aI581
aI407
aI1
aI368
aL0L
aa(lp2981
g360
aI581
aI407
aI1
aI368
aL0L
aa(lp2982
g360
aI581
aI407
aI1
aI368
aL0L
aa(lp2983
g364
aI2113
aI2573
aI2569
aI1371
aL0L
aa(lp2984
g364
aI2113
aI2573
aI2569
aI1371
aL0L
aa(lp2985
g364
aI2113
aI2573
aI2569
aI1371
aL0L
aa(lp2986
g364
aI2113
aI2573
aI2569
aI1371
aL0L
aa(lp2987
g364
aI2113
aI2573
aI2569
aI1371
aL0L
aa(lp2988
g364
aI2113
aI2573
aI2569
aI1371
aL0L
aa(lp2989
g364
aI2113
aI2573
aI2569
aI1371
aL0L
aa(lp2990
g364
aI2113
aI2573
aI2569
aI1371
aL0L
aa(lp2991
g364
aI2113
aI2573
aI2569
aI1371
aL0L
aa(lp2992
g364
aI2113
aI2573
aI2569
aI1371
aL0L
aa(lp2993
g364
aI2113
aI2573
aI2569
aI1371
aL0L
aa(lp2994
g364
aI2113
aI2573
aI2569
aI1371
aL0L
aa(lp2995
g364
aI2113
aI2573
aI2569
aI1371
aL0L
aa(lp2996
g364
aI2113
aI2573
aI2569
aI1371
aL0L
aa(lp2997
g364
aI2113
aI2573
aI2569
aI1371
aL0L
aa(lp2998
g364
aI2113
aI2573
aI2569
aI1371
aL0L
aa(lp2999
g364
aI2113
aI2573
aI2569
aI1371
aL0L
aa(lp3000
g364
aI2113
aI2573
aI2569
aI1371
aL0L
aa(lp3001
g364
aI2113
aI2573
aI2569
aI1371
aL0L
aa(lp3002
g364
aI2113
aI2573
aI2569
aI1371
aL0L
aa(lp3003
g364
aI2113
aI2573
aI2569
aI1371
aL0L
aa(lp3004
g364
aI2113
aI2573
aI2569
aI1371
aL0L
aa(lp3005
g364
aI2113
aI2573
aI2569
aI1371
aL0L
aa(lp3006
g364
aI2113
aI2573
aI2569
aI1371
aL0L
aa(lp3007
g364
aI2113
aI2573
aI2569
aI1371
aL0L
aa(lp3008
g364
aI2113
aI2573
aI2569
aI1371
aL0L
aa(lp3009
g364
aI2113
aI2573
aI2569
aI1371
aL0L
aa(lp3010
g364
aI2113
aI2573
aI2569
aI1371
aL0L
aa(lp3011
g364
aI2113
aI2573
aI2569
aI1371
aL0L
aa(lp3012
g364
aI2113
aI2573
aI2569
aI1371
aL0L
aa(lp3013
g364
aI2113
aI2573
aI2569
aI1371
aL0L
aa(lp3014
g364
aI2113
aI2573
aI2569
aI1371
aL0L
aa(lp3015
g364
aI2113
aI2573
aI2569
aI1371
aL0L
aa(lp3016
g364
aI2113
aI2573
aI2569
aI1371
aL0L
aa(lp3017
g360
aI581
aI407
aI1
aI368
aL0L
aa(lp3018
g360
aI581
aI407
aI1
aI368
aL0L
aa(lp3019
g360
aI581
aI27
aI1
aI164
aL0L
aa(lp3020
g364
aI2113
aI2573
aI2569
aI1371
aL0L
aa(lp3021
g364
aI2113
aI2573
aI2569
aI1371
aL0L
aa(lp3022
g364
aI2113
aI2573
aI2569
aI1371
aL0L
aa(lp3023
g364
aI2113
aI2573
aI2569
aI1371
aL0L
aa(lp3024
g364
aI2113
aI2573
aI2569
aI1371
aL0L
aa(lp3025
g364
aI2113
aI2573
aI2569
aI1371
aL0L
aa(lp3026
g364
aI2113
aI2573
aI2569
aI1371
aL0L
aa(lp3027
g364
aI2113
aI2573
aI2569
aI1371
aL0L
aa(lp3028
g364
aI2113
aI2573
aI2569
aI1371
aL0L
aa(lp3029
g364
aI2113
aI2573
aI2569
aI1371
aL0L
aa(lp3030
g364
aI2113
aI2573
aI2569
aI1371
aL0L
aa(lp3031
g364
aI2113
aI2573
aI2569
aI1371
aL0L
aa(lp3032
g364
aI2113
aI2573
aI2569
aI1371
aL0L
aa(lp3033
g364
aI2113
aI2573
aI2569
aI1371
aL0L
aa(lp3034
g364
aI2113
aI2573
aI2569
aI1371
aL0L
aa(lp3035
g364
aI2113
aI2573
aI2569
aI1371
aL0L
aa(lp3036
g364
aI2113
aI2573
aI2569
aI1371
aL0L
aa(lp3037
g364
aI2113
aI2573
aI2569
aI1371
aL0L
aa(lp3038
g364
aI2113
aI2573
aI2569
aI1371
aL0L
aa(lp3039
g364
aI2113
aI2573
aI2569
aI1371
aL0L
aa(lp3040
g364
aI2113
aI2573
aI2569
aI1371
aL0L
aa(lp3041
g364
aI2113
aI2573
aI2569
aI1371
aL0L
aa(lp3042
g364
aI2113
aI2573
aI2569
aI1371
aL0L
aa(lp3043
g364
aI2113
aI2573
aI2569
aI1371
aL0L
aa(lp3044
g364
aI2113
aI2573
aI2569
aI1371
aL0L
aa(lp3045
g364
aI2113
aI2573
aI2569
aI1371
aL0L
aa(lp3046
g364
aI2113
aI2573
aI2569
aI1371
aL0L
aa(lp3047
g364
aI2113
aI2573
aI2569
aI1371
aL0L
aa(lp3048
g364
aI2113
aI2573
aI2569
aI1371
aL0L
aa(lp3049
g364
aI2113
aI2573
aI2569
aI1371
aL0L
aa(lp3050
g364
aI2113
aI2573
aI2569
aI1371
aL0L
aa(lp3051
g364
aI2113
aI2573
aI2569
aI1371
aL0L
aa(lp3052
g360
aI581
aI407
aI1
aI368
aL0L
aa(lp3053
g360
aI581
aI407
aI1
aI368
aL0L
aa(lp3054
g360
aI581
aI407
aI1
aI368
aL0L
aa(lp3055
g364
aI2113
aI2573
aI2569
aI1371
aL0L
aa(lp3056
g364
aI2113
aI2573
aI2569
aI1371
aL0L
aa(lp3057
g364
aI2113
aI2573
aI2569
aI1371
aL0L
aa(lp3058
g364
aI2113
aI2573
aI2569
aI1371
aL0L
aa(lp3059
g364
aI2113
aI2573
aI2569
aI1371
aL0L
aa(lp3060
g364
aI2113
aI2573
aI2569
aI1371
aL0L
aa(lp3061
g364
aI2113
aI2573
aI2569
aI1371
aL0L
aa(lp3062
g364
aI2113
aI2573
aI2569
aI1371
aL0L
aa(lp3063
g364
aI2113
aI2573
aI2569
aI1371
aL0L
aa(lp3064
g364
aI2113
aI2573
aI2569
aI1371
aL0L
aa(lp3065
g364
aI2113
aI2573
aI2569
aI1371
aL0L
aa(lp3066
g364
aI2113
aI2573
aI2569
aI1371
aL0L
aa(lp3067
g364
aI2113
aI2573
aI2569
aI1371
aL0L
aa(lp3068
g364
aI2113
aI2573
aI2569
aI1371
aL0L
aa(lp3069
g364
aI2113
aI2573
aI2569
aI1371
aL0L
aa(lp3070
g364
aI2113
aI2573
aI2569
aI1371
aL0L
aa(lp3071
g364
aI2113
aI2573
aI2569
aI1371
aL0L
aa(lp3072
g364
aI2113
aI2573
aI2569
aI1371
aL0L
aa(lp3073
g364
aI2113
aI2573
aI2569
aI1371
aL0L
aa(lp3074
g364
aI2113
aI2573
aI2569
aI1371
aL0L
aa(lp3075
g364
aI2113
aI2573
aI2569
aI1371
aL0L
aa(lp3076
g364
aI2113
aI2573
aI2569
aI1371
aL0L
aa(lp3077
g364
aI2113
aI2573
aI2569
aI1371
aL0L
aa(lp3078
g364
aI2113
aI2573
aI2569
aI1371
aL0L
aa(lp3079
g364
aI2113
aI2573
aI2569
aI1371
aL0L
aa(lp3080
g364
aI2113
aI2573
aI2569
aI1371
aL0L
aa(lp3081
g364
aI2113
aI2573
aI2569
aI1371
aL0L
aa(lp3082
g364
aI2113
aI2573
aI2569
aI1371
aL0L
aa(lp3083
g364
aI2113
aI2573
aI2569
aI1371
aL0L
aa(lp3084
g364
aI2113
aI2573
aI2569
aI1371
aL0L
aa(lp3085
g364
aI2113
aI2573
aI2569
aI1371
aL0L
aa(lp3086
g364
aI2113
aI2573
aI2569
aI1371
aL0L
aa(lp3087
g364
aI2113
aI2573
aI2569
aI1371
aL0L
aa(lp3088
g364
aI2113
aI2573
aI2569
aI1371
aL0L
aa(lp3089
g364
aI2113
aI2573
aI2569
aI1371
aL0L
aa(lp3090
g364
aI2113
aI2573
aI2569
aI1371
aL0L
aa(lp3091
g364
aI2113
aI2573
aI2569
aI1371
aL0L
aa(lp3092
g364
aI2113
aI2573
aI2569
aI1371
aL0L
aa(lp3093
g360
aI581
aI407
aI1
aI368
aL0L
aa(lp3094
g360
aI581
aI407
aI1
aI368
aL0L
aa(lp3095
g360
aI581
aI18
aI1
aI164
aL0L
aa(lp3096
g364
aI2113
aI2573
aI2569
aI1371
aL0L
aa(lp3097
g364
aI2113
aI2573
aI2569
aI1371
aL0L
aa(lp3098
g364
aI2113
aI2573
aI2569
aI1371
aL0L
aa(lp3099
g364
aI2113
aI2573
aI2569
aI1371
aL0L
aa(lp3100
g364
aI2113
aI2573
aI2569
aI1371
aL0L
aa(lp3101
g364
aI2113
aI2573
aI2569
aI1371
aL0L
aa(lp3102
g364
aI2113
aI2573
aI2569
aI1371
aL0L
aa(lp3103
g364
aI2113
aI2573
aI2569
aI1371
aL0L
aa(lp3104
g364
aI2113
aI2573
aI2569
aI1371
aL0L
aa(lp3105
g364
aI2113
aI2573
aI2569
aI1371
aL0L
aa(lp3106
g364
aI2113
aI2573
aI2569
aI1371
aL0L
aa(lp3107
g364
aI2113
aI2573
aI2569
aI1371
aL0L
aa(lp3108
g364
aI2113
aI2573
aI2569
aI1371
aL0L
aa(lp3109
g364
aI2113
aI2573
aI2569
aI1371
aL0L
aa(lp3110
g364
aI2113
aI2573
aI2569
aI1371
aL0L
aa(lp3111
g364
aI2113
aI2573
aI2569
aI1371
aL0L
aa(lp3112
g364
aI2113
aI2573
aI2569
aI1371
aL0L
aa(lp3113
g364
aI2113
aI2573
aI2569
aI1371
aL0L
aa(lp3114
g364
aI2113
aI2573
aI2569
aI1371
aL0L
aa(lp3115
g364
aI2113
aI2573
aI2569
aI1371
aL0L
aa(lp3116
g364
aI2113
aI2573
aI2569
aI1371
aL0L
aa(lp3117
g364
aI2113
aI2573
aI2569
aI1371
aL0L
aa(lp3118
g364
aI2113
aI2573
aI2569
aI1371
aL0L
aa(lp3119
g364
aI2113
aI2573
aI2569
aI1371
aL0L
aa(lp3120
g364
aI2113
aI2573
aI2569
aI1371
aL0L
aa(lp3121
g364
aI2113
aI2573
aI2569
aI1371
aL0L
aa(lp3122
g364
aI2113
aI2573
aI2569
aI1371
aL0L
aa(lp3123
g364
aI2113
aI2573
aI2569
aI1371
aL0L
aa(lp3124
g364
aI2113
aI2573
aI2569
aI1371
aL0L
aa(lp3125
g364
aI2113
aI2573
aI2569
aI1371
aL0L
aa(lp3126
g364
aI2113
aI2573
aI2569
aI1371
aL0L
aa(lp3127
g364
aI2113
aI2573
aI2569
aI1371
aL0L
aa(lp3128
g364
aI2113
aI2573
aI2569
aI1371
aL0L
aa(lp3129
g364
aI2113
aI2573
aI2569
aI1371
aL0L
aa(lp3130
g364
aI2113
aI2573
aI2569
aI1371
aL0L
aa(lp3131
g364
aI2113
aI2573
aI2569
aI1371
aL0L
aa(lp3132
g364
aI2113
aI2573
aI2569
aI1371
aL0L
aa(lp3133
g364
aI2113
aI2573
aI2569
aI1371
aL0L
aa(lp3134
g364
aI2113
aI2573
aI2569
aI1371
aL0L
aa(lp3135
g364
aI2113
aI2573
aI2569
aI1371
aL0L
aa(lp3136
g364
aI2113
aI2573
aI2569
aI1371
aL0L
aa(lp3137
g364
aI2113
aI2573
aI2569
aI1371
aL0L
aa(lp3138
g364
aI2113
aI2573
aI2569
aI1371
aL0L
aa(lp3139
g364
aI2113
aI2573
aI2569
aI1371
aL0L
aa(lp3140
g364
aI2113
aI2573
aI2569
aI1371
aL0L
aa(lp3141
g364
aI2113
aI2573
aI2569
aI1371
aL0L
aa(lp3142
g364
aI2113
aI2573
aI2569
aI1371
aL0L
aa(lp3143
g364
aI2113
aI2573
aI2569
aI1371
aL0L
aa(lp3144
g364
aI2113
aI2573
aI2569
aI1371
aL0L
aa(lp3145
g364
aI2113
aI2573
aI2569
aI1371
aL0L
aa(lp3146
g364
aI2113
aI2573
aI2569
aI1371
aL0L
aa(lp3147
g364
aI2113
aI2573
aI2569
aI1371
aL0L
aa(lp3148
g364
aI2113
aI2573
aI2569
aI1371
aL0L
aa(lp3149
g364
aI2113
aI2573
aI2569
aI1371
aL0L
aa(lp3150
g364
aI2113
aI2573
aI2569
aI1371
aL0L
aa(lp3151
g364
aI2113
aI2573
aI2569
aI1371
aL0L
aa(lp3152
g364
aI2113
aI2573
aI2569
aI1371
aL0L
aa(lp3153
g364
aI2113
aI2573
aI2569
aI1371
aL0L
aa(lp3154
g364
aI2113
aI2573
aI2569
aI1371
aL0L
aa(lp3155
g364
aI2113
aI2573
aI2569
aI1371
aL0L
aa(lp3156
g364
aI2113
aI2573
aI2569
aI1371
aL0L
aa(lp3157
g364
aI2113
aI2573
aI2569
aI1371
aL0L
aa(lp3158
g364
aI2113
aI2573
aI2569
aI1371
aL0L
aa(lp3159
g364
aI2113
aI2573
aI2569
aI1371
aL0L
aa(lp3160
g364
aI2113
aI2573
aI2569
aI1371
aL0L
aa(lp3161
g364
aI2113
aI2573
aI2569
aI1371
aL0L
aa(lp3162
g364
aI2113
aI2573
aI2569
aI1371
aL0L
aa(lp3163
g364
aI2113
aI2573
aI2569
aI1371
aL0L
aa(lp3164
g364
aI2113
aI2573
aI2569
aI1371
aL0L
aa(lp3165
g364
aI2113
aI2573
aI2569
aI1371
aL0L
aa(lp3166
g360
aI581
aI407
aI1
aI368
aL0L
aa(lp3167
g360
aI581
aI407
aI1
aI368
aL0L
aa(lp3168
g360
aI581
aI20
aI1
aI164
aL0L
aa(lp3169
g364
aI2113
aI2573
aI2569
aI1371
aL0L
aa(lp3170
g364
aI2113
aI2573
aI2569
aI1371
aL0L
aa(lp3171
g364
aI2113
aI2573
aI2569
aI1371
aL0L
aa(lp3172
g364
aI2113
aI2573
aI2569
aI1371
aL0L
aa(lp3173
g364
aI2113
aI2573
aI2569
aI1371
aL0L
aa(lp3174
g360
aI581
aI407
aI1
aI368
aL0L
aa(lp3175
g360
aI581
aI407
aI1
aI368
aL0L
aa(lp3176
g360
aI581
aI30
aI1
aI164
aL0L
aa(lp3177
g364
aI2113
aI2573
aI2569
aI1371
aL0L
aa(lp3178
g364
aI2113
aI2573
aI2569
aI1371
aL0L
aa(lp3179
g364
aI2113
aI2573
aI2569
aI1371
aL0L
aa(lp3180
g364
aI2113
aI2573
aI2569
aI1371
aL0L
aa(lp3181
g364
aI2113
aI2573
aI2569
aI1371
aL0L
aa(lp3182
g364
aI2113
aI2573
aI2569
aI1371
aL0L
aa(lp3183
g364
aI2113
aI2573
aI2569
aI1371
aL0L
aa(lp3184
g364
aI2113
aI2573
aI2569
aI1371
aL0L
aa(lp3185
g364
aI2113
aI2573
aI2569
aI1371
aL0L
aa(lp3186
g364
aI2113
aI2573
aI2569
aI1371
aL0L
aa(lp3187
g364
aI2113
aI2573
aI2569
aI1371
aL0L
aa(lp3188
g364
aI2113
aI2573
aI2569
aI1371
aL0L
aa(lp3189
g364
aI2113
aI2573
aI2569
aI1371
aL0L
aa(lp3190
g364
aI2113
aI2573
aI2569
aI1371
aL0L
aa(lp3191
g364
aI2113
aI2573
aI2569
aI1371
aL0L
aa(lp3192
g364
aI2113
aI2573
aI2569
aI1371
aL0L
aa(lp3193
g364
aI2113
aI2573
aI2569
aI1371
aL0L
aa(lp3194
g364
aI2113
aI2573
aI2569
aI1371
aL0L
aa(lp3195
g364
aI2113
aI2573
aI2569
aI1371
aL0L
aa(lp3196
g364
aI2113
aI2573
aI2569
aI1371
aL0L
aa(lp3197
g364
aI2113
aI2573
aI2569
aI1371
aL0L
aa(lp3198
g364
aI2113
aI2573
aI2569
aI1371
aL0L
aa(lp3199
g364
aI2113
aI2573
aI2569
aI1371
aL0L
aa(lp3200
g364
aI2113
aI2573
aI2569
aI1371
aL0L
aa(lp3201
g364
aI2113
aI2573
aI2569
aI1371
aL0L
aa(lp3202
g364
aI2113
aI2573
aI2569
aI1371
aL0L
aa(lp3203
g364
aI2113
aI2573
aI2569
aI1371
aL0L
aa(lp3204
g364
aI2113
aI2573
aI2569
aI1371
aL0L
aa(lp3205
g364
aI2113
aI2573
aI2569
aI1371
aL0L
aa(lp3206
g364
aI2113
aI2573
aI2569
aI1371
aL0L
aa(lp3207
g364
aI2113
aI2573
aI2569
aI1371
aL0L
aa(lp3208
g364
aI2113
aI2573
aI2569
aI1371
aL0L
aa(lp3209
g364
aI2113
aI2573
aI2569
aI1371
aL0L
aa(lp3210
g364
aI2113
aI2573
aI2569
aI1371
aL0L
aa(lp3211
g364
aI2113
aI2573
aI2569
aI1371
aL0L
aa(lp3212
g364
aI2113
aI2573
aI2569
aI1371
aL0L
aa(lp3213
g364
aI2113
aI2573
aI2569
aI1371
aL0L
aa(lp3214
g364
aI2113
aI2573
aI2569
aI1371
aL0L
aa(lp3215
g364
aI2113
aI2573
aI2569
aI1371
aL0L
aa(lp3216
g364
aI2113
aI2573
aI2569
aI1371
aL0L
aa(lp3217
g364
aI2113
aI2573
aI2569
aI1371
aL0L
aa(lp3218
g364
aI2113
aI2573
aI2569
aI1371
aL0L
aa(lp3219
g364
aI2113
aI2573
aI2569
aI1371
aL0L
aa(lp3220
g364
aI2113
aI2573
aI2569
aI1371
aL0L
aa(lp3221
g364
aI2113
aI2573
aI2569
aI1371
aL0L
aa(lp3222
g360
aI581
aI407
aI1
aI368
aL0L
aa(lp3223
g360
aI581
aI407
aI1
aI368
aL0L
aa(lp3224
g360
aI581
aI20
aI1
aI164
aL0L
aa.