(lp0
(lp1
S'147.32.84.170'
p2
aI807
aI42
aI1
aI229
aL0L
aa(lp3
g2
aI807
aI1197
aI1
aI535
aL0L
aa(lp4
g2
aI807
aI1197
aI1
aI535
aL0L
aa(lp5
g2
aI807
aI31
aI1
aI229
aL0L
aa(lp6
S'147.32.84.164'
p7
aI520
aI2
aI1
aI1
aL0L
aa(lp8
g7
aI520
aI1
aI1
aI8
aL0L
aa(lp9
g7
aI520
aI1
aI1
aI8
aL0L
aa(lp10
g7
aI520
aI1
aI1
aI8
aL0L
aa(lp11
g7
aI520
aI1
aI1
aI8
aL0L
aa(lp12
g2
aI807
aI1
aI1
aI2
aL0L
aa(lp13
g2
aI807
aI1197
aI1
aI535
aL0L
aa(lp14
g2
aI807
aI1197
aI1
aI535
aL0L
aa(lp15
g2
aI807
aI31
aI1
aI229
aL0L
aa(lp16
g2
aI807
aI4
aI1
aI229
aL0L
aa(lp17
g2
aI807
aI2
aI1
aI41
aL0L
aa(lp18
g2
aI807
aI1
aI1
aI41
aL0L
aa(lp19
g2
aI807
aI2
aI1
aI2
aL0L
aa(lp20
g2
aI807
aI1197
aI1
aI535
aL0L
aa(lp21
g2
aI807
aI1197
aI1
aI535
aL0L
aa(lp22
g2
aI807
aI56
aI1
aI229
aL0L
aa(lp23
g7
aI520
aI13
aI1
aI8
aL0L
aa(lp24
g7
aI520
aI1
aI1
aI108
aL0L
aa(lp25
g7
aI520
aI56
aI1
aI108
aL0L
aa(lp26
S'147.32.84.134'
p27
aI292
aI1
aI1
aI1
aL0L
aa(lp28
g27
aI292
aI1
aI1
aI40
aL0L
aa(lp29
g2
aI807
aI1197
aI1
aI535
aL0L
aa(lp30
g2
aI807
aI1197
aI1
aI535
aL0L
aa(lp31
g2
aI807
aI42
aI1
aI229
aL0L
aa(lp32
g2
aI807
aI1197
aI1
aI535
aL0L
aa(lp33
g2
aI807
aI1197
aI1
aI535
aL0L
aa(lp34
g2
aI807
aI56
aI1
aI229
aL0L
aa(lp35
g2
aI807
aI31
aI1
aI41
aL0L
aa(lp36
g2
aI807
aI31
aI1
aI41
aL0L
aa(lp37
g2
aI807
aI31
aI1
aI41
aL0L
aa(lp38
g2
aI807
aI31
aI1
aI41
aL0L
aa(lp39
g2
aI807
aI31
aI1
aI41
aL0L
aa(lp40
g2
aI807
aI31
aI1
aI41
aL0L
aa(lp41
g2
aI807
aI1197
aI1
aI535
aL0L
aa(lp42
g2
aI807
aI1197
aI1
aI535
aL0L
aa(lp43
g2
aI807
aI56
aI1
aI229
aL0L
aa(lp44
g27
aI292
aI1197
aI1
aI193
aL0L
aa(lp45
g27
aI292
aI1197
aI1
aI193
aL0L
aa(lp46
g27
aI292
aI17
aI1
aI57
aL0L
aa(lp47
g27
aI292
aI17
aI1
aI57
aL0L
aa(lp48
g27
aI292
aI17
aI1
aI57
aL0L
aa(lp49
g27
aI292
aI17
aI1
aI57
aL0L
aa(lp50
g27
aI292
aI1197
aI3
aI193
aL0L
aa(lp51
g27
aI292
aI1197
aI1
aI193
aL0L
aa(lp52
g27
aI292
aI1197
aI1
aI193
aL0L
aa(lp53
g27
aI292
aI24
aI1
aI57
aL0L
aa(lp54
g27
aI292
aI1197
aI1
aI193
aL0L
aa(lp55
g27
aI292
aI1197
aI1
aI193
aL0L
aa(lp56
g27
aI292
aI1197
aI1
aI193
aL0L
aa(lp57
g27
aI292
aI1197
aI1
aI193
aL0L
aa(lp58
g27
aI292
aI1197
aI1
aI193
aL0L
aa(lp59
g27
aI292
aI1197
aI1
aI193
aL0L
aa(lp60
g27
aI292
aI1197
aI1
aI193
aL0L
aa(lp61
g27
aI292
aI15
aI1
aI57
aL0L
aa(lp62
g27
aI292
aI23
aI1
aI57
aL0L
aa(lp63
g27
aI292
aI1197
aI1
aI193
aL0L
aa(lp64
g27
aI292
aI1197
aI2
aI193
aL0L
aa(lp65
g27
aI292
aI17
aI1
aI57
aL0L
aa(lp66
g27
aI292
aI8
aI1
aI57
aL0L
aa(lp67
g27
aI292
aI1197
aI1
aI193
aL0L
aa(lp68
g27
aI292
aI1197
aI1
aI193
aL0L
aa(lp69
g27
aI292
aI24
aI1
aI57
aL0L
aa(lp70
g27
aI292
aI8
aI1
aI57
aL0L
aa(lp71
g27
aI292
aI8
aI1
aI57
aL0L
aa(lp72
g27
aI292
aI8
aI1
aI57
aL0L
aa(lp73
g27
aI292
aI8
aI1
aI57
aL0L
aa(lp74
g27
aI292
aI8
aI1
aI57
aL0L
aa(lp75
g27
aI292
aI24
aI1
aI57
aL0L
aa(lp76
g27
aI292
aI24
aI1
aI57
aL0L
aa(lp77
g27
aI292
aI24
aI1
aI57
aL0L
aa(lp78
g27
aI292
aI24
aI1
aI57
aL0L
aa(lp79
g27
aI292
aI24
aI1
aI57
aL0L
aa(lp80
g27
aI292
aI17
aI1
aI57
aL0L
aa(lp81
g27
aI292
aI17
aI1
aI57
aL0L
aa(lp82
g27
aI292
aI17
aI1
aI57
aL0L
aa(lp83
g27
aI292
aI17
aI1
aI57
aL0L
aa(lp84
g27
aI292
aI17
aI1
aI57
aL0L
aa(lp85
g27
aI292
aI1197
aI1
aI193
aL0L
aa(lp86
g27
aI292
aI1197
aI1
aI193
aL0L
aa(lp87
g27
aI292
aI1197
aI1
aI193
aL0L
aa(lp88
g27
aI292
aI1197
aI1
aI193
aL0L
aa(lp89
g27
aI292
aI1197
aI2
aI193
aL0L
aa(lp90
g27
aI292
aI1197
aI2
aI193
aL0L
aa(lp91
g27
aI292
aI1197
aI1
aI193
aL0L
aa(lp92
g27
aI292
aI1197
aI1
aI193
aL0L
aa(lp93
g27
aI292
aI1197
aI2
aI193
aL0L
aa(lp94
g27
aI292
aI1197
aI1
aI193
aL0L
aa(lp95
g27
aI292
aI1197
aI1
aI193
aL0L
aa(lp96
g27
aI292
aI1197
aI1
aI193
aL0L
aa(lp97
g27
aI292
aI1197
aI1
aI193
aL0L
aa(lp98
g27
aI292
aI1197
aI1
aI193
aL0L
aa(lp99
g27
aI292
aI1197
aI1
aI193
aL0L
aa(lp100
g27
aI292
aI1197
aI1
aI193
aL0L
aa(lp101
g27
aI292
aI1197
aI1
aI193
aL0L
aa(lp102
g27
aI292
aI1197
aI1
aI193
aL0L
aa(lp103
g27
aI292
aI1197
aI1
aI193
aL0L
aa(lp104
g27
aI292
aI1197
aI1
aI193
aL0L
aa(lp105
g27
aI292
aI1197
aI1
aI193
aL0L
aa(lp106
g27
aI292
aI1197
aI1
aI193
aL0L
aa(lp107
g27
aI292
aI1197
aI2
aI193
aL0L
aa(lp108
g27
aI292
aI1197
aI1
aI193
aL0L
aa(lp109
g27
aI292
aI1197
aI1
aI193
aL0L
aa(lp110
g27
aI292
aI1197
aI1
aI193
aL0L
aa(lp111
g27
aI292
aI1197
aI1
aI193
aL0L
aa(lp112
g27
aI292
aI1197
aI1
aI193
aL0L
aa(lp113
g27
aI292
aI1197
aI1
aI193
aL0L
aa(lp114
g27
aI292
aI1197
aI1
aI193
aL0L
aa(lp115
g27
aI292
aI1197
aI1
aI193
aL0L
aa(lp116
g27
aI292
aI1197
aI1
aI193
aL0L
aa(lp117
g2
aI807
aI1197
aI1
aI535
aL0L
aa(lp118
g2
aI807
aI1197
aI1
aI535
aL0L
aa(lp119
g2
aI807
aI39
aI1
aI229
aL0L
aa(lp120
g27
aI292
aI1197
aI1
aI193
aL0L
aa(lp121
g27
aI292
aI1197
aI1
aI193
aL0L
aa(lp122
g27
aI292
aI1197
aI1
aI193
aL0L
aa(lp123
g27
aI292
aI1197
aI1
aI193
aL0L
aa(lp124
g27
aI292
aI1197
aI1
aI193
aL0L
aa(lp125
g27
aI292
aI1197
aI1
aI193
aL0L
aa(lp126
g27
aI292
aI4
aI1
aI57
aL0L
aa(lp127
g27
aI292
aI17
aI1
aI40
aL0L
aa(lp128
g27
aI292
aI1197
aI1
aI193
aL0L
aa(lp129
g27
aI292
aI1197
aI2
aI193
aL0L
aa(lp130
g27
aI292
aI2
aI1
aI57
aL0L
aa(lp131
g27
aI292
aI2
aI1
aI57
aL0L
aa(lp132
g27
aI292
aI1197
aI1
aI193
aL0L
aa(lp133
g27
aI292
aI1197
aI1
aI193
aL0L
aa(lp134
g27
aI292
aI15
aI1
aI40
aL0L
aa(lp135
g27
aI292
aI15
aI1
aI40
aL0L
aa(lp136
g27
aI292
aI15
aI1
aI40
aL0L
aa(lp137
g27
aI292
aI15
aI1
aI40
aL0L
aa(lp138
g27
aI292
aI15
aI1
aI40
aL0L
aa(lp139
g27
aI292
aI15
aI1
aI40
aL0L
aa(lp140
g27
aI292
aI1197
aI1
aI193
aL0L
aa(lp141
g27
aI292
aI1197
aI1
aI193
aL0L
aa(lp142
g27
aI292
aI1197
aI1
aI193
aL0L
aa(lp143
g27
aI292
aI1197
aI1
aI193
aL0L
aa(lp144
g27
aI292
aI7
aI1
aI40
aL0L
aa(lp145
g27
aI292
aI7
aI1
aI40
aL0L
aa(lp146
g27
aI292
aI7
aI1
aI40
aL0L
aa(lp147
g27
aI292
aI7
aI1
aI40
aL0L
aa(lp148
g27
aI292
aI7
aI1
aI40
aL0L
aa(lp149
g27
aI292
aI7
aI1
aI40
aL0L
aa(lp150
g27
aI292
aI1197
aI1
aI193
aL0L
aa(lp151
g27
aI292
aI1197
aI1
aI193
aL0L
aa(lp152
g27
aI292
aI1197
aI1
aI193
aL0L
aa(lp153
g27
aI292
aI24
aI1
aI40
aL0L
aa(lp154
g27
aI292
aI24
aI1
aI40
aL0L
aa(lp155
g27
aI292
aI24
aI1
aI40
aL0L
aa(lp156
g27
aI292
aI24
aI1
aI40
aL0L
aa(lp157
g27
aI292
aI24
aI1
aI40
aL0L
aa(lp158
g27
aI292
aI1197
aI1
aI193
aL0L
aa(lp159
g27
aI292
aI23
aI1
aI40
aL0L
aa(lp160
g27
aI292
aI23
aI1
aI40
aL0L
aa(lp161
g27
aI292
aI1197
aI1
aI193
aL0L
aa(lp162
g27
aI292
aI15
aI1
aI40
aL0L
aa(lp163
g27
aI292
aI15
aI1
aI40
aL0L
aa(lp164
g27
aI292
aI15
aI1
aI40
aL0L
aa(lp165
g27
aI292
aI15
aI1
aI40
aL0L
aa(lp166
g27
aI292
aI15
aI1
aI40
aL0L
aa(lp167
g27
aI292
aI15
aI1
aI40
aL0L
aa(lp168
g27
aI292
aI4
aI1
aI40
aL0L
aa(lp169
g27
aI292
aI4
aI1
aI40
aL0L
aa(lp170
g27
aI292
aI4
aI1
aI40
aL0L
aa(lp171
g27
aI292
aI1197
aI1
aI193
aL0L
aa(lp172
g27
aI292
aI15
aI1
aI40
aL0L
aa(lp173
g27
aI292
aI15
aI1
aI40
aL0L
aa(lp174
g27
aI292
aI3
aI1
aI40
aL0L
aa(lp175
g27
aI292
aI3
aI1
aI40
aL0L
aa(lp176
g27
aI292
aI3
aI1
aI40
aL0L
aa(lp177
g27
aI292
aI1197
aI1
aI193
aL0L
aa(lp178
g27
aI292
aI1197
aI1
aI193
aL0L
aa(lp179
g27
aI292
aI1
aI1
aI57
aL0L
aa(lp180
g27
aI292
aI1197
aI1
aI193
aL0L
aa(lp181
g27
aI292
aI1197
aI1
aI193
aL0L
aa(lp182
g27
aI292
aI1197
aI1
aI193
aL0L
aa(lp183
g27
aI292
aI1197
aI1
aI193
aL0L
aa(lp184
g27
aI292
aI13
aI1
aI57
aL0L
aa(lp185
g27
aI292
aI13
aI1
aI57
aL0L
aa(lp186
g27
aI292
aI13
aI1
aI57
aL0L
aa(lp187
g27
aI292
aI13
aI1
aI57
aL0L
aa(lp188
g27
aI292
aI13
aI1
aI57
aL0L
aa(lp189
g27
aI292
aI13
aI1
aI57
aL0L
aa(lp190
g27
aI292
aI13
aI1
aI57
aL0L
aa(lp191
g27
aI292
aI13
aI1
aI57
aL0L
aa(lp192
g27
aI292
aI13
aI1
aI57
aL0L
aa(lp193
g27
aI292
aI13
aI1
aI57
aL0L
aa(lp194
g27
aI292
aI13
aI1
aI57
aL0L
aa(lp195
g27
aI292
aI13
aI1
aI57
aL0L
aa(lp196
g2
aI807
aI1197
aI1
aI535
aL0L
aa(lp197
g2
aI807
aI1197
aI1
aI535
aL0L
aa(lp198
g2
aI807
aI42
aI1
aI229
aL0L
aa(lp199
g2
aI807
aI1197
aI1
aI535
aL0L
aa(lp200
g2
aI807
aI1197
aI1
aI535
aL0L
aa(lp201
g2
aI807
aI23
aI1
aI229
aL0L
aa(lp202
g27
aI292
aI1
aI1
aI40
aL0L
aa(lp203
g2
aI807
aI1197
aI1
aI535
aL0L
aa(lp204
g2
aI807
aI1197
aI1
aI535
aL0L
aa(lp205
g2
aI807
aI23
aI1
aI229
aL0L
aa(lp206
S'147.32.87.36'
p207
aI48
aI1
aI1
aI1
aL0L
aa(lp208
g2
aI807
aI1197
aI1
aI535
aL0L
aa(lp209
g2
aI807
aI1197
aI1
aI535
aL0L
aa(lp210
g2
aI807
aI19
aI1
aI229
aL0L
aa(lp211
g27
aI292
aI1197
aI1
aI193
aL0L
aa(lp212
g27
aI292
aI1197
aI1
aI193
aL0L
aa(lp213
g27
aI292
aI3
aI1
aI57
aL0L
aa(lp214
g27
aI292
aI1197
aI1
aI193
aL0L
aa(lp215
g27
aI292
aI1197
aI1
aI193
aL0L
aa(lp216
g27
aI292
aI1
aI1
aI57
aL0L
aa(lp217
g2
aI807
aI1197
aI1
aI535
aL0L
aa(lp218
g2
aI807
aI1197
aI1
aI535
aL0L
aa(lp219
g2
aI807
aI42
aI1
aI229
aL0L
aa(lp220
g2
aI807
aI1197
aI1
aI535
aL0L
aa(lp221
g2
aI807
aI1197
aI1
aI535
aL0L
aa(lp222
g2
aI807
aI31
aI1
aI229
aL0L
aa(lp223
g2
aI807
aI1197
aI1
aI535
aL0L
aa(lp224
g2
aI807
aI1197
aI1
aI535
aL0L
aa(lp225
g2
aI807
aI31
aI1
aI229
aL0L
aa(lp226
g2
aI807
aI38
aI1
aI41
aL0L
aa(lp227
g2
aI807
aI38
aI1
aI41
aL0L
aa(lp228
g2
aI807
aI56
aI1
aI41
aL0L
aa(lp229
g2
aI807
aI38
aI1
aI41
aL0L
aa(lp230
g2
aI807
aI56
aI1
aI41
aL0L
aa(lp231
g2
aI807
aI56
aI1
aI41
aL0L
aa(lp232
S'147.32.84.165'
p233
aI63
aI1197
aI19
aI21
aL1L
aa(lp234
g2
aI807
aI1197
aI1
aI535
aL0L
aa(lp235
g2
aI807
aI1197
aI1
aI535
aL0L
aa(lp236
g2
aI807
aI39
aI1
aI229
aL0L
aa(lp237
g233
aI63
aI1197
aI19
aI21
aL1L
aa(lp238
g233
aI63
aI3
aI1
aI41
aL1L
aa(lp239
g233
aI63
aI1197
aI19
aI21
aL1L
aa(lp240
g233
aI63
aI1
aI1
aI1
aL1L
aa(lp241
g2
aI807
aI1197
aI1
aI535
aL0L
aa(lp242
g2
aI807
aI1197
aI1
aI535
aL0L
aa(lp243
g2
aI807
aI38
aI1
aI229
aL0L
aa(lp244
g2
aI807
aI1197
aI1
aI535
aL0L
aa(lp245
g2
aI807
aI1197
aI1
aI535
aL0L
aa(lp246
g2
aI807
aI42
aI1
aI229
aL0L
aa(lp247
g2
aI807
aI1197
aI1
aI535
aL0L
aa(lp248
g2
aI807
aI1197
aI1
aI535
aL0L
aa(lp249
g2
aI807
aI23
aI1
aI229
aL0L
aa(lp250
g2
aI807
aI1197
aI1
aI535
aL0L
aa(lp251
g2
aI807
aI1197
aI1
aI535
aL0L
aa(lp252
g2
aI807
aI56
aI1
aI229
aL0L
aa(lp253
g2
aI807
aI1197
aI1
aI535
aL0L
aa(lp254
g2
aI807
aI1197
aI1
aI535
aL0L
aa(lp255
g2
aI807
aI31
aI1
aI229
aL0L
aa(lp256
g2
aI807
aI1197
aI1
aI535
aL0L
aa(lp257
g2
aI807
aI1197
aI1
aI535
aL0L
aa(lp258
g2
aI807
aI42
aI1
aI229
aL0L
aa(lp259
g2
aI807
aI1197
aI1
aI535
aL0L
aa(lp260
g2
aI807
aI1197
aI1
aI535
aL0L
aa(lp261
g2
aI807
aI23
aI1
aI41
aL0L
aa(lp262
g2
aI807
aI1197
aI1
aI535
aL0L
aa(lp263
g2
aI807
aI1197
aI1
aI535
aL0L
aa(lp264
g2
aI807
aI38
aI1
aI229
aL0L
aa(lp265
g2
aI807
aI1197
aI1
aI535
aL0L
aa(lp266
g2
aI807
aI1197
aI1
aI535
aL0L
aa(lp267
g2
aI807
aI38
aI1
aI229
aL0L
aa(lp268
g2
aI807
aI1197
aI1
aI535
aL0L
aa(lp269
g2
aI807
aI1197
aI1
aI535
aL0L
aa(lp270
g2
aI807
aI56
aI1
aI229
aL0L
aa(lp271
g2
aI807
aI1197
aI1
aI535
aL0L
aa(lp272
g2
aI807
aI1197
aI1
aI535
aL0L
aa(lp273
g2
aI807
aI42
aI1
aI229
aL0L
aa(lp274
g2
aI807
aI1197
aI1
aI535
aL0L
aa(lp275
g2
aI807
aI1197
aI1
aI535
aL0L
aa(lp276
g2
aI807
aI23
aI1
aI229
aL0L
aa(lp277
g2
aI807
aI1197
aI1
aI535
aL0L
aa(lp278
g2
aI807
aI1197
aI1
aI535
aL0L
aa(lp279
g2
aI807
aI38
aI1
aI229
aL0L
aa(lp280
g2
aI807
aI1197
aI1
aI535
aL0L
aa(lp281
g2
aI807
aI1197
aI1
aI535
aL0L
aa(lp282
g2
aI807
aI31
aI1
aI229
aL0L
aa(lp283
g2
aI807
aI1197
aI1
aI535
aL0L
aa(lp284
g2
aI807
aI1197
aI1
aI535
aL0L
aa(lp285
g2
aI807
aI42
aI1
aI229
aL0L
aa(lp286
g2
aI807
aI1197
aI1
aI535
aL0L
aa(lp287
g2
aI807
aI1197
aI1
aI535
aL0L
aa(lp288
g2
aI807
aI19
aI1
aI229
aL0L
aa(lp289
g2
aI807
aI1197
aI1
aI535
aL0L
aa(lp290
g2
aI807
aI1197
aI1
aI535
aL0L
aa(lp291
g2
aI807
aI19
aI1
aI229
aL0L
aa(lp292
g2
aI807
aI1197
aI1
aI535
aL0L
aa(lp293
g2
aI807
aI1197
aI1
aI535
aL0L
aa(lp294
g2
aI807
aI56
aI1
aI229
aL0L
aa(lp295
g2
aI807
aI1197
aI1
aI535
aL0L
aa(lp296
g2
aI807
aI1197
aI1
aI535
aL0L
aa(lp297
g2
aI807
aI42
aI1
aI229
aL0L
aa(lp298
g2
aI807
aI1197
aI1
aI535
aL0L
aa(lp299
g2
aI807
aI1197
aI1
aI535
aL0L
aa(lp300
g2
aI807
aI31
aI1
aI229
aL0L
aa(lp301
g2
aI807
aI1197
aI1
aI535
aL0L
aa(lp302
g2
aI807
aI1197
aI1
aI535
aL0L
aa(lp303
g2
aI807
aI56
aI1
aI229
aL0L
aa(lp304
g2
aI807
aI1197
aI1
aI535
aL0L
aa(lp305
g2
aI807
aI1197
aI1
aI535
aL0L
aa(lp306
g2
aI807
aI38
aI1
aI229
aL0L
aa(lp307
g7
aI520
aI1197
aI1
aI402
aL0L
aa(lp308
g7
aI520
aI1197
aI1
aI402
aL0L
aa(lp309
g7
aI520
aI1
aI1
aI108
aL0L
aa(lp310
g7
aI520
aI1197
aI1
aI402
aL0L
aa(lp311
g7
aI520
aI1197
aI1
aI402
aL0L
aa(lp312
g7
aI520
aI1197
aI1
aI402
aL0L
aa(lp313
g7
aI520
aI1197
aI1
aI402
aL0L
aa(lp314
g2
aI807
aI1197
aI1
aI535
aL0L
aa(lp315
g2
aI807
aI1197
aI1
aI535
aL0L
aa(lp316
g2
aI807
aI42
aI1
aI229
aL0L
aa(lp317
g7
aI520
aI1197
aI2
aI402
aL0L
aa(lp318
g7
aI520
aI7
aI1
aI8
aL0L
aa(lp319
g2
aI807
aI1197
aI1
aI535
aL0L
aa(lp320
g2
aI807
aI1197
aI2
aI535
aL0L
aa(lp321
g2
aI807
aI23
aI1
aI229
aL0L
aa(lp322
g2
aI807
aI1197
aI1
aI535
aL0L
aa(lp323
g2
aI807
aI1197
aI1
aI535
aL0L
aa(lp324
g2
aI807
aI31
aI1
aI229
aL0L
aa(lp325
g2
aI807
aI1197
aI1
aI535
aL0L
aa(lp326
g2
aI807
aI1197
aI1
aI535
aL0L
aa(lp327
g2
aI807
aI31
aI1
aI229
aL0L
aa(lp328
g233
aI63
aI1197
aI19
aI21
aL1L
aa(lp329
g233
aI63
aI1197
aI2
aI21
aL1L
aa(lp330
g233
aI63
aI7
aI1
aI41
aL1L
aa(lp331
g233
aI63
aI1
aI1
aI41
aL1L
aa(lp332
g2
aI807
aI1197
aI1
aI535
aL0L
aa(lp333
g2
aI807
aI1197
aI1
aI535
aL0L
aa(lp334
g2
aI807
aI42
aI1
aI229
aL0L
aa(lp335
g233
aI63
aI1197
aI19
aI21
aL1L
aa(lp336
g233
aI63
aI3
aI1
aI41
aL1L
aa(lp337
g233
aI63
aI7
aI1
aI41
aL1L
aa(lp338
g233
aI63
aI1197
aI19
aI21
aL1L
aa(lp339
g233
aI63
aI1197
aI19
aI21
aL1L
aa(lp340
g233
aI63
aI1
aI1
aI41
aL1L
aa(lp341
g2
aI807
aI1197
aI1
aI535
aL0L
aa(lp342
g2
aI807
aI1197
aI1
aI535
aL0L
aa(lp343
g2
aI807
aI56
aI1
aI229
aL0L
aa(lp344
g233
aI63
aI1197
aI19
aI21
aL1L
aa(lp345
g233
aI63
aI1
aI1
aI41
aL1L
aa(lp346
g233
aI63
aI1197
aI19
aI21
aL1L
aa(lp347
g233
aI63
aI1197
aI2
aI21
aL1L
aa(lp348
g233
aI63
aI3
aI1
aI41
aL1L
aa(lp349
g233
aI63
aI19
aI1
aI41
aL1L
aa(lp350
g233
aI63
aI19
aI1
aI41
aL1L
aa(lp351
g233
aI63
aI1197
aI19
aI21
aL1L
aa(lp352
g233
aI63
aI1
aI1
aI41
aL1L
aa(lp353
g233
aI63
aI19
aI1
aI41
aL1L
aa(lp354
g233
aI63
aI3
aI1
aI41
aL1L
aa(lp355
g233
aI63
aI19
aI1
aI41
aL1L
aa(lp356
g233
aI63
aI19
aI1
aI41
aL1L
aa(lp357
g233
aI63
aI19
aI1
aI41
aL1L
aa(lp358
g233
aI63
aI19
aI1
aI41
aL1L
aa(lp359
g233
aI63
aI19
aI1
aI41
aL1L
aa(lp360
g233
aI63
aI1197
aI19
aI21
aL1L
aa(lp361
g233
aI63
aI1
aI1
aI41
aL1L
aa(lp362
g233
aI63
aI7
aI1
aI41
aL1L
aa(lp363
g233
aI63
aI19
aI1
aI41
aL1L
aa(lp364
g233
aI63
aI19
aI1
aI41
aL1L
aa(lp365
g233
aI63
aI19
aI1
aI41
aL1L
aa(lp366
g233
aI63
aI19
aI1
aI41
aL1L
aa(lp367
g233
aI63
aI1197
aI19
aI21
aL1L
aa(lp368
g233
aI63
aI1
aI1
aI41
aL1L
aa(lp369
g233
aI63
aI1197
aI19
aI21
aL1L
aa(lp370
g233
aI63
aI19
aI1
aI41
aL1L
aa(lp371
g233
aI63
aI1
aI1
aI41
aL1L
aa(lp372
g233
aI63
aI1197
aI19
aI21
aL1L
aa(lp373
g233
aI63
aI1
aI1
aI41
aL1L
aa(lp374
g2
aI807
aI1197
aI1
aI535
aL0L
aa(lp375
g2
aI807
aI1197
aI1
aI535
aL0L
aa(lp376
g2
aI807
aI56
aI1
aI229
aL0L
aa(lp377
g233
aI63
aI1197
aI19
aI21
aL1L
aa(lp378
g233
aI63
aI1197
aI19
aI21
aL1L
aa(lp379
g233
aI63
aI7
aI1
aI41
aL1L
aa(lp380
g233
aI63
aI7
aI1
aI41
aL1L
aa(lp381
g233
aI63
aI1197
aI19
aI21
aL1L
aa(lp382
g233
aI63
aI1
aI1
aI41
aL1L
aa(lp383
g2
aI807
aI1197
aI1
aI535
aL0L
aa(lp384
g2
aI807
aI1197
aI1
aI535
aL0L
aa(lp385
g2
aI807
aI38
aI1
aI229
aL0L
aa(lp386
g233
aI63
aI1197
aI19
aI21
aL1L
aa(lp387
g233
aI63
aI1
aI1
aI41
aL1L
aa(lp388
g233
aI63
aI7
aI1
aI41
aL1L
aa(lp389
g2
aI807
aI1197
aI1
aI535
aL0L
aa(lp390
g2
aI807
aI1197
aI1
aI535
aL0L
aa(lp391
g2
aI807
aI42
aI1
aI229
aL0L
aa(lp392
g2
aI807
aI1197
aI1
aI535
aL0L
aa(lp393
g2
aI807
aI1197
aI1
aI535
aL0L
aa(lp394
g2
aI807
aI31
aI1
aI229
aL0L
aa(lp395
g2
aI807
aI1197
aI1
aI535
aL0L
aa(lp396
g2
aI807
aI1197
aI1
aI535
aL0L
aa(lp397
g2
aI807
aI39
aI1
aI229
aL0L
aa(lp398
g27
aI292
aI1197
aI1
aI193
aL0L
aa(lp399
g27
aI292
aI1197
aI1
aI193
aL0L
aa(lp400
g27
aI292
aI1197
aI1
aI193
aL0L
aa(lp401
g27
aI292
aI1197
aI1
aI193
aL0L
aa(lp402
g27
aI292
aI1197
aI1
aI193
aL0L
aa(lp403
g27
aI292
aI2
aI1
aI40
aL0L
aa(lp404
g2
aI807
aI1197
aI1
aI535
aL0L
aa(lp405
g2
aI807
aI1197
aI1
aI535
aL0L
aa(lp406
g2
aI807
aI39
aI1
aI229
aL0L
aa(lp407
g27
aI292
aI1197
aI1
aI193
aL0L
aa(lp408
g27
aI292
aI1197
aI1
aI193
aL0L
aa(lp409
g27
aI292
aI19
aI1
aI40
aL0L
aa(lp410
g2
aI807
aI1197
aI1
aI535
aL0L
aa(lp411
g2
aI807
aI1197
aI1
aI535
aL0L
aa(lp412
g2
aI807
aI42
aI1
aI229
aL0L
aa(lp413
g2
aI807
aI1197
aI1
aI535
aL0L
aa(lp414
g2
aI807
aI1197
aI1
aI535
aL0L
aa(lp415
g2
aI807
aI56
aI1
aI229
aL0L
aa(lp416
g7
aI520
aI1197
aI1
aI402
aL0L
aa(lp417
g7
aI520
aI1197
aI1
aI402
aL0L
aa(lp418
g7
aI520
aI17
aI1
aI108
aL0L
aa(lp419
g7
aI520
aI1197
aI1
aI402
aL0L
aa(lp420
g7
aI520
aI1197
aI1
aI402
aL0L
aa(lp421
g7
aI520
aI1
aI1
aI108
aL0L
aa(lp422
g2
aI807
aI1197
aI1
aI535
aL0L
aa(lp423
g2
aI807
aI1197
aI1
aI535
aL0L
aa(lp424
g2
aI807
aI56
aI1
aI229
aL0L
aa(lp425
S'147.32.80.9'
p426
aI1
aI1
aI1
aI1
aL0L
aa(lp427
g2
aI807
aI1197
aI1
aI535
aL0L
aa(lp428
g2
aI807
aI1197
aI1
aI535
aL0L
aa(lp429
g2
aI807
aI19
aI1
aI229
aL0L
aa(lp430
g2
aI807
aI1197
aI1
aI535
aL0L
aa(lp431
g2
aI807
aI1197
aI1
aI535
aL0L
aa(lp432
g2
aI807
aI42
aI1
aI229
aL0L
aa(lp433
g2
aI807
aI1197
aI1
aI535
aL0L
aa(lp434
g2
aI807
aI1197
aI1
aI535
aL0L
aa(lp435
g2
aI807
aI56
aI1
aI229
aL0L
aa(lp436
g7
aI520
aI1197
aI1
aI402
aL0L
aa(lp437
g7
aI520
aI1197
aI1
aI402
aL0L
aa(lp438
g7
aI520
aI1197
aI1
aI402
aL0L
aa(lp439
g7
aI520
aI1197
aI1
aI402
aL0L
aa(lp440
g7
aI520
aI1197
aI1
aI402
aL0L
aa(lp441
g7
aI520
aI1197
aI1
aI402
aL0L
aa(lp442
g7
aI520
aI1
aI1
aI108
aL0L
aa(lp443
g7
aI520
aI1197
aI1
aI402
aL0L
aa(lp444
g7
aI520
aI1197
aI1
aI402
aL0L
aa(lp445
g7
aI520
aI39
aI1
aI108
aL0L
aa(lp446
g7
aI520
aI1197
aI1
aI402
aL0L
aa(lp447
g7
aI520
aI39
aI1
aI108
aL0L
aa(lp448
g7
aI520
aI1197
aI1
aI402
aL0L
aa(lp449
g7
aI520
aI39
aI1
aI108
aL0L
aa(lp450
g7
aI520
aI39
aI1
aI108
aL0L
aa(lp451
g7
aI520
aI39
aI1
aI108
aL0L
aa(lp452
g7
aI520
aI39
aI1
aI108
aL0L
aa(lp453
g7
aI520
aI1197
aI3
aI402
aL0L
aa(lp454
g7
aI520
aI1197
aI1
aI402
aL0L
aa(lp455
g7
aI520
aI1197
aI1
aI402
aL0L
aa(lp456
g7
aI520
aI1197
aI1
aI402
aL0L
aa(lp457
g7
aI520
aI1197
aI1
aI402
aL0L
aa(lp458
g7
aI520
aI24
aI1
aI108
aL0L
aa(lp459
g7
aI520
aI24
aI1
aI108
aL0L
aa(lp460
g7
aI520
aI1197
aI2
aI402
aL0L
aa(lp461
g7
aI520
aI1197
aI1
aI402
aL0L
aa(lp462
g7
aI520
aI1197
aI1
aI402
aL0L
aa(lp463
g7
aI520
aI1197
aI1
aI402
aL0L
aa(lp464
g7
aI520
aI1197
aI1
aI402
aL0L
aa(lp465
g7
aI520
aI1197
aI1
aI402
aL0L
aa(lp466
g7
aI520
aI1197
aI1
aI402
aL0L
aa(lp467
g7
aI520
aI1197
aI1
aI402
aL0L
aa(lp468
g7
aI520
aI1197
aI1
aI402
aL0L
aa(lp469
g7
aI520
aI1197
aI1
aI402
aL0L
aa(lp470
g7
aI520
aI1197
aI1
aI402
aL0L
aa(lp471
g7
aI520
aI1197
aI1
aI402
aL0L
aa(lp472
g7
aI520
aI1197
aI1
aI402
aL0L
aa(lp473
g7
aI520
aI1197
aI3
aI402
aL0L
aa(lp474
g7
aI520
aI1197
aI1
aI402
aL0L
aa(lp475
g7
aI520
aI1197
aI1
aI402
aL0L
aa(lp476
g7
aI520
aI1197
aI1
aI402
aL0L
aa(lp477
g7
aI520
aI1197
aI1
aI402
aL0L
aa(lp478
g7
aI520
aI1197
aI1
aI402
aL0L
aa(lp479
g7
aI520
aI1197
aI1
aI402
aL0L
aa(lp480
g7
aI520
aI1197
aI1
aI402
aL0L
aa(lp481
g7
aI520
aI1197
aI1
aI402
aL0L
aa(lp482
g7
aI520
aI1197
aI1
aI402
aL0L
aa(lp483
g7
aI520
aI1197
aI1
aI402
aL0L
aa(lp484
g7
aI520
aI1197
aI1
aI402
aL0L
aa(lp485
g7
aI520
aI1197
aI1
aI402
aL0L
aa(lp486
g7
aI520
aI1197
aI1
aI402
aL0L
aa(lp487
g7
aI520
aI1197
aI1
aI402
aL0L
aa(lp488
g7
aI520
aI1197
aI1
aI402
aL0L
aa(lp489
g7
aI520
aI1197
aI1
aI402
aL0L
aa(lp490
g7
aI520
aI1197
aI1
aI402
aL0L
aa(lp491
g7
aI520
aI1197
aI1
aI402
aL0L
aa(lp492
g7
aI520
aI1197
aI1
aI402
aL0L
aa(lp493
g7
aI520
aI1197
aI1
aI402
aL0L
aa(lp494
g7
aI520
aI1197
aI1
aI402
aL0L
aa(lp495
g7
aI520
aI1197
aI1
aI402
aL0L
aa(lp496
g7
aI520
aI3
aI1
aI108
aL0L
aa(lp497
g7
aI520
aI1197
aI1
aI402
aL0L
aa(lp498
g7
aI520
aI1197
aI1
aI402
aL0L
aa(lp499
g7
aI520
aI1197
aI2
aI402
aL0L
aa(lp500
g7
aI520
aI3
aI1
aI108
aL0L
aa(lp501
g7
aI520
aI1197
aI1
aI402
aL0L
aa(lp502
g7
aI520
aI1197
aI1
aI402
aL0L
aa(lp503
g7
aI520
aI1197
aI1
aI402
aL0L
aa(lp504
g7
aI520
aI1197
aI1
aI402
aL0L
aa(lp505
g7
aI520
aI1197
aI2
aI402
aL0L
aa(lp506
g7
aI520
aI1197
aI1
aI402
aL0L
aa(lp507
g7
aI520
aI1197
aI1
aI402
aL0L
aa(lp508
g7
aI520
aI1197
aI1
aI402
aL0L
aa(lp509
g7
aI520
aI1197
aI1
aI402
aL0L
aa(lp510
g7
aI520
aI1197
aI1
aI402
aL0L
aa(lp511
g7
aI520
aI1197
aI1
aI402
aL0L
aa(lp512
g7
aI520
aI1197
aI1
aI402
aL0L
aa(lp513
g7
aI520
aI1197
aI1
aI402
aL0L
aa(lp514
g7
aI520
aI1197
aI1
aI402
aL0L
aa(lp515
g7
aI520
aI1197
aI1
aI402
aL0L
aa(lp516
g7
aI520
aI1197
aI2
aI402
aL0L
aa(lp517
g7
aI520
aI1197
aI1
aI402
aL0L
aa(lp518
g7
aI520
aI1197
aI1
aI402
aL0L
aa(lp519
g7
aI520
aI1197
aI1
aI402
aL0L
aa(lp520
g7
aI520
aI1197
aI1
aI402
aL0L
aa(lp521
g7
aI520
aI1197
aI1
aI402
aL0L
aa(lp522
g7
aI520
aI1197
aI1
aI402
aL0L
aa(lp523
g7
aI520
aI1197
aI1
aI402
aL0L
aa(lp524
g7
aI520
aI1197
aI1
aI402
aL0L
aa(lp525
g7
aI520
aI1197
aI1
aI402
aL0L
aa(lp526
g7
aI520
aI1197
aI1
aI402
aL0L
aa(lp527
g7
aI520
aI1197
aI2
aI402
aL0L
aa(lp528
g7
aI520
aI1197
aI1
aI402
aL0L
aa(lp529
g7
aI520
aI1197
aI1
aI402
aL0L
aa(lp530
g7
aI520
aI1197
aI1
aI402
aL0L
aa(lp531
g7
aI520
aI1197
aI1
aI402
aL0L
aa(lp532
g7
aI520
aI1197
aI1
aI402
aL0L
aa(lp533
g7
aI520
aI1197
aI1
aI402
aL0L
aa(lp534
g7
aI520
aI1197
aI1
aI402
aL0L
aa(lp535
g7
aI520
aI1197
aI1
aI402
aL0L
aa(lp536
g7
aI520
aI1197
aI2
aI402
aL0L
aa(lp537
g7
aI520
aI1197
aI1
aI402
aL0L
aa(lp538
g7
aI520
aI1197
aI1
aI402
aL0L
aa(lp539
g7
aI520
aI1197
aI1
aI402
aL0L
aa(lp540
g7
aI520
aI1197
aI1
aI402
aL0L
aa(lp541
g7
aI520
aI1197
aI1
aI402
aL0L
aa(lp542
g7
aI520
aI1197
aI1
aI402
aL0L
aa(lp543
g7
aI520
aI1197
aI1
aI402
aL0L
aa(lp544
g7
aI520
aI1197
aI1
aI402
aL0L
aa(lp545
g7
aI520
aI1197
aI1
aI402
aL0L
aa(lp546
g7
aI520
aI1197
aI1
aI402
aL0L
aa(lp547
g7
aI520
aI1197
aI1
aI402
aL0L
aa(lp548
g7
aI520
aI1197
aI1
aI402
aL0L
aa(lp549
g7
aI520
aI1197
aI1
aI402
aL0L
aa(lp550
g7
aI520
aI1197
aI1
aI402
aL0L
aa(lp551
g7
aI520
aI1197
aI1
aI402
aL0L
aa(lp552
g7
aI520
aI1197
aI1
aI402
aL0L
aa(lp553
g2
aI807
aI38
aI1
aI41
aL0L
aa(lp554
g7
aI520
aI1197
aI1
aI402
aL0L
aa(lp555
g2
aI807
aI38
aI1
aI41
aL0L
aa(lp556
g2
aI807
aI56
aI1
aI41
aL0L
aa(lp557
g2
aI807
aI56
aI1
aI41
aL0L
aa(lp558
g2
aI807
aI38
aI1
aI41
aL0L
aa(lp559
g2
aI807
aI56
aI1
aI41
aL0L
aa(lp560
g7
aI520
aI2
aI1
aI108
aL0L
aa(lp561
g233
aI63
aI1197
aI19
aI21
aL1L
aa(lp562
g7
aI520
aI1197
aI1
aI402
aL0L
aa(lp563
g7
aI520
aI1197
aI1
aI402
aL0L
aa(lp564
g7
aI520
aI1197
aI1
aI402
aL0L
aa(lp565
g7
aI520
aI1197
aI1
aI402
aL0L
aa(lp566
g7
aI520
aI1197
aI1
aI402
aL0L
aa(lp567
g7
aI520
aI1197
aI1
aI402
aL0L
aa(lp568
g7
aI520
aI1197
aI1
aI402
aL0L
aa(lp569
g7
aI520
aI2
aI1
aI108
aL0L
aa(lp570
g7
aI520
aI1197
aI1
aI402
aL0L
aa(lp571
g7
aI520
aI1197
aI1
aI402
aL0L
aa(lp572
g7
aI520
aI1197
aI1
aI402
aL0L
aa(lp573
g7
aI520
aI1197
aI1
aI402
aL0L
aa(lp574
g7
aI520
aI1197
aI1
aI402
aL0L
aa(lp575
g7
aI520
aI1197
aI1
aI402
aL0L
aa(lp576
g7
aI520
aI1
aI1
aI108
aL0L
aa(lp577
g7
aI520
aI6
aI1
aI108
aL0L
aa(lp578
g7
aI520
aI6
aI1
aI108
aL0L
aa(lp579
g7
aI520
aI6
aI1
aI108
aL0L
aa(lp580
g7
aI520
aI6
aI1
aI108
aL0L
aa(lp581
g7
aI520
aI6
aI1
aI108
aL0L
aa(lp582
g7
aI520
aI6
aI1
aI108
aL0L
aa(lp583
g2
aI807
aI1197
aI1
aI535
aL0L
aa(lp584
g2
aI807
aI1197
aI1
aI535
aL0L
aa(lp585
g2
aI807
aI31
aI1
aI229
aL0L
aa(lp586
g7
aI520
aI4
aI1
aI108
aL0L
aa(lp587
g7
aI520
aI3
aI1
aI108
aL0L
aa(lp588
g7
aI520
aI1197
aI1
aI402
aL0L
aa(lp589
g7
aI520
aI4
aI1
aI108
aL0L
aa(lp590
g7
aI520
aI4
aI1
aI108
aL0L
aa(lp591
g7
aI520
aI4
aI1
aI108
aL0L
aa(lp592
g7
aI520
aI4
aI1
aI108
aL0L
aa(lp593
g7
aI520
aI1197
aI1
aI402
aL0L
aa(lp594
g7
aI520
aI1197
aI1
aI402
aL0L
aa(lp595
g7
aI520
aI1197
aI1
aI402
aL0L
aa(lp596
g7
aI520
aI1197
aI1
aI402
aL0L
aa(lp597
g7
aI520
aI1197
aI1
aI402
aL0L
aa(lp598
g7
aI520
aI1197
aI1
aI402
aL0L
aa(lp599
g7
aI520
aI1
aI1
aI108
aL0L
aa(lp600
g7
aI520
aI4
aI1
aI108
aL0L
aa(lp601
g7
aI520
aI1197
aI1
aI402
aL0L
aa(lp602
g7
aI520
aI6
aI1
aI108
aL0L
aa(lp603
g7
aI520
aI6
aI1
aI108
aL0L
aa(lp604
g7
aI520
aI6
aI1
aI108
aL0L
aa(lp605
g7
aI520
aI6
aI1
aI108
aL0L
aa(lp606
g7
aI520
aI6
aI1
aI108
aL0L
aa(lp607
g7
aI520
aI6
aI1
aI108
aL0L
aa(lp608
g7
aI520
aI1197
aI1
aI402
aL0L
aa(lp609
g7
aI520
aI1197
aI2
aI402
aL0L
aa(lp610
g7
aI520
aI1197
aI1
aI402
aL0L
aa(lp611
g7
aI520
aI1197
aI1
aI402
aL0L
aa(lp612
g7
aI520
aI1
aI1
aI108
aL0L
aa(lp613
g7
aI520
aI1197
aI1
aI402
aL0L
aa(lp614
g7
aI520
aI1197
aI1
aI402
aL0L
aa(lp615
g7
aI520
aI1197
aI1
aI402
aL0L
aa(lp616
g7
aI520
aI1197
aI1
aI402
aL0L
aa(lp617
g7
aI520
aI1197
aI1
aI402
aL0L
aa(lp618
g7
aI520
aI1197
aI1
aI402
aL0L
aa(lp619
g7
aI520
aI1197
aI2
aI402
aL0L
aa(lp620
g7
aI520
aI1197
aI1
aI402
aL0L
aa(lp621
g7
aI520
aI1197
aI1
aI402
aL0L
aa(lp622
g7
aI520
aI1197
aI1
aI402
aL0L
aa(lp623
g7
aI520
aI1197
aI1
aI402
aL0L
aa(lp624
g7
aI520
aI1197
aI1
aI402
aL0L
aa(lp625
g7
aI520
aI1197
aI1
aI402
aL0L
aa(lp626
g7
aI520
aI1197
aI1
aI402
aL0L
aa(lp627
g7
aI520
aI1197
aI1
aI402
aL0L
aa(lp628
g7
aI520
aI1197
aI1
aI402
aL0L
aa(lp629
g7
aI520
aI1197
aI1
aI402
aL0L
aa(lp630
g7
aI520
aI1197
aI1
aI402
aL0L
aa(lp631
g7
aI520
aI1197
aI1
aI402
aL0L
aa(lp632
g7
aI520
aI1197
aI1
aI402
aL0L
aa(lp633
g7
aI520
aI1197
aI1
aI402
aL0L
aa(lp634
g7
aI520
aI1197
aI1
aI402
aL0L
aa(lp635
g7
aI520
aI1197
aI1
aI402
aL0L
aa(lp636
g7
aI520
aI1197
aI1
aI402
aL0L
aa(lp637
g7
aI520
aI1197
aI1
aI402
aL0L
aa(lp638
g7
aI520
aI1197
aI1
aI402
aL0L
aa(lp639
g7
aI520
aI1197
aI1
aI402
aL0L
aa(lp640
g7
aI520
aI1197
aI1
aI402
aL0L
aa(lp641
g7
aI520
aI1197
aI1
aI402
aL0L
aa(lp642
g7
aI520
aI1197
aI1
aI402
aL0L
aa(lp643
g7
aI520
aI1197
aI1
aI402
aL0L
aa(lp644
g7
aI520
aI1
aI1
aI108
aL0L
aa(lp645
g7
aI520
aI3
aI1
aI108
aL0L
aa(lp646
g7
aI520
aI1197
aI1
aI402
aL0L
aa(lp647
g7
aI520
aI1197
aI1
aI402
aL0L
aa(lp648
g7
aI520
aI2
aI1
aI108
aL0L
aa(lp649
g7
aI520
aI3
aI1
aI108
aL0L
aa(lp650
g7
aI520
aI3
aI1
aI108
aL0L
aa(lp651
g7
aI520
aI1197
aI1
aI402
aL0L
aa(lp652
g7
aI520
aI1197
aI1
aI402
aL0L
aa(lp653
g7
aI520
aI1197
aI1
aI402
aL0L
aa(lp654
g7
aI520
aI6
aI1
aI108
aL0L
aa(lp655
g7
aI520
aI6
aI1
aI108
aL0L
aa(lp656
g7
aI520
aI6
aI1
aI108
aL0L
aa(lp657
g7
aI520
aI6
aI1
aI108
aL0L
aa(lp658
g7
aI520
aI6
aI1
aI108
aL0L
aa(lp659
g7
aI520
aI6
aI1
aI108
aL0L
aa(lp660
g7
aI520
aI1197
aI1
aI402
aL0L
aa(lp661
g7
aI520
aI1197
aI1
aI402
aL0L
aa(lp662
g7
aI520
aI2
aI1
aI108
aL0L
aa(lp663
g7
aI520
aI1197
aI1
aI402
aL0L
aa(lp664
g7
aI520
aI1197
aI1
aI402
aL0L
aa(lp665
g7
aI520
aI1197
aI1
aI402
aL0L
aa(lp666
g7
aI520
aI1197
aI1
aI402
aL0L
aa(lp667
g7
aI520
aI1197
aI1
aI402
aL0L
aa(lp668
g233
aI63
aI2
aI1
aI41
aL1L
aa(lp669
g7
aI520
aI1197
aI1
aI402
aL0L
aa(lp670
g7
aI520
aI1197
aI1
aI402
aL0L
aa(lp671
g7
aI520
aI1197
aI1
aI402
aL0L
aa(lp672
g7
aI520
aI1197
aI1
aI402
aL0L
aa(lp673
g7
aI520
aI1197
aI1
aI402
aL0L
aa(lp674
g7
aI520
aI1197
aI1
aI402
aL0L
aa(lp675
g7
aI520
aI1197
aI1
aI402
aL0L
aa(lp676
g7
aI520
aI1197
aI1
aI402
aL0L
aa(lp677
g7
aI520
aI1197
aI1
aI402
aL0L
aa(lp678
g7
aI520
aI1197
aI1
aI402
aL0L
aa(lp679
g7
aI520
aI1197
aI1
aI402
aL0L
aa(lp680
g7
aI520
aI1197
aI1
aI402
aL0L
aa(lp681
g7
aI520
aI1197
aI1
aI402
aL0L
aa(lp682
g7
aI520
aI1197
aI1
aI402
aL0L
aa(lp683
g7
aI520
aI1197
aI1
aI402
aL0L
aa(lp684
g7
aI520
aI1197
aI1
aI402
aL0L
aa(lp685
g7
aI520
aI1197
aI1
aI402
aL0L
aa(lp686
g7
aI520
aI1197
aI1
aI402
aL0L
aa(lp687
g7
aI520
aI1197
aI1
aI402
aL0L
aa(lp688
g7
aI520
aI1197
aI1
aI402
aL0L
aa(lp689
g7
aI520
aI1197
aI1
aI402
aL0L
aa(lp690
g7
aI520
aI1197
aI1
aI402
aL0L
aa(lp691
g7
aI520
aI1
aI1
aI108
aL0L
aa(lp692
g7
aI520
aI1197
aI1
aI402
aL0L
aa(lp693
g7
aI520
aI1197
aI1
aI402
aL0L
aa(lp694
g7
aI520
aI1197
aI1
aI402
aL0L
aa(lp695
g7
aI520
aI1197
aI1
aI402
aL0L
aa(lp696
g7
aI520
aI1197
aI1
aI402
aL0L
aa(lp697
g7
aI520
aI1197
aI1
aI402
aL0L
aa(lp698
g7
aI520
aI1197
aI1
aI402
aL0L
aa(lp699
g7
aI520
aI1197
aI1
aI402
aL0L
aa(lp700
g7
aI520
aI1197
aI1
aI402
aL0L
aa(lp701
g7
aI520
aI1197
aI1
aI402
aL0L
aa(lp702
g7
aI520
aI1197
aI1
aI402
aL0L
aa(lp703
g7
aI520
aI1
aI1
aI108
aL0L
aa(lp704
g7
aI520
aI2
aI1
aI108
aL0L
aa(lp705
g7
aI520
aI1197
aI1
aI402
aL0L
aa(lp706
g2
aI807
aI1197
aI1
aI535
aL0L
aa(lp707
g2
aI807
aI1197
aI1
aI535
aL0L
aa(lp708
g2
aI807
aI19
aI1
aI229
aL0L
aa(lp709
g7
aI520
aI24
aI1
aI108
aL0L
aa(lp710
g7
aI520
aI24
aI1
aI108
aL0L
aa(lp711
g7
aI520
aI1197
aI1
aI402
aL0L
aa(lp712
g7
aI520
aI39
aI1
aI108
aL0L
aa(lp713
g7
aI520
aI39
aI1
aI108
aL0L
aa(lp714
g7
aI520
aI39
aI1
aI108
aL0L
aa(lp715
g7
aI520
aI1197
aI1
aI402
aL0L
aa(lp716
g7
aI520
aI1197
aI1
aI402
aL0L
aa(lp717
g7
aI520
aI1197
aI1
aI402
aL0L
aa(lp718
g7
aI520
aI10
aI1
aI108
aL0L
aa(lp719
g7
aI520
aI2
aI1
aI108
aL0L
aa(lp720
g7
aI520
aI3
aI1
aI108
aL0L
aa(lp721
g7
aI520
aI4
aI1
aI108
aL0L
aa(lp722
g7
aI520
aI10
aI1
aI108
aL0L
aa(lp723
g7
aI520
aI10
aI1
aI108
aL0L
aa(lp724
g7
aI520
aI10
aI1
aI108
aL0L
aa(lp725
g7
aI520
aI10
aI1
aI108
aL0L
aa(lp726
g2
aI807
aI1197
aI1
aI535
aL0L
aa(lp727
g2
aI807
aI1197
aI1
aI535
aL0L
aa(lp728
g2
aI807
aI42
aI1
aI229
aL0L
aa(lp729
g7
aI520
aI4
aI1
aI108
aL0L
aa(lp730
g2
aI807
aI1197
aI1
aI535
aL0L
aa(lp731
g2
aI807
aI1197
aI1
aI535
aL0L
aa(lp732
g2
aI807
aI38
aI1
aI229
aL0L
aa(lp733
g2
aI807
aI1197
aI1
aI535
aL0L
aa(lp734
g2
aI807
aI1197
aI1
aI535
aL0L
aa(lp735
g2
aI807
aI19
aI1
aI229
aL0L
aa(lp736
g2
aI807
aI1197
aI1
aI535
aL0L
aa(lp737
g2
aI807
aI1197
aI1
aI535
aL0L
aa(lp738
g2
aI807
aI23
aI1
aI229
aL0L
aa(lp739
g2
aI807
aI1197
aI1
aI535
aL0L
aa(lp740
g2
aI807
aI1197
aI1
aI535
aL0L
aa(lp741
g2
aI807
aI42
aI1
aI229
aL0L
aa(lp742
g2
aI807
aI1197
aI1
aI535
aL0L
aa(lp743
g2
aI807
aI1197
aI2
aI535
aL0L
aa(lp744
g2
aI807
aI23
aI1
aI229
aL0L
aa(lp745
g27
aI292
aI1197
aI1
aI193
aL0L
aa(lp746
g27
aI292
aI1197
aI1
aI193
aL0L
aa(lp747
g2
aI807
aI1197
aI1
aI535
aL0L
aa(lp748
g2
aI807
aI1197
aI1
aI535
aL0L
aa(lp749
g2
aI807
aI56
aI1
aI229
aL0L
aa(lp750
g7
aI520
aI1197
aI1
aI402
aL0L
aa(lp751
g7
aI520
aI1197
aI1
aI402
aL0L
aa(lp752
g7
aI520
aI2
aI1
aI8
aL0L
aa(lp753
g2
aI807
aI1197
aI1
aI535
aL0L
aa(lp754
g2
aI807
aI1197
aI1
aI535
aL0L
aa(lp755
g2
aI807
aI56
aI1
aI229
aL0L
aa(lp756
g2
aI807
aI1197
aI1
aI535
aL0L
aa(lp757
g2
aI807
aI1197
aI1
aI535
aL0L
aa(lp758
g2
aI807
aI42
aI1
aI229
aL0L
aa(lp759
g2
aI807
aI1197
aI1
aI535
aL0L
aa(lp760
g2
aI807
aI1197
aI1
aI535
aL0L
aa(lp761
g2
aI807
aI38
aI1
aI229
aL0L
aa(lp762
g2
aI807
aI1197
aI1
aI535
aL0L
aa(lp763
g2
aI807
aI1197
aI1
aI535
aL0L
aa(lp764
g2
aI807
aI31
aI1
aI229
aL0L
aa(lp765
g233
aI63
aI19
aI1
aI41
aL1L
aa(lp766
g233
aI63
aI19
aI1
aI41
aL1L
aa(lp767
g233
aI63
aI19
aI1
aI41
aL1L
aa(lp768
g233
aI63
aI19
aI1
aI41
aL1L
aa(lp769
g233
aI63
aI19
aI1
aI41
aL1L
aa(lp770
g233
aI63
aI19
aI1
aI41
aL1L
aa(lp771
g2
aI807
aI1197
aI1
aI535
aL0L
aa(lp772
g2
aI807
aI1197
aI1
aI535
aL0L
aa(lp773
g2
aI807
aI19
aI1
aI229
aL0L
aa(lp774
g207
aI48
aI1197
aI2
aI46
aL0L
aa(lp775
g207
aI48
aI1197
aI2
aI46
aL0L
aa(lp776
g207
aI48
aI1
aI1
aI1
aL0L
aa(lp777
g2
aI807
aI1197
aI1
aI535
aL0L
aa(lp778
g2
aI807
aI1197
aI1
aI535
aL0L
aa(lp779
g2
aI807
aI42
aI1
aI229
aL0L
aa(lp780
g2
aI807
aI1197
aI1
aI535
aL0L
aa(lp781
g2
aI807
aI1197
aI1
aI535
aL0L
aa(lp782
g2
aI807
aI31
aI1
aI229
aL0L
aa(lp783
g207
aI48
aI1197
aI1
aI46
aL0L
aa(lp784
g207
aI48
aI1197
aI2
aI46
aL0L
aa(lp785
g2
aI807
aI1197
aI1
aI535
aL0L
aa(lp786
g2
aI807
aI1197
aI2
aI535
aL0L
aa(lp787
g2
aI807
aI19
aI1
aI229
aL0L
aa(lp788
g233
aI63
aI7
aI1
aI41
aL1L
aa(lp789
g2
aI807
aI1197
aI1
aI535
aL0L
aa(lp790
g2
aI807
aI1197
aI1
aI535
aL0L
aa(lp791
g2
aI807
aI19
aI1
aI229
aL0L
aa(lp792
g2
aI807
aI1197
aI1
aI535
aL0L
aa(lp793
g2
aI807
aI1197
aI1
aI535
aL0L
aa(lp794
g2
aI807
aI42
aI1
aI229
aL0L
aa(lp795
g2
aI807
aI1197
aI1
aI535
aL0L
aa(lp796
g2
aI807
aI1197
aI1
aI535
aL0L
aa(lp797
g2
aI807
aI56
aI1
aI229
aL0L
aa(lp798
g2
aI807
aI1197
aI1
aI535
aL0L
aa(lp799
g2
aI807
aI1197
aI1
aI535
aL0L
aa(lp800
g2
aI807
aI39
aI1
aI229
aL0L
aa(lp801
g27
aI292
aI1197
aI1
aI193
aL0L
aa(lp802
g27
aI292
aI1197
aI1
aI193
aL0L
aa(lp803
g27
aI292
aI1
aI1
aI1
aL0L
aa(lp804
g2
aI807
aI1197
aI1
aI535
aL0L
aa(lp805
g2
aI807
aI1197
aI1
aI535
aL0L
aa(lp806
g2
aI807
aI23
aI1
aI229
aL0L
aa(lp807
g2
aI807
aI1197
aI1
aI535
aL0L
aa(lp808
g2
aI807
aI1197
aI1
aI535
aL0L
aa(lp809
g2
aI807
aI39
aI1
aI229
aL0L
aa(lp810
g2
aI807
aI1197
aI1
aI535
aL0L
aa(lp811
g2
aI807
aI1197
aI1
aI535
aL0L
aa(lp812
g2
aI807
aI42
aI1
aI229
aL0L
aa(lp813
g2
aI807
aI1197
aI1
aI535
aL0L
aa(lp814
g2
aI807
aI1197
aI1
aI535
aL0L
aa(lp815
g2
aI807
aI39
aI1
aI229
aL0L
aa(lp816
g2
aI807
aI1197
aI1
aI535
aL0L
aa(lp817
g2
aI807
aI1197
aI1
aI535
aL0L
aa(lp818
g2
aI807
aI56
aI1
aI229
aL0L
aa(lp819
g2
aI807
aI1197
aI1
aI535
aL0L
aa(lp820
g2
aI807
aI1197
aI1
aI535
aL0L
aa(lp821
g2
aI807
aI56
aI1
aI229
aL0L
aa(lp822
g2
aI807
aI1197
aI1
aI535
aL0L
aa(lp823
g2
aI807
aI1197
aI1
aI535
aL0L
aa(lp824
g2
aI807
aI42
aI1
aI229
aL0L
aa(lp825
g2
aI807
aI1197
aI1
aI535
aL0L
aa(lp826
g2
aI807
aI1197
aI1
aI535
aL0L
aa(lp827
g2
aI807
aI31
aI1
aI229
aL0L
aa(lp828
g7
aI520
aI1197
aI1
aI402
aL0L
aa(lp829
g7
aI520
aI1197
aI1
aI402
aL0L
aa(lp830
g7
aI520
aI1197
aI1
aI402
aL0L
aa(lp831
g7
aI520
aI1197
aI1
aI402
aL0L
aa(lp832
g7
aI520
aI10
aI1
aI108
aL0L
aa(lp833
g7
aI520
aI10
aI1
aI108
aL0L
aa(lp834
g7
aI520
aI10
aI1
aI108
aL0L
aa(lp835
g7
aI520
aI10
aI1
aI108
aL0L
aa(lp836
g7
aI520
aI10
aI1
aI108
aL0L
aa(lp837
g7
aI520
aI1197
aI1
aI402
aL0L
aa(lp838
g7
aI520
aI1197
aI1
aI402
aL0L
aa(lp839
g7
aI520
aI1197
aI1
aI402
aL0L
aa(lp840
g7
aI520
aI1197
aI1
aI402
aL0L
aa(lp841
g7
aI520
aI1197
aI1
aI402
aL0L
aa(lp842
g7
aI520
aI1197
aI2
aI402
aL0L
aa(lp843
g7
aI520
aI1197
aI1
aI402
aL0L
aa(lp844
g7
aI520
aI1197
aI1
aI402
aL0L
aa(lp845
g7
aI520
aI1197
aI1
aI402
aL0L
aa(lp846
g7
aI520
aI1197
aI1
aI402
aL0L
aa(lp847
g7
aI520
aI38
aI1
aI108
aL0L
aa(lp848
g7
aI520
aI38
aI1
aI108
aL0L
aa(lp849
g7
aI520
aI38
aI1
aI108
aL0L
aa(lp850
g7
aI520
aI1197
aI1
aI402
aL0L
aa(lp851
g7
aI520
aI24
aI1
aI108
aL0L
aa(lp852
g7
aI520
aI24
aI1
aI108
aL0L
aa(lp853
g7
aI520
aI1197
aI1
aI402
aL0L
aa(lp854
g7
aI520
aI1197
aI1
aI402
aL0L
aa(lp855
g7
aI520
aI1197
aI1
aI402
aL0L
aa(lp856
g7
aI520
aI1197
aI1
aI402
aL0L
aa(lp857
g7
aI520
aI1197
aI1
aI402
aL0L
aa(lp858
g7
aI520
aI1197
aI1
aI402
aL0L
aa(lp859
g7
aI520
aI1197
aI1
aI402
aL0L
aa(lp860
g7
aI520
aI1197
aI1
aI402
aL0L
aa(lp861
g7
aI520
aI1197
aI1
aI402
aL0L
aa(lp862
g7
aI520
aI1197
aI1
aI402
aL0L
aa(lp863
g7
aI520
aI1197
aI1
aI402
aL0L
aa(lp864
g7
aI520
aI1197
aI1
aI402
aL0L
aa(lp865
g7
aI520
aI1197
aI1
aI402
aL0L
aa(lp866
g7
aI520
aI1197
aI1
aI402
aL0L
aa(lp867
g7
aI520
aI1197
aI1
aI402
aL0L
aa(lp868
g7
aI520
aI1197
aI1
aI402
aL0L
aa(lp869
g7
aI520
aI1197
aI1
aI402
aL0L
aa(lp870
g7
aI520
aI1197
aI1
aI402
aL0L
aa(lp871
g7
aI520
aI1197
aI1
aI402
aL0L
aa(lp872
g7
aI520
aI1197
aI1
aI402
aL0L
aa(lp873
g7
aI520
aI1197
aI1
aI402
aL0L
aa(lp874
g7
aI520
aI1197
aI1
aI402
aL0L
aa(lp875
g7
aI520
aI1197
aI1
aI402
aL0L
aa(lp876
g7
aI520
aI1197
aI1
aI402
aL0L
aa(lp877
g7
aI520
aI1197
aI1
aI402
aL0L
aa(lp878
g7
aI520
aI1197
aI1
aI402
aL0L
aa(lp879
g7
aI520
aI1197
aI1
aI402
aL0L
aa(lp880
g7
aI520
aI1197
aI1
aI402
aL0L
aa(lp881
g7
aI520
aI1197
aI1
aI402
aL0L
aa(lp882
g7
aI520
aI1197
aI1
aI402
aL0L
aa(lp883
g7
aI520
aI1197
aI1
aI402
aL0L
aa(lp884
g7
aI520
aI1197
aI1
aI402
aL0L
aa(lp885
g7
aI520
aI1197
aI1
aI402
aL0L
aa(lp886
g7
aI520
aI1197
aI1
aI402
aL0L
aa(lp887
g7
aI520
aI1197
aI1
aI402
aL0L
aa(lp888
g7
aI520
aI1197
aI1
aI402
aL0L
aa(lp889
g7
aI520
aI1197
aI1
aI402
aL0L
aa(lp890
g7
aI520
aI1197
aI1
aI402
aL0L
aa(lp891
g7
aI520
aI1197
aI1
aI402
aL0L
aa(lp892
g7
aI520
aI1197
aI1
aI402
aL0L
aa(lp893
g7
aI520
aI1197
aI1
aI402
aL0L
aa(lp894
g7
aI520
aI1197
aI1
aI402
aL0L
aa(lp895
g7
aI520
aI1197
aI2
aI402
aL0L
aa(lp896
g7
aI520
aI1197
aI1
aI402
aL0L
aa(lp897
g7
aI520
aI1197
aI1
aI402
aL0L
aa(lp898
g7
aI520
aI1197
aI1
aI402
aL0L
aa(lp899
g7
aI520
aI1197
aI1
aI402
aL0L
aa(lp900
g7
aI520
aI1197
aI3
aI402
aL0L
aa(lp901
g7
aI520
aI1197
aI1
aI402
aL0L
aa(lp902
g7
aI520
aI1197
aI1
aI402
aL0L
aa(lp903
g7
aI520
aI1197
aI1
aI402
aL0L
aa(lp904
g7
aI520
aI1197
aI1
aI402
aL0L
aa(lp905
g7
aI520
aI1197
aI1
aI402
aL0L
aa(lp906
g7
aI520
aI1197
aI1
aI402
aL0L
aa(lp907
g7
aI520
aI1197
aI1
aI402
aL0L
aa(lp908
g7
aI520
aI1197
aI1
aI402
aL0L
aa(lp909
g7
aI520
aI1197
aI1
aI402
aL0L
aa(lp910
g7
aI520
aI1197
aI1
aI402
aL0L
aa(lp911
g7
aI520
aI1197
aI2
aI402
aL0L
aa(lp912
g7
aI520
aI1197
aI1
aI402
aL0L
aa(lp913
g7
aI520
aI1197
aI1
aI402
aL0L
aa(lp914
g2
aI807
aI1197
aI1
aI535
aL0L
aa(lp915
g2
aI807
aI1197
aI1
aI535
aL0L
aa(lp916
g2
aI807
aI23
aI1
aI229
aL0L
aa(lp917
g7
aI520
aI1197
aI1
aI402
aL0L
aa(lp918
g7
aI520
aI8
aI1
aI108
aL0L
aa(lp919
g7
aI520
aI1197
aI1
aI402
aL0L
aa(lp920
g7
aI520
aI1197
aI1
aI402
aL0L
aa(lp921
g7
aI520
aI1197
aI1
aI402
aL0L
aa(lp922
g7
aI520
aI1197
aI1
aI402
aL0L
aa(lp923
g7
aI520
aI1197
aI1
aI402
aL0L
aa(lp924
g7
aI520
aI1197
aI1
aI402
aL0L
aa(lp925
g7
aI520
aI1
aI1
aI108
aL0L
aa(lp926
g7
aI520
aI3
aI1
aI108
aL0L
aa(lp927
g7
aI520
aI1197
aI1
aI402
aL0L
aa(lp928
g7
aI520
aI8
aI1
aI108
aL0L
aa(lp929
g7
aI520
aI8
aI1
aI108
aL0L
aa(lp930
g7
aI520
aI8
aI1
aI108
aL0L
aa(lp931
g7
aI520
aI8
aI1
aI108
aL0L
aa(lp932
g7
aI520
aI8
aI1
aI108
aL0L
aa(lp933
g7
aI520
aI1197
aI1
aI402
aL0L
aa(lp934
g7
aI520
aI4
aI1
aI108
aL0L
aa(lp935
g7
aI520
aI1197
aI1
aI402
aL0L
aa(lp936
g7
aI520
aI56
aI1
aI108
aL0L
aa(lp937
g7
aI520
aI1197
aI1
aI402
aL0L
aa(lp938
g7
aI520
aI1197
aI1
aI402
aL0L
aa(lp939
g7
aI520
aI1197
aI1
aI402
aL0L
aa(lp940
g7
aI520
aI1197
aI1
aI402
aL0L
aa(lp941
g7
aI520
aI38
aI1
aI108
aL0L
aa(lp942
g7
aI520
aI2
aI1
aI108
aL0L
aa(lp943
g7
aI520
aI2
aI1
aI108
aL0L
aa(lp944
g7
aI520
aI1197
aI1
aI402
aL0L
aa(lp945
g7
aI520
aI1197
aI1
aI402
aL0L
aa(lp946
g7
aI520
aI8
aI1
aI108
aL0L
aa(lp947
g7
aI520
aI8
aI1
aI108
aL0L
aa(lp948
g7
aI520
aI1197
aI1
aI402
aL0L
aa(lp949
g7
aI520
aI1197
aI1
aI402
aL0L
aa(lp950
g7
aI520
aI1197
aI1
aI402
aL0L
aa(lp951
g7
aI520
aI1197
aI1
aI402
aL0L
aa(lp952
g7
aI520
aI1197
aI1
aI402
aL0L
aa(lp953
g7
aI520
aI1197
aI1
aI402
aL0L
aa(lp954
g7
aI520
aI1197
aI1
aI402
aL0L
aa(lp955
g7
aI520
aI1197
aI2
aI402
aL0L
aa(lp956
g7
aI520
aI1197
aI1
aI402
aL0L
aa(lp957
g7
aI520
aI1197
aI1
aI402
aL0L
aa(lp958
g7
aI520
aI1197
aI1
aI402
aL0L
aa(lp959
g7
aI520
aI1197
aI1
aI402
aL0L
aa(lp960
g7
aI520
aI1197
aI1
aI402
aL0L
aa(lp961
g7
aI520
aI56
aI1
aI108
aL0L
aa(lp962
g7
aI520
aI56
aI1
aI108
aL0L
aa(lp963
g7
aI520
aI1197
aI1
aI402
aL0L
aa(lp964
g7
aI520
aI56
aI1
aI108
aL0L
aa(lp965
g7
aI520
aI56
aI1
aI108
aL0L
aa(lp966
g7
aI520
aI56
aI1
aI108
aL0L
aa(lp967
g7
aI520
aI1197
aI1
aI402
aL0L
aa(lp968
g7
aI520
aI3
aI1
aI108
aL0L
aa(lp969
g7
aI520
aI1197
aI1
aI402
aL0L
aa(lp970
g7
aI520
aI1197
aI1
aI402
aL0L
aa(lp971
g7
aI520
aI1197
aI1
aI402
aL0L
aa(lp972
g7
aI520
aI1197
aI1
aI402
aL0L
aa(lp973
g7
aI520
aI1197
aI1
aI402
aL0L
aa(lp974
g7
aI520
aI1197
aI1
aI402
aL0L
aa(lp975
g7
aI520
aI1197
aI1
aI402
aL0L
aa(lp976
g7
aI520
aI1197
aI1
aI402
aL0L
aa(lp977
g7
aI520
aI1197
aI1
aI402
aL0L
aa(lp978
g7
aI520
aI1197
aI1
aI402
aL0L
aa(lp979
g7
aI520
aI1197
aI1
aI402
aL0L
aa(lp980
g7
aI520
aI1197
aI1
aI402
aL0L
aa(lp981
g7
aI520
aI1197
aI1
aI402
aL0L
aa(lp982
g7
aI520
aI1197
aI1
aI402
aL0L
aa(lp983
g7
aI520
aI1197
aI1
aI402
aL0L
aa(lp984
g7
aI520
aI1197
aI1
aI402
aL0L
aa(lp985
g7
aI520
aI1197
aI1
aI402
aL0L
aa(lp986
g7
aI520
aI1197
aI1
aI402
aL0L
aa(lp987
g7
aI520
aI1197
aI1
aI402
aL0L
aa(lp988
g7
aI520
aI1197
aI1
aI402
aL0L
aa(lp989
g7
aI520
aI1197
aI1
aI402
aL0L
aa(lp990
g7
aI520
aI1197
aI1
aI402
aL0L
aa(lp991
g7
aI520
aI1197
aI1
aI402
aL0L
aa(lp992
g7
aI520
aI1197
aI1
aI402
aL0L
aa(lp993
g7
aI520
aI1197
aI1
aI402
aL0L
aa(lp994
g7
aI520
aI1197
aI1
aI402
aL0L
aa(lp995
g7
aI520
aI1197
aI1
aI402
aL0L
aa(lp996
g7
aI520
aI1197
aI1
aI402
aL0L
aa(lp997
g7
aI520
aI1197
aI1
aI402
aL0L
aa(lp998
g7
aI520
aI1197
aI1
aI402
aL0L
aa(lp999
g7
aI520
aI1197
aI1
aI402
aL0L
aa(lp1000
g7
aI520
aI1197
aI1
aI402
aL0L
aa(lp1001
g7
aI520
aI1197
aI2
aI402
aL0L
aa(lp1002
g7
aI520
aI1197
aI1
aI402
aL0L
aa(lp1003
g7
aI520
aI1197
aI1
aI402
aL0L
aa(lp1004
g7
aI520
aI1197
aI1
aI402
aL0L
aa(lp1005
g7
aI520
aI1197
aI1
aI402
aL0L
aa(lp1006
g7
aI520
aI1197
aI1
aI402
aL0L
aa(lp1007
g7
aI520
aI1197
aI1
aI402
aL0L
aa(lp1008
g7
aI520
aI1197
aI1
aI402
aL0L
aa(lp1009
g7
aI520
aI1197
aI1
aI402
aL0L
aa(lp1010
g7
aI520
aI1197
aI1
aI402
aL0L
aa(lp1011
g7
aI520
aI1197
aI1
aI402
aL0L
aa(lp1012
g7
aI520
aI1197
aI1
aI402
aL0L
aa(lp1013
g7
aI520
aI1197
aI1
aI402
aL0L
aa(lp1014
g7
aI520
aI1197
aI2
aI402
aL0L
aa(lp1015
g7
aI520
aI3
aI1
aI108
aL0L
aa(lp1016
g7
aI520
aI3
aI1
aI108
aL0L
aa(lp1017
g7
aI520
aI1197
aI1
aI402
aL0L
aa(lp1018
g7
aI520
aI1197
aI1
aI402
aL0L
aa(lp1019
g7
aI520
aI1197
aI1
aI402
aL0L
aa(lp1020
g7
aI520
aI1197
aI1
aI402
aL0L
aa(lp1021
g7
aI520
aI1197
aI1
aI402
aL0L
aa(lp1022
g7
aI520
aI1197
aI1
aI402
aL0L
aa(lp1023
g7
aI520
aI1197
aI1
aI402
aL0L
aa(lp1024
g7
aI520
aI1197
aI1
aI402
aL0L
aa(lp1025
g7
aI520
aI1197
aI2
aI402
aL0L
aa(lp1026
g7
aI520
aI1197
aI1
aI402
aL0L
aa(lp1027
g7
aI520
aI1197
aI1
aI402
aL0L
aa(lp1028
g7
aI520
aI1
aI1
aI108
aL0L
aa(lp1029
g7
aI520
aI1197
aI1
aI402
aL0L
aa(lp1030
g7
aI520
aI3
aI1
aI108
aL0L
aa(lp1031
g7
aI520
aI1
aI1
aI108
aL0L
aa(lp1032
g7
aI520
aI1197
aI1
aI402
aL0L
aa(lp1033
g7
aI520
aI1197
aI1
aI402
aL0L
aa(lp1034
g7
aI520
aI1197
aI1
aI402
aL0L
aa(lp1035
g7
aI520
aI1197
aI1
aI402
aL0L
aa(lp1036
g7
aI520
aI4
aI1
aI108
aL0L
aa(lp1037
g7
aI520
aI4
aI1
aI108
aL0L
aa(lp1038
g7
aI520
aI4
aI1
aI108
aL0L
aa(lp1039
g2
aI807
aI1197
aI1
aI535
aL0L
aa(lp1040
g2
aI807
aI1197
aI1
aI535
aL0L
aa(lp1041
g2
aI807
aI19
aI1
aI229
aL0L
aa(lp1042
g2
aI807
aI1197
aI1
aI535
aL0L
aa(lp1043
g2
aI807
aI1197
aI1
aI535
aL0L
aa(lp1044
g2
aI807
aI42
aI1
aI229
aL0L
aa(lp1045
g2
aI807
aI1197
aI2
aI535
aL0L
aa(lp1046
g2
aI807
aI1197
aI1
aI535
aL0L
aa(lp1047
g2
aI807
aI19
aI1
aI229
aL0L
aa(lp1048
g2
aI807
aI1197
aI1
aI535
aL0L
aa(lp1049
g2
aI807
aI1197
aI3
aI535
aL0L
aa(lp1050
g2
aI807
aI39
aI1
aI229
aL0L
aa(lp1051
g2
aI807
aI1197
aI1
aI535
aL0L
aa(lp1052
g2
aI807
aI1197
aI1
aI535
aL0L
aa(lp1053
g2
aI807
aI56
aI1
aI229
aL0L
aa(lp1054
g2
aI807
aI1197
aI1
aI535
aL0L
aa(lp1055
g2
aI807
aI1197
aI1
aI535
aL0L
aa(lp1056
g2
aI807
aI42
aI1
aI229
aL0L
aa(lp1057
S'147.32.84.170'
p1058
aI807
aI1197
aI1
aI535
aL0L
aa(lp1059
g1058
aI807
aI1197
aI1
aI535
aL0L
aa(lp1060
g1058
aI807
aI39
aI1
aI229
aL0L
aa(lp1061
g1058
aI807
aI1197
aI1
aI535
aL0L
aa(lp1062
g1058
aI807
aI1197
aI2
aI535
aL0L
aa(lp1063
g1058
aI807
aI39
aI1
aI229
aL0L
aa(lp1064
g1058
aI807
aI1197
aI1
aI535
aL0L
aa(lp1065
g1058
aI807
aI1197
aI1
aI535
aL0L
aa(lp1066
g1058
aI807
aI31
aI1
aI229
aL0L
aa(lp1067
g1058
aI807
aI1197
aI2
aI535
aL0L
aa(lp1068
g1058
aI807
aI1197
aI1
aI535
aL0L
aa(lp1069
g1058
aI807
aI42
aI1
aI229
aL0L
aa(lp1070
g1058
aI807
aI38
aI1
aI41
aL0L
aa(lp1071
g1058
aI807
aI38
aI1
aI41
aL0L
aa(lp1072
g1058
aI807
aI56
aI1
aI41
aL0L
aa(lp1073
g1058
aI807
aI38
aI1
aI41
aL0L
aa(lp1074
g1058
aI807
aI56
aI1
aI41
aL0L
aa(lp1075
g1058
aI807
aI56
aI1
aI41
aL0L
aa(lp1076
g1058
aI807
aI1197
aI1
aI535
aL0L
aa(lp1077
g1058
aI807
aI1197
aI1
aI535
aL0L
aa(lp1078
g1058
aI807
aI38
aI1
aI229
aL0L
aa(lp1079
S'147.32.84.134'
p1080
aI292
aI1197
aI1
aI193
aL0L
aa(lp1081
g1080
aI292
aI1197
aI1
aI193
aL0L
aa(lp1082
g1080
aI292
aI1197
aI1
aI193
aL0L
aa(lp1083
g1080
aI292
aI1197
aI1
aI193
aL0L
aa(lp1084
g1080
aI292
aI1197
aI1
aI193
aL0L
aa(lp1085
g1080
aI292
aI4
aI1
aI40
aL0L
aa(lp1086
g1058
aI807
aI1197
aI1
aI535
aL0L
aa(lp1087
g1058
aI807
aI1197
aI1
aI535
aL0L
aa(lp1088
g1058
aI807
aI23
aI1
aI229
aL0L
aa(lp1089
S'147.32.87.36'
p1090
aI48
aI1197
aI2
aI46
aL0L
aa(lp1091
g1090
aI48
aI1197
aI2
aI46
aL0L
aa(lp1092
g1058
aI807
aI1197
aI1
aI535
aL0L
aa(lp1093
g1058
aI807
aI1197
aI1
aI535
aL0L
aa(lp1094
g1058
aI807
aI38
aI1
aI229
aL0L
aa(lp1095
g1058
aI807
aI1197
aI1
aI535
aL0L
aa(lp1096
g1058
aI807
aI1197
aI1
aI535
aL0L
aa(lp1097
g1058
aI807
aI8
aI1
aI229
aL0L
aa(lp1098
g1058
aI807
aI1197
aI1
aI535
aL0L
aa(lp1099
g1058
aI807
aI1197
aI1
aI535
aL0L
aa(lp1100
g1058
aI807
aI1
aI1
aI229
aL0L
aa(lp1101
g1058
aI807
aI1197
aI1
aI535
aL0L
aa(lp1102
g1058
aI807
aI1197
aI1
aI535
aL0L
aa(lp1103
g1058
aI807
aI42
aI1
aI229
aL0L
aa(lp1104
g1058
aI807
aI1197
aI1
aI535
aL0L
aa(lp1105
g1058
aI807
aI1197
aI2
aI535
aL0L
aa(lp1106
g1058
aI807
aI56
aI1
aI229
aL0L
aa(lp1107
g1058
aI807
aI1197
aI1
aI535
aL0L
aa(lp1108
g1058
aI807
aI1197
aI1
aI535
aL0L
aa(lp1109
g1058
aI807
aI38
aI1
aI229
aL0L
aa(lp1110
g1058
aI807
aI1197
aI1
aI535
aL0L
aa(lp1111
g1058
aI807
aI1197
aI1
aI535
aL0L
aa(lp1112
g1058
aI807
aI31
aI1
aI41
aL0L
aa(lp1113
g1058
aI807
aI1197
aI1
aI535
aL0L
aa(lp1114
g1058
aI807
aI1197
aI1
aI535
aL0L
aa(lp1115
g1058
aI807
aI56
aI1
aI229
aL0L
aa(lp1116
g1058
aI807
aI1197
aI1
aI535
aL0L
aa(lp1117
g1058
aI807
aI1197
aI1
aI535
aL0L
aa(lp1118
g1058
aI807
aI42
aI1
aI229
aL0L
aa(lp1119
g1058
aI807
aI1197
aI1
aI535
aL0L
aa(lp1120
g1058
aI807
aI1197
aI1
aI535
aL0L
aa(lp1121
g1058
aI807
aI56
aI1
aI229
aL0L
aa(lp1122
g1058
aI807
aI1197
aI1
aI535
aL0L
aa(lp1123
g1058
aI807
aI1197
aI1
aI535
aL0L
aa(lp1124
g1058
aI807
aI38
aI1
aI229
aL0L
aa(lp1125
g1058
aI807
aI1197
aI1
aI535
aL0L
aa(lp1126
g1058
aI807
aI1197
aI1
aI535
aL0L
aa(lp1127
g1058
aI807
aI19
aI1
aI229
aL0L
aa(lp1128
g1058
aI807
aI1197
aI1
aI535
aL0L
aa(lp1129
g1058
aI807
aI1197
aI2
aI535
aL0L
aa(lp1130
g1058
aI807
aI42
aI1
aI229
aL0L
aa(lp1131
g1058
aI807
aI1197
aI1
aI535
aL0L
aa(lp1132
g1058
aI807
aI1197
aI1
aI535
aL0L
aa(lp1133
g1058
aI807
aI38
aI1
aI229
aL0L
aa(lp1134
g1058
aI807
aI1197
aI1
aI535
aL0L
aa(lp1135
g1058
aI807
aI1197
aI1
aI535
aL0L
aa(lp1136
g1058
aI807
aI56
aI1
aI229
aL0L
aa(lp1137
g1058
aI807
aI1197
aI1
aI535
aL0L
aa(lp1138
g1058
aI807
aI1197
aI1
aI535
aL0L
aa(lp1139
g1058
aI807
aI38
aI1
aI229
aL0L
aa(lp1140
g1058
aI807
aI1197
aI1
aI535
aL0L
aa(lp1141
g1058
aI807
aI1197
aI1
aI535
aL0L
aa(lp1142
g1058
aI807
aI42
aI1
aI229
aL0L
aa(lp1143
g1058
aI807
aI1197
aI1
aI535
aL0L
aa(lp1144
g1058
aI807
aI1197
aI1
aI535
aL0L
aa(lp1145
g1058
aI807
aI31
aI1
aI229
aL0L
aa(lp1146
g1058
aI807
aI1197
aI1
aI535
aL0L
aa(lp1147
g1058
aI807
aI1197
aI1
aI535
aL0L
aa(lp1148
g1058
aI807
aI1197
aI1
aI535
aL0L
aa(lp1149
g1058
aI807
aI1197
aI1
aI535
aL0L
aa(lp1150
g1058
aI807
aI1197
aI1
aI535
aL0L
aa(lp1151
g1058
aI807
aI4
aI1
aI229
aL0L
aa(lp1152
g1058
aI807
aI1197
aI1
aI535
aL0L
aa(lp1153
g1058
aI807
aI1197
aI1
aI535
aL0L
aa(lp1154
g1058
aI807
aI4
aI1
aI229
aL0L
aa(lp1155
g1058
aI807
aI1197
aI1
aI535
aL0L
aa(lp1156
g1058
aI807
aI1197
aI1
aI535
aL0L
aa(lp1157
g1058
aI807
aI4
aI1
aI229
aL0L
aa(lp1158
g1058
aI807
aI1197
aI1
aI535
aL0L
aa(lp1159
g1058
aI807
aI39
aI1
aI229
aL0L
aa(lp1160
g1058
aI807
aI39
aI1
aI229
aL0L
aa(lp1161
g1058
aI807
aI1197
aI1
aI535
aL0L
aa(lp1162
g1058
aI807
aI39
aI1
aI229
aL0L
aa(lp1163
g1058
aI807
aI1197
aI1
aI535
aL0L
aa(lp1164
g1058
aI807
aI39
aI1
aI229
aL0L
aa(lp1165
g1058
aI807
aI1197
aI1
aI535
aL0L
aa(lp1166
g1058
aI807
aI39
aI1
aI229
aL0L
aa(lp1167
g1058
aI807
aI39
aI1
aI229
aL0L
aa(lp1168
g1058
aI807
aI1197
aI1
aI535
aL0L
aa(lp1169
g1058
aI807
aI1197
aI1
aI535
aL0L
aa(lp1170
g1058
aI807
aI1197
aI1
aI535
aL0L
aa(lp1171
g1058
aI807
aI1197
aI1
aI535
aL0L
aa(lp1172
g1058
aI807
aI24
aI1
aI229
aL0L
aa(lp1173
g1058
aI807
aI24
aI1
aI229
aL0L
aa(lp1174
g1058
aI807
aI1197
aI1
aI535
aL0L
aa(lp1175
g1058
aI807
aI1197
aI1
aI535
aL0L
aa(lp1176
g1058
aI807
aI1197
aI1
aI535
aL0L
aa(lp1177
g1058
aI807
aI1197
aI1
aI535
aL0L
aa(lp1178
g1058
aI807
aI1197
aI1
aI535
aL0L
aa(lp1179
g1058
aI807
aI1197
aI1
aI535
aL0L
aa(lp1180
g1058
aI807
aI1197
aI1
aI535
aL0L
aa(lp1181
g1058
aI807
aI1197
aI1
aI535
aL0L
aa(lp1182
g1058
aI807
aI1197
aI1
aI535
aL0L
aa(lp1183
g1058
aI807
aI1197
aI1
aI535
aL0L
aa(lp1184
g1058
aI807
aI1197
aI1
aI535
aL0L
aa(lp1185
g1058
aI807
aI1197
aI1
aI535
aL0L
aa(lp1186
g1058
aI807
aI1197
aI1
aI535
aL0L
aa(lp1187
g1058
aI807
aI1197
aI1
aI535
aL0L
aa(lp1188
g1058
aI807
aI1197
aI1
aI535
aL0L
aa(lp1189
g1058
aI807
aI1197
aI1
aI535
aL0L
aa(lp1190
g1058
aI807
aI1197
aI2
aI535
aL0L
aa(lp1191
g1058
aI807
aI1197
aI1
aI535
aL0L
aa(lp1192
g1058
aI807
aI1197
aI1
aI535
aL0L
aa(lp1193
g1058
aI807
aI1197
aI1
aI535
aL0L
aa(lp1194
g1058
aI807
aI1197
aI1
aI535
aL0L
aa(lp1195
g1058
aI807
aI1197
aI1
aI535
aL0L
aa(lp1196
g1058
aI807
aI1197
aI1
aI535
aL0L
aa(lp1197
g1058
aI807
aI1197
aI1
aI535
aL0L
aa(lp1198
g1058
aI807
aI1197
aI1
aI535
aL0L
aa(lp1199
g1058
aI807
aI1197
aI1
aI535
aL0L
aa(lp1200
g1058
aI807
aI1197
aI1
aI535
aL0L
aa(lp1201
g1058
aI807
aI1197
aI1
aI535
aL0L
aa(lp1202
g1058
aI807
aI1197
aI1
aI535
aL0L
aa(lp1203
g1058
aI807
aI1197
aI1
aI535
aL0L
aa(lp1204
g1058
aI807
aI1197
aI1
aI535
aL0L
aa(lp1205
g1058
aI807
aI1197
aI1
aI535
aL0L
aa(lp1206
g1058
aI807
aI1197
aI1
aI535
aL0L
aa(lp1207
g1058
aI807
aI1197
aI1
aI535
aL0L
aa(lp1208
g1058
aI807
aI1197
aI1
aI535
aL0L
aa(lp1209
g1058
aI807
aI1197
aI1
aI535
aL0L
aa(lp1210
g1058
aI807
aI1197
aI1
aI535
aL0L
aa(lp1211
g1058
aI807
aI1197
aI1
aI535
aL0L
aa(lp1212
g1058
aI807
aI1197
aI1
aI535
aL0L
aa(lp1213
g1058
aI807
aI1197
aI1
aI535
aL0L
aa(lp1214
g1058
aI807
aI1197
aI1
aI535
aL0L
aa(lp1215
g1058
aI807
aI1197
aI1
aI535
aL0L
aa(lp1216
g1058
aI807
aI1197
aI1
aI535
aL0L
aa(lp1217
g1058
aI807
aI1197
aI1
aI535
aL0L
aa(lp1218
g1058
aI807
aI1197
aI1
aI535
aL0L
aa(lp1219
g1058
aI807
aI1197
aI1
aI535
aL0L
aa(lp1220
g1058
aI807
aI1197
aI1
aI535
aL0L
aa(lp1221
g1058
aI807
aI1197
aI1
aI535
aL0L
aa(lp1222
g1058
aI807
aI1197
aI1
aI535
aL0L
aa(lp1223
g1058
aI807
aI1197
aI1
aI535
aL0L
aa(lp1224
g1058
aI807
aI1197
aI1
aI535
aL0L
aa(lp1225
g1058
aI807
aI1197
aI1
aI535
aL0L
aa(lp1226
g1058
aI807
aI1197
aI1
aI535
aL0L
aa(lp1227
g1058
aI807
aI1197
aI1
aI535
aL0L
aa(lp1228
g1058
aI807
aI1197
aI1
aI535
aL0L
aa(lp1229
g1058
aI807
aI1197
aI1
aI535
aL0L
aa(lp1230
g1058
aI807
aI6
aI1
aI229
aL0L
aa(lp1231
g1058
aI807
aI6
aI1
aI229
aL0L
aa(lp1232
g1058
aI807
aI6
aI1
aI229
aL0L
aa(lp1233
g1058
aI807
aI6
aI1
aI229
aL0L
aa(lp1234
g1058
aI807
aI6
aI1
aI229
aL0L
aa(lp1235
g1058
aI807
aI6
aI1
aI229
aL0L
aa(lp1236
g1058
aI807
aI1197
aI1
aI535
aL0L
aa(lp1237
g1058
aI807
aI1197
aI1
aI535
aL0L
aa(lp1238
g1058
aI807
aI2
aI1
aI229
aL0L
aa(lp1239
g1058
aI807
aI2
aI1
aI229
aL0L
aa(lp1240
g1058
aI807
aI1197
aI1
aI535
aL0L
aa(lp1241
g1058
aI807
aI1197
aI1
aI535
aL0L
aa(lp1242
g1058
aI807
aI1197
aI1
aI535
aL0L
aa(lp1243
g1058
aI807
aI1
aI1
aI229
aL0L
aa(lp1244
g1058
aI807
aI1197
aI1
aI535
aL0L
aa(lp1245
g1058
aI807
aI1197
aI1
aI535
aL0L
aa(lp1246
g1058
aI807
aI31
aI1
aI229
aL0L
aa(lp1247
g1058
aI807
aI1197
aI1
aI535
aL0L
aa(lp1248
g1058
aI807
aI1197
aI1
aI535
aL0L
aa(lp1249
g1058
aI807
aI56
aI1
aI229
aL0L
aa(lp1250
g1058
aI807
aI1197
aI1
aI535
aL0L
aa(lp1251
g1058
aI807
aI1197
aI1
aI535
aL0L
aa(lp1252
g1058
aI807
aI42
aI1
aI229
aL0L
aa(lp1253
g1058
aI807
aI1197
aI1
aI535
aL0L
aa(lp1254
g1058
aI807
aI1197
aI1
aI535
aL0L
aa(lp1255
g1058
aI807
aI23
aI1
aI229
aL0L
aa(lp1256
g1058
aI807
aI2
aI1
aI41
aL0L
aa(lp1257
g1058
aI807
aI1197
aI1
aI535
aL0L
aa(lp1258
g1058
aI807
aI1197
aI1
aI535
aL0L
aa(lp1259
g1058
aI807
aI56
aI1
aI229
aL0L
aa(lp1260
g1058
aI807
aI1197
aI1
aI535
aL0L
aa(lp1261
g1058
aI807
aI1197
aI1
aI535
aL0L
aa(lp1262
g1058
aI807
aI31
aI1
aI229
aL0L
aa(lp1263
g1058
aI807
aI1197
aI1
aI535
aL0L
aa(lp1264
g1058
aI807
aI1197
aI1
aI535
aL0L
aa(lp1265
g1058
aI807
aI42
aI1
aI229
aL0L
aa(lp1266
g1058
aI807
aI1197
aI1
aI535
aL0L
aa(lp1267
g1058
aI807
aI1197
aI1
aI535
aL0L
aa(lp1268
g1058
aI807
aI31
aI1
aI229
aL0L
aa(lp1269
g1058
aI807
aI1197
aI1
aI535
aL0L
aa(lp1270
g1058
aI807
aI1197
aI1
aI535
aL0L
aa(lp1271
g1058
aI807
aI39
aI1
aI229
aL0L
aa(lp1272
g1058
aI807
aI1197
aI1
aI535
aL0L
aa(lp1273
g1058
aI807
aI1197
aI2
aI535
aL0L
aa(lp1274
g1058
aI807
aI19
aI1
aI229
aL0L
aa(lp1275
g1058
aI807
aI1197
aI1
aI535
aL0L
aa(lp1276
g1058
aI807
aI1197
aI1
aI535
aL0L
aa(lp1277
g1058
aI807
aI38
aI1
aI229
aL0L
aa(lp1278
g1058
aI807
aI1197
aI1
aI535
aL0L
aa(lp1279
g1058
aI807
aI1197
aI1
aI535
aL0L
aa(lp1280
g1058
aI807
aI42
aI1
aI229
aL0L
aa(lp1281
g1058
aI807
aI1197
aI1
aI535
aL0L
aa(lp1282
g1058
aI807
aI1197
aI1
aI535
aL0L
aa(lp1283
g1058
aI807
aI6
aI1
aI229
aL0L
aa(lp1284
g1058
aI807
aI6
aI1
aI229
aL0L
aa(lp1285
g1058
aI807
aI6
aI1
aI229
aL0L
aa(lp1286
g1058
aI807
aI6
aI1
aI229
aL0L
aa(lp1287
g1058
aI807
aI6
aI1
aI229
aL0L
aa(lp1288
g1058
aI807
aI6
aI1
aI229
aL0L
aa(lp1289
g1058
aI807
aI1197
aI1
aI535
aL0L
aa(lp1290
g1058
aI807
aI1197
aI1
aI535
aL0L
aa(lp1291
g1058
aI807
aI1197
aI2
aI535
aL0L
aa(lp1292
g1058
aI807
aI1197
aI1
aI535
aL0L
aa(lp1293
g1058
aI807
aI1197
aI1
aI535
aL0L
aa(lp1294
g1058
aI807
aI3
aI1
aI229
aL0L
aa(lp1295
g1058
aI807
aI3
aI1
aI229
aL0L
aa(lp1296
g1058
aI807
aI3
aI1
aI229
aL0L
aa(lp1297
g1058
aI807
aI1
aI1
aI229
aL0L
aa(lp1298
g1058
aI807
aI1197
aI1
aI535
aL0L
aa(lp1299
g1058
aI807
aI1197
aI1
aI535
aL0L
aa(lp1300
g1058
aI807
aI1197
aI1
aI535
aL0L
aa(lp1301
g1058
aI807
aI1197
aI1
aI535
aL0L
aa(lp1302
g1058
aI807
aI1197
aI1
aI535
aL0L
aa(lp1303
g1058
aI807
aI1197
aI1
aI535
aL0L
aa(lp1304
S'147.32.84.164'
p1305
aI520
aI1197
aI1
aI402
aL0L
aa(lp1306
g1305
aI520
aI1197
aI1
aI402
aL0L
aa(lp1307
g1305
aI520
aI1197
aI1
aI402
aL0L
aa(lp1308
g1305
aI520
aI1
aI1
aI1
aL0L
aa(lp1309
g1058
aI807
aI1197
aI1
aI535
aL0L
aa(lp1310
g1058
aI807
aI1197
aI2
aI535
aL0L
aa(lp1311
g1058
aI807
aI19
aI1
aI229
aL0L
aa(lp1312
g1090
aI48
aI1197
aI1
aI46
aL0L
aa(lp1313
g1090
aI48
aI1197
aI1
aI46
aL0L
aa(lp1314
g1090
aI48
aI1197
aI1
aI46
aL0L
aa(lp1315
g1090
aI48
aI1197
aI1
aI46
aL0L
aa(lp1316
g1058
aI807
aI1197
aI1
aI535
aL0L
aa(lp1317
g1058
aI807
aI1197
aI1
aI535
aL0L
aa(lp1318
g1058
aI807
aI19
aI1
aI229
aL0L
aa(lp1319
g1090
aI48
aI1197
aI1
aI46
aL0L
aa(lp1320
g1090
aI48
aI1197
aI1
aI46
aL0L
aa(lp1321
g1090
aI48
aI1197
aI1
aI46
aL0L
aa(lp1322
g1090
aI48
aI1197
aI1
aI46
aL0L
aa(lp1323
g1058
aI807
aI1197
aI1
aI535
aL0L
aa(lp1324
g1058
aI807
aI1197
aI1
aI535
aL0L
aa(lp1325
g1058
aI807
aI56
aI1
aI229
aL0L
aa(lp1326
g1090
aI48
aI1197
aI1
aI46
aL0L
aa(lp1327
g1090
aI48
aI1197
aI1
aI46
aL0L
aa(lp1328
g1090
aI48
aI1197
aI1
aI46
aL0L
aa(lp1329
g1090
aI48
aI1197
aI1
aI46
aL0L
aa(lp1330
g1090
aI48
aI1197
aI1
aI46
aL0L
aa(lp1331
g1090
aI48
aI1197
aI2
aI46
aL0L
aa(lp1332
g1090
aI48
aI1197
aI1
aI46
aL0L
aa(lp1333
g1090
aI48
aI1197
aI1
aI46
aL0L
aa(lp1334
g1058
aI807
aI1197
aI1
aI535
aL0L
aa(lp1335
g1058
aI807
aI1197
aI1
aI535
aL0L
aa(lp1336
g1058
aI807
aI42
aI1
aI229
aL0L
aa(lp1337
g1090
aI48
aI1197
aI1
aI46
aL0L
aa(lp1338
g1090
aI48
aI1197
aI1
aI46
aL0L
aa(lp1339
g1058
aI807
aI1197
aI1
aI535
aL0L
aa(lp1340
g1058
aI807
aI1197
aI2
aI535
aL0L
aa(lp1341
g1058
aI807
aI56
aI1
aI229
aL0L
aa(lp1342
g1090
aI48
aI1197
aI1
aI46
aL0L
aa(lp1343
g1090
aI48
aI1197
aI1
aI46
aL0L
aa(lp1344
g1090
aI48
aI1197
aI1
aI46
aL0L
aa(lp1345
g1090
aI48
aI1197
aI1
aI46
aL0L
aa(lp1346
g1058
aI807
aI1197
aI1
aI535
aL0L
aa(lp1347
g1058
aI807
aI1197
aI1
aI535
aL0L
aa(lp1348
g1058
aI807
aI19
aI1
aI229
aL0L
aa(lp1349
g1058
aI807
aI1197
aI1
aI535
aL0L
aa(lp1350
g1058
aI807
aI1197
aI1
aI535
aL0L
aa(lp1351
g1058
aI807
aI38
aI1
aI229
aL0L
aa(lp1352
g1058
aI807
aI1197
aI1
aI535
aL0L
aa(lp1353
g1058
aI807
aI1197
aI1
aI535
aL0L
aa(lp1354
g1058
aI807
aI42
aI1
aI229
aL0L
aa(lp1355
g1058
aI807
aI1197
aI1
aI535
aL0L
aa(lp1356
g1058
aI807
aI1197
aI1
aI535
aL0L
aa(lp1357
g1058
aI807
aI39
aI1
aI229
aL0L
aa(lp1358
g1090
aI48
aI1197
aI1
aI46
aL0L
aa(lp1359
g1090
aI48
aI1197
aI1
aI46
aL0L
aa(lp1360
g1058
aI807
aI1197
aI1
aI535
aL0L
aa(lp1361
g1058
aI807
aI1197
aI1
aI535
aL0L
aa(lp1362
g1058
aI807
aI39
aI1
aI229
aL0L
aa(lp1363
g1058
aI807
aI1197
aI1
aI535
aL0L
aa(lp1364
g1058
aI807
aI1197
aI1
aI535
aL0L
aa(lp1365
g1058
aI807
aI3
aI1
aI229
aL0L
aa(lp1366
g1058
aI807
aI1197
aI1
aI535
aL0L
aa(lp1367
g1058
aI807
aI1197
aI3
aI535
aL0L
aa(lp1368
g1058
aI807
aI1
aI1
aI229
aL0L
aa(lp1369
g1058
aI807
aI1197
aI1
aI535
aL0L
aa(lp1370
g1058
aI807
aI1197
aI1
aI535
aL0L
aa(lp1371
g1058
aI807
aI38
aI1
aI41
aL0L
aa(lp1372
g1058
aI807
aI38
aI1
aI41
aL0L
aa(lp1373
g1058
aI807
aI56
aI1
aI41
aL0L
aa(lp1374
g1058
aI807
aI38
aI1
aI41
aL0L
aa(lp1375
g1058
aI807
aI56
aI1
aI41
aL0L
aa(lp1376
g1058
aI807
aI56
aI1
aI41
aL0L
aa(lp1377
g1058
aI807
aI1197
aI1
aI535
aL0L
aa(lp1378
g1058
aI807
aI1197
aI1
aI535
aL0L
aa(lp1379
g1058
aI807
aI39
aI1
aI41
aL0L
aa(lp1380
g1058
aI807
aI39
aI1
aI41
aL0L
aa(lp1381
g1058
aI807
aI39
aI1
aI41
aL0L
aa(lp1382
g1058
aI807
aI39
aI1
aI41
aL0L
aa(lp1383
g1058
aI807
aI39
aI1
aI41
aL0L
aa(lp1384
g1058
aI807
aI39
aI1
aI41
aL0L
aa(lp1385
g1058
aI807
aI1197
aI1
aI535
aL0L
aa(lp1386
g1058
aI807
aI1197
aI1
aI535
aL0L
aa(lp1387
g1058
aI807
aI38
aI1
aI229
aL0L
aa(lp1388
g1058
aI807
aI1197
aI1
aI535
aL0L
aa(lp1389
g1058
aI807
aI1197
aI1
aI535
aL0L
aa(lp1390
g1058
aI807
aI42
aI1
aI229
aL0L
aa(lp1391
g1080
aI292
aI1197
aI2
aI193
aL0L
aa(lp1392
g1080
aI292
aI1197
aI1
aI193
aL0L
aa(lp1393
g1080
aI292
aI1197
aI1
aI193
aL0L
aa(lp1394
g1080
aI292
aI1197
aI1
aI193
aL0L
aa(lp1395
g1080
aI292
aI1197
aI1
aI193
aL0L
aa(lp1396
g1080
aI292
aI17
aI1
aI40
aL0L
aa(lp1397
g1058
aI807
aI1197
aI1
aI535
aL0L
aa(lp1398
g1058
aI807
aI1197
aI1
aI535
aL0L
aa(lp1399
g1058
aI807
aI56
aI1
aI229
aL0L
aa(lp1400
g1058
aI807
aI1197
aI1
aI535
aL0L
aa(lp1401
g1058
aI807
aI1197
aI2
aI535
aL0L
aa(lp1402
g1058
aI807
aI1197
aI1
aI535
aL0L
aa(lp1403
g1058
aI807
aI1197
aI1
aI535
aL0L
aa(lp1404
g1058
aI807
aI1197
aI1
aI535
aL0L
aa(lp1405
g1058
aI807
aI19
aI1
aI229
aL0L
aa(lp1406
g1058
aI807
aI1197
aI1
aI535
aL0L
aa(lp1407
g1058
aI807
aI1197
aI1
aI535
aL0L
aa(lp1408
g1058
aI807
aI23
aI1
aI229
aL0L
aa(lp1409
g1058
aI807
aI1197
aI1
aI535
aL0L
aa(lp1410
g1058
aI807
aI1197
aI1
aI535
aL0L
aa(lp1411
g1058
aI807
aI42
aI1
aI229
aL0L
aa(lp1412
g1058
aI807
aI1197
aI1
aI535
aL0L
aa(lp1413
g1058
aI807
aI1197
aI1
aI535
aL0L
aa(lp1414
g1058
aI807
aI39
aI1
aI229
aL0L
aa(lp1415
g1058
aI807
aI1197
aI1
aI535
aL0L
aa(lp1416
g1058
aI807
aI1197
aI1
aI535
aL0L
aa(lp1417
g1058
aI807
aI39
aI1
aI229
aL0L
aa(lp1418
g1090
aI48
aI1197
aI2
aI46
aL0L
aa(lp1419
g1090
aI48
aI1197
aI1
aI46
aL0L
aa(lp1420
g1090
aI48
aI1197
aI2
aI46
aL0L
aa(lp1421
g1090
aI48
aI1197
aI1
aI46
aL0L
aa(lp1422
g1058
aI807
aI1197
aI1
aI535
aL0L
aa(lp1423
g1058
aI807
aI1197
aI1
aI535
aL0L
aa(lp1424
g1058
aI807
aI56
aI1
aI229
aL0L
aa(lp1425
g1058
aI807
aI1197
aI1
aI535
aL0L
aa(lp1426
g1058
aI807
aI1197
aI1
aI535
aL0L
aa(lp1427
g1058
aI807
aI42
aI1
aI229
aL0L
aa(lp1428
g1090
aI48
aI1197
aI1
aI46
aL0L
aa(lp1429
g1090
aI48
aI1197
aI1
aI46
aL0L
aa(lp1430
g1090
aI48
aI1197
aI1
aI46
aL0L
aa(lp1431
g1090
aI48
aI1197
aI1
aI46
aL0L
aa(lp1432
g1058
aI807
aI1197
aI1
aI535
aL0L
aa(lp1433
g1058
aI807
aI1197
aI1
aI535
aL0L
aa(lp1434
g1058
aI807
aI31
aI1
aI229
aL0L
aa(lp1435
g1080
aI292
aI1197
aI1
aI193
aL0L
aa(lp1436
g1080
aI292
aI1197
aI1
aI193
aL0L
aa(lp1437
g1058
aI807
aI1197
aI1
aI535
aL0L
aa(lp1438
g1058
aI807
aI1197
aI1
aI535
aL0L
aa(lp1439
g1058
aI807
aI56
aI1
aI229
aL0L
aa(lp1440
g1058
aI807
aI1197
aI1
aI535
aL0L
aa(lp1441
g1058
aI807
aI1197
aI1
aI535
aL0L
aa(lp1442
g1058
aI807
aI31
aI1
aI229
aL0L
aa(lp1443
g1058
aI807
aI1197
aI1
aI535
aL0L
aa(lp1444
g1058
aI807
aI1197
aI1
aI535
aL0L
aa(lp1445
g1058
aI807
aI42
aI1
aI229
aL0L
aa(lp1446
g1058
aI807
aI1197
aI1
aI535
aL0L
aa(lp1447
g1058
aI807
aI1197
aI1
aI535
aL0L
aa(lp1448
g1058
aI807
aI38
aI1
aI229
aL0L
aa(lp1449
g1058
aI807
aI1197
aI1
aI535
aL0L
aa(lp1450
g1058
aI807
aI1197
aI2
aI535
aL0L
aa(lp1451
g1058
aI807
aI23
aI1
aI229
aL0L
aa(lp1452
g1090
aI48
aI1197
aI1
aI46
aL0L
aa(lp1453
g1090
aI48
aI1197
aI1
aI46
aL0L
aa(lp1454
g1058
aI807
aI1197
aI1
aI535
aL0L
aa(lp1455
g1058
aI807
aI1197
aI1
aI535
aL0L
aa(lp1456
g1058
aI807
aI19
aI1
aI229
aL0L
aa(lp1457
g1090
aI48
aI1197
aI2
aI46
aL0L
aa(lp1458
g1090
aI48
aI1197
aI1
aI46
aL0L
aa(lp1459
g1058
aI807
aI1197
aI1
aI535
aL0L
aa(lp1460
g1058
aI807
aI1197
aI1
aI535
aL0L
aa(lp1461
g1058
aI807
aI42
aI1
aI229
aL0L
aa(lp1462
g1058
aI807
aI1197
aI1
aI535
aL0L
aa(lp1463
g1058
aI807
aI1197
aI1
aI535
aL0L
aa(lp1464
g1058
aI807
aI8
aI1
aI229
aL0L
aa(lp1465
g1058
aI807
aI1197
aI1
aI535
aL0L
aa(lp1466
g1058
aI807
aI1197
aI1
aI535
aL0L
aa(lp1467
g1058
aI807
aI1
aI1
aI229
aL0L
aa(lp1468
g1090
aI48
aI1197
aI1
aI46
aL0L
aa(lp1469
g1090
aI48
aI1197
aI1
aI46
aL0L
aa(lp1470
g1058
aI807
aI1197
aI1
aI535
aL0L
aa(lp1471
g1058
aI807
aI1197
aI1
aI535
aL0L
aa(lp1472
g1058
aI807
aI31
aI1
aI229
aL0L
aa(lp1473
g1090
aI48
aI1197
aI1
aI46
aL0L
aa(lp1474
g1090
aI48
aI1197
aI1
aI46
aL0L
aa(lp1475
g1058
aI807
aI1197
aI1
aI535
aL0L
aa(lp1476
g1058
aI807
aI1197
aI1
aI535
aL0L
aa(lp1477
g1058
aI807
aI38
aI1
aI229
aL0L
aa(lp1478
g1058
aI807
aI1197
aI1
aI535
aL0L
aa(lp1479
g1058
aI807
aI1197
aI1
aI535
aL0L
aa(lp1480
g1058
aI807
aI38
aI1
aI229
aL0L
aa(lp1481
g1058
aI807
aI1197
aI1
aI535
aL0L
aa(lp1482
g1058
aI807
aI1197
aI1
aI535
aL0L
aa(lp1483
g1058
aI807
aI42
aI1
aI229
aL0L
aa(lp1484
g1305
aI520
aI1197
aI1
aI402
aL0L
aa(lp1485
g1305
aI520
aI1197
aI1
aI402
aL0L
aa(lp1486
g1058
aI807
aI1197
aI1
aI535
aL0L
aa(lp1487
g1058
aI807
aI1197
aI1
aI535
aL0L
aa(lp1488
g1058
aI807
aI56
aI1
aI229
aL0L
aa(lp1489
g1080
aI292
aI1197
aI1
aI193
aL0L
aa(lp1490
g1080
aI292
aI1197
aI1
aI193
aL0L
aa(lp1491
g1080
aI292
aI56
aI1
aI57
aL0L
aa(lp1492
g1080
aI292
aI56
aI1
aI57
aL0L
aa(lp1493
g1080
aI292
aI56
aI1
aI57
aL0L
aa(lp1494
g1080
aI292
aI1197
aI1
aI193
aL0L
aa(lp1495
g1080
aI292
aI1197
aI1
aI193
aL0L
aa(lp1496
g1080
aI292
aI1197
aI1
aI193
aL0L
aa(lp1497
g1080
aI292
aI24
aI1
aI57
aL0L
aa(lp1498
g1080
aI292
aI56
aI1
aI57
aL0L
aa(lp1499
g1080
aI292
aI1197
aI1
aI193
aL0L
aa(lp1500
g1080
aI292
aI1197
aI1
aI193
aL0L
aa(lp1501
g1080
aI292
aI1197
aI1
aI193
aL0L
aa(lp1502
g1080
aI292
aI1197
aI1
aI193
aL0L
aa(lp1503
g1080
aI292
aI1197
aI1
aI193
aL0L
aa(lp1504
g1080
aI292
aI1197
aI1
aI193
aL0L
aa(lp1505
g1080
aI292
aI1197
aI1
aI193
aL0L
aa(lp1506
g1080
aI292
aI1197
aI1
aI193
aL0L
aa(lp1507
g1080
aI292
aI1197
aI1
aI193
aL0L
aa(lp1508
g1080
aI292
aI1197
aI1
aI193
aL0L
aa(lp1509
g1080
aI292
aI1197
aI2
aI193
aL0L
aa(lp1510
g1080
aI292
aI1197
aI1
aI193
aL0L
aa(lp1511
g1080
aI292
aI1197
aI1
aI193
aL0L
aa(lp1512
g1080
aI292
aI1197
aI1
aI193
aL0L
aa(lp1513
g1080
aI292
aI1197
aI1
aI193
aL0L
aa(lp1514
g1080
aI292
aI1197
aI1
aI193
aL0L
aa(lp1515
g1080
aI292
aI1197
aI1
aI193
aL0L
aa(lp1516
g1080
aI292
aI1197
aI1
aI193
aL0L
aa(lp1517
g1080
aI292
aI1197
aI1
aI193
aL0L
aa(lp1518
g1080
aI292
aI1197
aI1
aI193
aL0L
aa(lp1519
g1080
aI292
aI1197
aI1
aI193
aL0L
aa(lp1520
g1080
aI292
aI1197
aI1
aI193
aL0L
aa(lp1521
g1080
aI292
aI1197
aI1
aI193
aL0L
aa(lp1522
g1080
aI292
aI1197
aI1
aI193
aL0L
aa(lp1523
g1080
aI292
aI1197
aI1
aI193
aL0L
aa(lp1524
g1080
aI292
aI1197
aI1
aI193
aL0L
aa(lp1525
g1080
aI292
aI1197
aI1
aI193
aL0L
aa(lp1526
g1080
aI292
aI1197
aI1
aI193
aL0L
aa(lp1527
g1080
aI292
aI1197
aI1
aI193
aL0L
aa(lp1528
g1080
aI292
aI1197
aI1
aI193
aL0L
aa(lp1529
g1080
aI292
aI1197
aI1
aI193
aL0L
aa(lp1530
g1080
aI292
aI1197
aI1
aI193
aL0L
aa(lp1531
g1080
aI292
aI1197
aI1
aI193
aL0L
aa(lp1532
g1080
aI292
aI1197
aI1
aI193
aL0L
aa(lp1533
g1080
aI292
aI1197
aI1
aI193
aL0L
aa(lp1534
g1080
aI292
aI1197
aI1
aI193
aL0L
aa(lp1535
g1080
aI292
aI1197
aI1
aI193
aL0L
aa(lp1536
g1080
aI292
aI1197
aI1
aI193
aL0L
aa(lp1537
g1080
aI292
aI1197
aI1
aI193
aL0L
aa(lp1538
g1080
aI292
aI1197
aI1
aI193
aL0L
aa(lp1539
g1080
aI292
aI1197
aI1
aI193
aL0L
aa(lp1540
g1080
aI292
aI1197
aI1
aI193
aL0L
aa(lp1541
g1080
aI292
aI1197
aI1
aI193
aL0L
aa(lp1542
g1080
aI292
aI1197
aI1
aI193
aL0L
aa(lp1543
g1080
aI292
aI1197
aI2
aI193
aL0L
aa(lp1544
g1080
aI292
aI1197
aI1
aI193
aL0L
aa(lp1545
g1080
aI292
aI1197
aI1
aI193
aL0L
aa(lp1546
g1080
aI292
aI1197
aI1
aI193
aL0L
aa(lp1547
g1080
aI292
aI1197
aI1
aI193
aL0L
aa(lp1548
g1080
aI292
aI1197
aI1
aI193
aL0L
aa(lp1549
g1080
aI292
aI1197
aI1
aI193
aL0L
aa(lp1550
g1080
aI292
aI1197
aI1
aI193
aL0L
aa(lp1551
g1080
aI292
aI1197
aI1
aI193
aL0L
aa(lp1552
g1080
aI292
aI1197
aI1
aI193
aL0L
aa(lp1553
g1080
aI292
aI1197
aI1
aI193
aL0L
aa(lp1554
g1080
aI292
aI1197
aI1
aI193
aL0L
aa(lp1555
g1080
aI292
aI1197
aI1
aI193
aL0L
aa(lp1556
g1080
aI292
aI1197
aI1
aI193
aL0L
aa(lp1557
g1080
aI292
aI6
aI1
aI57
aL0L
aa(lp1558
g1080
aI292
aI1197
aI1
aI193
aL0L
aa(lp1559
g1080
aI292
aI6
aI1
aI57
aL0L
aa(lp1560
g1080
aI292
aI6
aI1
aI57
aL0L
aa(lp1561
g1080
aI292
aI1197
aI1
aI193
aL0L
aa(lp1562
g1080
aI292
aI6
aI1
aI57
aL0L
aa(lp1563
g1080
aI292
aI6
aI1
aI57
aL0L
aa(lp1564
g1080
aI292
aI6
aI1
aI57
aL0L
aa(lp1565
g1080
aI292
aI1197
aI1
aI193
aL0L
aa(lp1566
g1080
aI292
aI2
aI1
aI57
aL0L
aa(lp1567
g1080
aI292
aI2
aI1
aI57
aL0L
aa(lp1568
g1080
aI292
aI1197
aI1
aI193
aL0L
aa(lp1569
g1080
aI292
aI1197
aI1
aI193
aL0L
aa(lp1570
g1080
aI292
aI4
aI1
aI57
aL0L
aa(lp1571
g1080
aI292
aI1197
aI1
aI193
aL0L
aa(lp1572
g1080
aI292
aI1197
aI1
aI193
aL0L
aa(lp1573
g1080
aI292
aI1197
aI1
aI193
aL0L
aa(lp1574
g1080
aI292
aI1197
aI1
aI193
aL0L
aa(lp1575
g1080
aI292
aI1197
aI1
aI193
aL0L
aa(lp1576
g1080
aI292
aI1197
aI1
aI193
aL0L
aa(lp1577
g1080
aI292
aI1197
aI1
aI193
aL0L
aa(lp1578
g1080
aI292
aI1197
aI1
aI193
aL0L
aa(lp1579
g1080
aI292
aI1197
aI1
aI193
aL0L
aa(lp1580
g1080
aI292
aI1197
aI1
aI193
aL0L
aa(lp1581
g1080
aI292
aI1197
aI1
aI193
aL0L
aa(lp1582
g1080
aI292
aI1197
aI1
aI193
aL0L
aa(lp1583
g1080
aI292
aI1197
aI1
aI193
aL0L
aa(lp1584
g1080
aI292
aI1197
aI1
aI193
aL0L
aa(lp1585
g1080
aI292
aI1197
aI1
aI193
aL0L
aa(lp1586
g1080
aI292
aI1197
aI1
aI193
aL0L
aa(lp1587
g1080
aI292
aI1197
aI1
aI193
aL0L
aa(lp1588
g1080
aI292
aI1197
aI1
aI193
aL0L
aa(lp1589
g1080
aI292
aI1197
aI1
aI193
aL0L
aa(lp1590
g1080
aI292
aI1197
aI1
aI193
aL0L
aa(lp1591
g1080
aI292
aI1197
aI1
aI193
aL0L
aa(lp1592
g1080
aI292
aI1197
aI1
aI193
aL0L
aa(lp1593
g1080
aI292
aI1197
aI1
aI193
aL0L
aa(lp1594
g1080
aI292
aI1197
aI1
aI193
aL0L
aa(lp1595
g1058
aI807
aI1197
aI1
aI535
aL0L
aa(lp1596
g1058
aI807
aI1197
aI1
aI535
aL0L
aa(lp1597
g1058
aI807
aI56
aI1
aI229
aL0L
aa(lp1598
g1058
aI807
aI1197
aI1
aI535
aL0L
aa(lp1599
g1058
aI807
aI1197
aI1
aI535
aL0L
aa(lp1600
g1058
aI807
aI31
aI1
aI229
aL0L
aa(lp1601
g1058
aI807
aI1197
aI1
aI535
aL0L
aa(lp1602
g1058
aI807
aI1197
aI1
aI535
aL0L
aa(lp1603
g1058
aI807
aI42
aI1
aI229
aL0L
aa(lp1604
g1058
aI807
aI1197
aI1
aI535
aL0L
aa(lp1605
g1058
aI807
aI1197
aI1
aI535
aL0L
aa(lp1606
g1058
aI807
aI56
aI1
aI229
aL0L
aa(lp1607
g1058
aI807
aI1197
aI1
aI535
aL0L
aa(lp1608
g1058
aI807
aI1197
aI1
aI535
aL0L
aa(lp1609
g1058
aI807
aI56
aI1
aI229
aL0L
aa(lp1610
g1058
aI807
aI1197
aI1
aI535
aL0L
aa(lp1611
g1058
aI807
aI1197
aI1
aI535
aL0L
aa(lp1612
g1058
aI807
aI39
aI1
aI229
aL0L
aa(lp1613
g1305
aI520
aI1197
aI1
aI402
aL0L
aa(lp1614
g1305
aI520
aI1197
aI1
aI402
aL0L
aa(lp1615
g1305
aI520
aI2
aI1
aI8
aL0L
aa(lp1616
g1058
aI807
aI1197
aI1
aI535
aL0L
aa(lp1617
g1058
aI807
aI1197
aI1
aI535
aL0L
aa(lp1618
g1058
aI807
aI42
aI1
aI229
aL0L
aa(lp1619
g1058
aI807
aI1197
aI1
aI535
aL0L
aa(lp1620
g1058
aI807
aI1197
aI1
aI535
aL0L
aa(lp1621
g1058
aI807
aI38
aI1
aI229
aL0L
aa(lp1622
g1058
aI807
aI1197
aI1
aI535
aL0L
aa(lp1623
g1058
aI807
aI1197
aI1
aI535
aL0L
aa(lp1624
g1058
aI807
aI39
aI1
aI229
aL0L
aa(lp1625
g1058
aI807
aI1197
aI1
aI535
aL0L
aa(lp1626
g1058
aI807
aI1197
aI2
aI535
aL0L
aa(lp1627
g1058
aI807
aI38
aI1
aI229
aL0L
aa(lp1628
g1058
aI807
aI1197
aI1
aI535
aL0L
aa(lp1629
g1058
aI807
aI1197
aI1
aI535
aL0L
aa(lp1630
g1058
aI807
aI1197
aI1
aI535
aL0L
aa(lp1631
g1058
aI807
aI1197
aI1
aI535
aL0L
aa(lp1632
g1058
aI807
aI1197
aI1
aI535
aL0L
aa(lp1633
g1058
aI807
aI17
aI1
aI229
aL0L
aa(lp1634
g1058
aI807
aI1197
aI1
aI535
aL0L
aa(lp1635
g1058
aI807
aI1197
aI1
aI535
aL0L
aa(lp1636
g1058
aI807
aI17
aI1
aI229
aL0L
aa(lp1637
g1058
aI807
aI23
aI1
aI229
aL0L
aa(lp1638
g1058
aI807
aI17
aI1
aI229
aL0L
aa(lp1639
g1058
aI807
aI17
aI1
aI229
aL0L
aa(lp1640
g1058
aI807
aI1197
aI1
aI535
aL0L
aa(lp1641
g1058
aI807
aI1197
aI1
aI535
aL0L
aa(lp1642
g1058
aI807
aI42
aI1
aI229
aL0L
aa(lp1643
g1058
aI807
aI1197
aI1
aI535
aL0L
aa(lp1644
g1058
aI807
aI1197
aI1
aI535
aL0L
aa(lp1645
g1058
aI807
aI31
aI1
aI229
aL0L
aa(lp1646
g1058
aI807
aI1197
aI1
aI535
aL0L
aa(lp1647
g1058
aI807
aI23
aI1
aI229
aL0L
aa(lp1648
g1058
aI807
aI1197
aI1
aI535
aL0L
aa(lp1649
g1058
aI807
aI23
aI1
aI229
aL0L
aa(lp1650
g1058
aI807
aI23
aI1
aI229
aL0L
aa(lp1651
g1058
aI807
aI23
aI1
aI229
aL0L
aa(lp1652
g1058
aI807
aI23
aI1
aI229
aL0L
aa(lp1653
g1058
aI807
aI1197
aI2
aI535
aL0L
aa(lp1654
g1058
aI807
aI1197
aI1
aI535
aL0L
aa(lp1655
g1058
aI807
aI1197
aI1
aI535
aL0L
aa(lp1656
g1058
aI807
aI24
aI1
aI229
aL0L
aa(lp1657
g1058
aI807
aI24
aI1
aI229
aL0L
aa(lp1658
g1058
aI807
aI24
aI1
aI229
aL0L
aa(lp1659
g1058
aI807
aI1197
aI1
aI535
aL0L
aa(lp1660
g1058
aI807
aI1197
aI1
aI535
aL0L
aa(lp1661
g1058
aI807
aI1197
aI1
aI535
aL0L
aa(lp1662
g1058
aI807
aI1197
aI1
aI535
aL0L
aa(lp1663
g1058
aI807
aI1197
aI1
aI535
aL0L
aa(lp1664
g1058
aI807
aI1197
aI1
aI535
aL0L
aa(lp1665
g1058
aI807
aI1197
aI1
aI535
aL0L
aa(lp1666
g1058
aI807
aI1197
aI1
aI535
aL0L
aa(lp1667
g1058
aI807
aI1197
aI1
aI535
aL0L
aa(lp1668
g1058
aI807
aI1197
aI1
aI535
aL0L
aa(lp1669
g1058
aI807
aI1197
aI2
aI535
aL0L
aa(lp1670
g1058
aI807
aI1197
aI1
aI535
aL0L
aa(lp1671
g1058
aI807
aI1197
aI1
aI535
aL0L
aa(lp1672
g1058
aI807
aI1197
aI1
aI535
aL0L
aa(lp1673
g1058
aI807
aI1197
aI1
aI535
aL0L
aa(lp1674
g1058
aI807
aI1197
aI1
aI535
aL0L
aa(lp1675
g1058
aI807
aI1197
aI1
aI535
aL0L
aa(lp1676
g1058
aI807
aI1197
aI1
aI535
aL0L
aa(lp1677
g1058
aI807
aI1197
aI1
aI535
aL0L
aa(lp1678
g1058
aI807
aI1197
aI1
aI535
aL0L
aa(lp1679
g1058
aI807
aI1197
aI1
aI535
aL0L
aa(lp1680
g1058
aI807
aI1197
aI1
aI535
aL0L
aa(lp1681
g1058
aI807
aI1197
aI1
aI535
aL0L
aa(lp1682
g1058
aI807
aI1197
aI1
aI535
aL0L
aa(lp1683
g1058
aI807
aI1197
aI1
aI535
aL0L
aa(lp1684
g1058
aI807
aI1197
aI1
aI535
aL0L
aa(lp1685
g1058
aI807
aI1197
aI1
aI535
aL0L
aa(lp1686
g1058
aI807
aI1197
aI1
aI535
aL0L
aa(lp1687
g1058
aI807
aI1197
aI1
aI535
aL0L
aa(lp1688
g1058
aI807
aI1197
aI1
aI535
aL0L
aa(lp1689
g1058
aI807
aI1197
aI1
aI535
aL0L
aa(lp1690
g1058
aI807
aI1197
aI1
aI535
aL0L
aa(lp1691
g1058
aI807
aI1197
aI1
aI535
aL0L
aa(lp1692
g1058
aI807
aI1197
aI1
aI535
aL0L
aa(lp1693
g1058
aI807
aI1197
aI1
aI535
aL0L
aa(lp1694
g1058
aI807
aI1197
aI1
aI535
aL0L
aa(lp1695
g1058
aI807
aI1197
aI1
aI535
aL0L
aa(lp1696
g1058
aI807
aI1197
aI1
aI535
aL0L
aa(lp1697
g1058
aI807
aI1197
aI1
aI535
aL0L
aa(lp1698
g1058
aI807
aI1197
aI1
aI535
aL0L
aa(lp1699
g1058
aI807
aI1197
aI1
aI535
aL0L
aa(lp1700
g1058
aI807
aI1197
aI1
aI535
aL0L
aa(lp1701
g1058
aI807
aI1197
aI1
aI535
aL0L
aa(lp1702
g1058
aI807
aI1197
aI1
aI535
aL0L
aa(lp1703
g1058
aI807
aI1197
aI1
aI535
aL0L
aa(lp1704
g1058
aI807
aI1197
aI1
aI535
aL0L
aa(lp1705
g1058
aI807
aI1197
aI1
aI535
aL0L
aa(lp1706
g1058
aI807
aI1197
aI1
aI535
aL0L
aa(lp1707
g1058
aI807
aI1197
aI1
aI535
aL0L
aa(lp1708
g1058
aI807
aI1197
aI1
aI535
aL0L
aa(lp1709
g1058
aI807
aI1197
aI1
aI535
aL0L
aa(lp1710
g1058
aI807
aI1197
aI1
aI535
aL0L
aa(lp1711
g1058
aI807
aI1197
aI1
aI535
aL0L
aa(lp1712
g1058
aI807
aI1197
aI1
aI535
aL0L
aa(lp1713
g1058
aI807
aI1197
aI1
aI535
aL0L
aa(lp1714
g1058
aI807
aI1197
aI1
aI535
aL0L
aa(lp1715
g1058
aI807
aI1197
aI1
aI535
aL0L
aa(lp1716
g1058
aI807
aI6
aI1
aI229
aL0L
aa(lp1717
g1058
aI807
aI6
aI1
aI229
aL0L
aa(lp1718
g1058
aI807
aI6
aI1
aI229
aL0L
aa(lp1719
g1058
aI807
aI6
aI1
aI229
aL0L
aa(lp1720
g1058
aI807
aI6
aI1
aI229
aL0L
aa(lp1721
g1058
aI807
aI6
aI1
aI229
aL0L
aa(lp1722
g1058
aI807
aI1197
aI1
aI535
aL0L
aa(lp1723
g1058
aI807
aI1197
aI1
aI535
aL0L
aa(lp1724
g1058
aI807
aI1
aI1
aI229
aL0L
aa(lp1725
g1058
aI807
aI1197
aI1
aI535
aL0L
aa(lp1726
g1058
aI807
aI1197
aI1
aI535
aL0L
aa(lp1727
g1058
aI807
aI39
aI1
aI229
aL0L
aa(lp1728
g1058
aI807
aI1197
aI1
aI535
aL0L
aa(lp1729
g1058
aI807
aI1197
aI1
aI535
aL0L
aa(lp1730
g1058
aI807
aI4
aI1
aI229
aL0L
aa(lp1731
g1058
aI807
aI1197
aI1
aI535
aL0L
aa(lp1732
g1058
aI807
aI1197
aI1
aI535
aL0L
aa(lp1733
g1058
aI807
aI1197
aI1
aI535
aL0L
aa(lp1734
g1058
aI807
aI1197
aI1
aI535
aL0L
aa(lp1735
g1058
aI807
aI1197
aI1
aI535
aL0L
aa(lp1736
g1058
aI807
aI1197
aI1
aI535
aL0L
aa(lp1737
g1058
aI807
aI1197
aI1
aI535
aL0L
aa(lp1738
g1058
aI807
aI1197
aI1
aI535
aL0L
aa(lp1739
g1058
aI807
aI1197
aI1
aI535
aL0L
aa(lp1740
g1058
aI807
aI4
aI1
aI229
aL0L
aa(lp1741
g1058
aI807
aI1197
aI1
aI535
aL0L
aa.