(dp0
S'217.34.4.225'
p1
(I1
(dp2
S'2009'
p3
I1
stp4
sS'195.113.232.89'
p5
(I5
(dp6
S'60094'
p7
I1
sS'60095'
p8
I1
sS'60096'
p9
I1
sS'60092'
p10
I1
sS'60093'
p11
I1
stp12
sS'88.86.102.50'
p13
(I1
(dp14
S'39375'
p15
I1
stp16
sS'117.204.64.132'
p17
(I1
(dp18
S'1078'
p19
I1
stp20
sS'74.125.232.198'
p21
(I18
(dp22
S'41626'
p23
I1
sS'60614'
p24
I1
sS'60612'
p25
I1
sS'48772'
p26
I1
sS'48348'
p27
I1
sS'48347'
p28
I1
sS'54375'
p29
I1
sS'54374'
p30
I1
sS'60613'
p31
I1
sS'52914'
p32
I1
sS'41637'
p33
I1
sS'41625'
p34
I1
sS'58453'
p35
I1
sS'54373'
p36
I1
sS'41636'
p37
I1
sS'43350'
p38
I1
sS'41635'
p39
I1
sS'54932'
p40
I1
stp41
sS'66.150.117.25'
p42
(I15
(dp43
S'58113'
p44
I1
sS'58110'
p45
I1
sS'58177'
p46
I1
sS'58170'
p47
I1
sS'58171'
p48
I1
sS'58109'
p49
I1
sS'58180'
p50
I1
sS'58118'
p51
I1
sS'58178'
p52
I1
sS'58181'
p53
I1
sS'58169'
p54
I1
sS'58154'
p55
I1
sS'58155'
p56
I1
sS'58152'
p57
I1
sS'58153'
p58
I1
stp59
sS'27.255.59.59'
p60
(I1
(dp61
S'1282'
p62
I1
stp63
sS'65.54.165.179'
p64
(I1
(dp65
S'1681'
p66
I1
stp67
sS'111.92.129.242'
p68
(I1
(dp69
S'2100'
p70
I1
stp71
sS'74.125.232.193'
p72
(I14
(dp73
S'50001'
p74
I1
sS'50002'
p75
I1
sS'50003'
p76
I1
sS'47689'
p77
I1
sS'51753'
p78
I1
sS'51752'
p79
I1
sS'51751'
p80
I1
sS'51750'
p81
I1
sS'51742'
p82
I1
sS'51754'
p83
I1
sS'51744'
p84
I1
sS'42497'
p85
I1
sS'51726'
p86
I1
sS'50789'
p87
I1
stp88
sS'74.125.232.194'
p89
(I6
(dp90
S'35821'
p91
I1
sS'35820'
p92
I1
sS'35818'
p93
I1
sS'35819'
p94
I1
sS'35817'
p95
I1
sS'35815'
p96
I1
stp97
sS'74.125.232.195'
p98
(I5
(dp99
S'1027'
p100
I1
sS'38845'
p101
I1
sS'41707'
p102
I1
sS'34501'
p103
I1
sS'49862'
p104
I1
stp105
sS'74.125.232.196'
p106
(I1
(dp107
S'53670'
p108
I1
stp109
sS'74.125.232.197'
p110
(I2
(dp111
S'58022'
p112
I1
sS'39708'
p113
I1
stp114
sS'94.63.149.150'
p115
(I1
(dp116
S'1038'
p117
I1
stp118
sS'94.63.149.152'
p119
(I2
(dp120
S'1039'
p121
I1
sS'1040'
p122
I1
stp123
sS'205.217.167.14'
p124
(I1
(dp125
S'51159'
p126
I1
stp127
sS'184.73.208.4'
p128
(I2
(dp129
S'47898'
p130
I1
sS'47897'
p131
I1
stp132
sS'77.75.76.72'
p133
(I6
(dp134
S'44119'
p135
I1
sS'44118'
p136
I1
sS'44117'
p137
I1
sS'44116'
p138
I1
sS'44120'
p139
I1
sS'44121'
p140
I1
stp141
sS'77.93.218.150'
p142
(I2
(dp143
S'32860'
p144
I1
sS'32864'
p145
I1
stp146
sS'82.206.239.241'
p147
(I1
(dp148
S'1781'
p149
I1
stp150
sS'209.85.147.102'
p151
(I1
(dp152
S'60871'
p153
I1
stp154
sS'83.211.221.197'
p155
(I2
(dp156
S'1395'
p157
I1
sS'2027'
p158
I1
stp159
sS'194.79.54.62'
p160
(I10
(dp161
S'52264'
p162
I1
sS'52265'
p163
I1
sS'52271'
p164
I1
sS'52270'
p165
I1
sS'52237'
p166
I1
sS'52236'
p167
I1
sS'52183'
p168
I1
sS'52238'
p169
I1
sS'52185'
p170
I1
sS'52184'
p171
I1
stp172
sS'194.79.54.61'
p173
(I17
(dp174
S'32934'
p175
I1
sS'32935'
p176
I1
sS'32936'
p177
I1
sS'36033'
p178
I1
sS'33028'
p179
I1
sS'33029'
p180
I1
sS'36050'
p181
I1
sS'36048'
p182
I1
sS'36049'
p183
I1
sS'36045'
p184
I1
sS'33003'
p185
I1
sS'33002'
p186
I1
sS'36046'
p187
I1
sS'36047'
p188
I1
sS'36035'
p189
I1
sS'36034'
p190
I1
sS'33004'
p191
I1
stp192
sS'194.67.211.76'
p193
(I1
(dp194
S'2012'
p195
I1
stp196
sS'194.71.11.73'
p197
(I1
(dp198
S'45507'
p199
I1
stp200
sS'195.113.232.96'
p201
(I2
(dp202
S'50752'
p203
I1
sS'33661'
p204
I1
stp205
sS'195.113.232.97'
p206
(I3
(dp207
S'49661'
p208
I1
sS'38101'
p209
I1
sS'38746'
p210
I1
stp211
sS'195.113.232.90'
p212
(I6
(dp213
S'53364'
p214
I1
sS'53365'
p215
I1
sS'53360'
p216
I1
sS'53361'
p217
I1
sS'53362'
p218
I1
sS'53363'
p219
I1
stp220
sS'195.113.232.91'
p221
(I1
(dp222
S'49596'
p223
I1
stp224
sS'195.113.232.98'
p225
(I3
(dp226
S'35471'
p227
I1
sS'48572'
p228
I1
sS'52616'
p229
I1
stp230
sS'195.113.232.99'
p231
(I1
(dp232
S'56300'
p233
I1
stp234
sS'91.213.160.12'
p235
(I1
(dp236
S'37241'
p237
I1
stp238
sS'74.125.39.125'
p239
(I1
(dp240
S'46975'
p241
I1
stp242
sS'117.242.61.2'
p243
(I1
(dp244
S'2206'
p245
I1
stp246
sS'2.21.108.20'
p247
(I9
(dp248
S'37804'
p249
I1
sS'37803'
p250
I1
sS'37802'
p251
I1
sS'37801'
p252
I1
sS'37800'
p253
I1
sS'38404'
p254
I1
sS'37788'
p255
I1
sS'37786'
p256
I1
sS'37787'
p257
I1
stp258
sS'74.125.232.192'
p259
(I4
(dp260
S'48787'
p261
I1
sS'56092'
p262
I1
sS'51154'
p263
I1
sS'49940'
p264
I1
stp265
sS'203.84.189.77'
p266
(I1
(dp267
S'2081'
p268
I1
stp269
sS'178.150.146.54'
p270
(I1
(dp271
S'2060'
p272
I1
stp273
sS'83.152.81.217'
p274
(I1
(dp275
S'1562'
p276
I1
stp277
sS'212.117.171.138'
p278
(I181
(dp279
S'1788'
p280
I1
sS'1305'
p281
I1
sS'1853'
p282
I1
sS'1302'
p283
I1
sS'1866'
p284
I1
sS'1784'
p285
I1
sS'1309'
p286
I1
sS'1545'
p287
I1
sS'1542'
p288
I1
sS'1773'
p289
I1
sS'1838'
p290
I1
sS'1778'
p291
I1
sS'1944'
p292
I1
sS'1371'
p293
I1
sS'1527'
p294
I1
sS'1374'
p295
I1
sS'1377'
p296
I1
sS'2017'
p297
I1
sS'1466'
p298
I1
sS'1670'
p299
I1
sS'1460'
p300
I1
sS'1463'
p301
I1
sS'1673'
p302
I1
sS'1315'
p303
I1
sS'1312'
p304
I1
sS'1702'
p305
I1
sS'1319'
p306
I1
sS'1794'
p307
I1
sS'1491'
p308
I1
sS'1495'
p309
I1
sS'1498'
p310
I1
sS'1959'
p311
I1
sS'1550'
p312
I1
sS'1553'
p313
I1
sS'1295'
p314
I1
sS'1706'
p315
I1
sS'1556'
p316
I1
sS'1559'
p317
I1
sS'1709'
p318
I1
sS'1826'
p319
I1
sS'2193'
p320
I1
sS'1824'
p321
I1
sS'1384'
p322
I1
sS'1666'
p323
I1
sS'1412'
p324
I1
sS'1404'
p325
I1
sS'1380'
p326
I1
sS'1662'
p327
I1
sS'1416'
p328
I1
sS'1322'
p329
I1
sS'1325'
p330
I1
sS'1328'
p331
I1
sS'1482'
p332
I1
sS'1925'
p333
I1
sS'1485'
p334
I1
sS'1928'
p335
I1
sS'1488'
p336
I1
sS'1714'
p337
I1
sS'1718'
p338
I1
sS'1856'
p339
I1
sS'1524'
p340
I1
sS'1408'
p341
I1
sS'1521'
p342
I1
sS'1397'
p343
I1
sS'1400'
p344
I1
sS'1393'
p345
I1
sS'1390'
p346
I1
sS'1739'
p347
I1
sS'1338'
p348
I1
sS'1335'
p349
I1
sS'1331'
p350
I1
sS'1984'
p351
I1
sS'1831'
p352
I1
sS'1934'
p353
I1
sS'1938'
p354
I1
sS'1746'
p355
I1
sS'1849'
p356
I1
sS'1435'
p357
I1
sS'1641'
p358
I1
sS'1834'
p359
I1
sS'1728'
p360
I1
sS'1431'
p361
I1
sS'1842'
p362
I1
sS'1724'
p363
I1
sS'1649'
p364
I1
sS'1846'
p365
I1
sS'1438'
p366
I1
sS'1721'
p367
I1
sS'1534'
p368
I1
sS'1699'
p369
I1
sS'1530'
p370
I1
sS'1538'
p371
I1
sS'1348'
p372
I1
sS'1732'
p373
I1
sS'1341'
p374
I1
sS'1345'
p375
I1
sS'1875'
p376
I1
sS'2038'
p377
I1
sS'1870'
p378
I1
sS'1907'
p379
I1
sS'1903'
p380
I1
sS'1878'
p381
I1
sS'1630'
p382
I1
sS'2000'
p383
I1
sS'1423'
p384
I1
sS'1425'
p385
I1
sS'1635'
p386
I1
sS'1980'
p387
I1
sS'1581'
p388
I1
sS'1735'
p389
I1
sS'1988'
p390
I1
sS'1585'
p391
I1
sS'1507'
p392
I1
sS'1504'
p393
I1
sS'1655'
p394
I1
sS'1367'
p395
I1
sS'1351'
p396
I1
sS'1357'
p397
I1
sS'1950'
p398
I1
sS'1354'
p399
I1
sS'1861'
p400
I1
sS'1646'
p401
I1
sS'1592'
p402
I1
sS'1911'
p403
I1
sS'2042'
p404
I1
sS'1915'
p405
I1
sS'1445'
p406
I1
sS'1992'
p407
I1
sS'1626'
p408
I1
sS'1997'
p409
I1
sS'1921'
p410
I1
sS'1457'
p411
I1
sS'2242'
p412
I1
sS'1452'
p413
I1
sS'1517'
p414
I1
sS'1511'
p415
I1
sS'1448'
p416
I1
sS'1742'
p417
I1
sS'1799'
p418
I1
sS'1387'
p419
I1
sS'1899'
p420
I1
sS'1896'
p421
I1
sS'1890'
p422
I1
sS'1677'
p423
I1
sS'1816'
p424
I1
sS'1968'
p425
I1
sS'1812'
p426
I1
sS'1619'
p427
I1
sS'1616'
p428
I1
sS'1819'
p429
I1
sS'1963'
p430
I1
sS'1696'
p431
I1
sS'1298'
p432
I1
sS'1769'
p433
I1
sS'1692'
p434
I1
sS'1442'
p435
I1
sS'1758'
p436
I1
sS'1754'
p437
I1
sS'1565'
p438
I1
sS'1750'
p439
I1
sS'1361'
p440
I1
sS'1276'
p441
I1
sS'1659'
p442
I1
sS'1763'
p443
I1
sS'1885'
p444
I1
sS'1609'
p445
I1
sS'1805'
p446
I1
sS'1954'
p447
I1
sS'1601'
p448
I1
sS'1971'
p449
I1
sS'1680'
p450
I1
sS'1364'
p451
I1
sS'1471'
p452
I1
sS'1685'
p453
I1
sS'1477'
p454
I1
sS'2004'
p455
I1
sS'1475'
p456
I1
sS'1688'
p457
I1
sS'1570'
p458
I1
sS'1577'
p459
I1
sS'1574'
p460
I1
stp461
sS'194.79.52.192'
p462
(I3
(dp463
S'57419'
p464
I1
sS'57383'
p465
I1
sS'58870'
p466
I1
stp467
sS'194.79.52.193'
p468
(I1
(dp469
S'38325'
p470
I1
stp471
sS'66.111.4.72'
p472
(I3
(dp473
S'1561'
p474
I1
sS'1941'
p475
I1
sS'2131'
p476
I1
stp477
sS'194.79.52.196'
p478
(I14
(dp479
S'42199'
p480
I1
sS'42198'
p481
I1
sS'42268'
p482
I1
sS'42267'
p483
I1
sS'42266'
p484
I1
sS'42182'
p485
I1
sS'42183'
p486
I1
sS'42180'
p487
I1
sS'42181'
p488
I1
sS'42179'
p489
I1
sS'42178'
p490
I1
sS'42201'
p491
I1
sS'42200'
p492
I1
sS'42202'
p493
I1
stp494
sS'194.79.52.194'
p495
(I10
(dp496
S'52337'
p497
I1
sS'52268'
p498
I1
sS'52345'
p499
I1
sS'52341'
p500
I1
sS'52351'
p501
I1
sS'52328'
p502
I1
sS'52319'
p503
I1
sS'52323'
p504
I1
sS'52322'
p505
I1
sS'52320'
p506
I1
stp507
sS'194.79.52.195'
p508
(I6
(dp509
S'57816'
p510
I1
sS'57817'
p511
I1
sS'57818'
p512
I1
sS'33973'
p513
I1
sS'33972'
p514
I1
sS'33974'
p515
I1
stp516
sS'42.201.161.145'
p517
(I1
(dp518
S'2238'
p519
I1
stp520
sS'74.125.232.241'
p521
(I1
(dp522
S'49382'
p523
I1
stp524
sS'147.32.80.9'
p525
(I3009
(dp526
S'35237'
p527
I1
sS'55349'
p528
I1
sS'55618'
p529
I1
sS'55619'
p530
I1
sS'55617'
p531
I1
sS'35239'
p532
I1
sS'43278'
p533
I1
sS'55296'
p534
I1
sS'51269'
p535
I1
sS'43273'
p536
I1
sS'43272'
p537
I1
sS'48899'
p538
I1
sS'32838'
p539
I1
sS'50642'
p540
I1
sS'39105'
p541
I1
sS'51067'
p542
I1
sS'32836'
p543
I1
sS'32830'
p544
I1
sS'48351'
p545
I1
sS'39103'
p546
I1
sS'51281'
p547
I1
sS'45395'
p548
I1
sS'52266'
p549
I1
sS'51289'
p550
I1
sS'43183'
p551
I1
sS'56737'
p552
I1
sS'43187'
p553
I1
sS'35434'
p554
I1
sS'48029'
p555
I1
sS'55907'
p556
I1
sS'55904'
p557
I1
sS'35433'
p558
I1
sS'57721'
p559
I1
sS'56122'
p560
I1
sS'60828'
p561
I1
sS'56127'
p562
I1
sS'32783'
p563
I1
sS'56128'
p564
I1
sS'37224'
p565
I2
sS'60821'
p566
I1
sS'51606'
p567
I1
sS'46487'
p568
I1
sS'52008'
p569
I1
sS'46483'
p570
I1
sS'57296'
p571
I1
sS'46480'
p572
I1
sS'56050'
p573
I1
sS'55837'
p574
I1
sS'52392'
p575
I1
sS'43980'
p576
I1
sS'56830'
p577
I1
sS'56835'
p578
I1
sS'41830'
p579
I1
sS'57616'
p580
I1
sS'57617'
p581
I1
sS'51114'
p582
I1
sS'43509'
p583
I1
sS'43056'
p584
I2
sS'43054'
p585
I1
sS'42582'
p586
I1
sS'42583'
p587
I1
sS'43059'
p588
I1
sS'42584'
p589
I1
sS'57478'
p590
I1
sS'52645'
p591
I1
sS'52131'
p592
I1
sS'57471'
p593
I1
sS'53735'
p594
I1
sS'52139'
p595
I1
sS'60002'
p596
I1
sS'38434'
p597
I1
sS'52480'
p598
I2
sS'60915'
p599
I1
sS'39924'
p600
I1
sS'49566'
p601
I1
sS'45688'
p602
I1
sS'55294'
p603
I1
sS'45680'
p604
I1
sS'45683'
p605
I1
sS'36444'
p606
I1
sS'36445'
p607
I1
sS'36331'
p608
I1
sS'57056'
p609
I1
sS'49164'
p610
I1
sS'45448'
p611
I1
sS'57508'
p612
I1
sS'45447'
p613
I1
sS'45443'
p614
I1
sS'57984'
p615
I2
sS'53373'
p616
I1
sS'57986'
p617
I1
sS'44248'
p618
I1
sS'39690'
p619
I1
sS'53601'
p620
I1
sS'39693'
p621
I1
sS'41344'
p622
I1
sS'44241'
p623
I1
sS'57988'
p624
I1
sS'45669'
p625
I1
sS'46868'
p626
I1
sS'37798'
p627
I1
sS'42831'
p628
I2
sS'40985'
p629
I1
sS'33071'
p630
I1
sS'33076'
p631
I1
sS'36532'
p632
I1
sS'36533'
p633
I1
sS'37007'
p634
I2
sS'37006'
p635
I1
sS'37556'
p636
I1
sS'44643'
p637
I1
sS'36539'
p638
I1
sS'45204'
p639
I1
sS'45206'
p640
I1
sS'54421'
p641
I2
sS'53283'
p642
I1
sS'36848'
p643
I1
sS'53286'
p644
I1
sS'39109'
p645
I1
sS'59613'
p646
I1
sS'33219'
p647
I1
sS'48785'
p648
I1
sS'33216'
p649
I1
sS'33217'
p650
I1
sS'41695'
p651
I1
sS'49483'
p652
I1
sS'49944'
p653
I1
sS'34976'
p654
I1
sS'41365'
p655
I2
sg264
I1
sS'48144'
p656
I1
sS'48142'
p657
I1
sS'58189'
p658
I1
sS'39107'
p659
I1
sS'39743'
p660
I2
sg53
I1
sS'58183'
p661
I1
sS'58182'
p662
I1
sS'58185'
p663
I1
sS'45061'
p664
I1
sS'45063'
p665
I1
sS'48094'
p666
I1
sS'36151'
p667
I1
sS'33670'
p668
I1
sS'45069'
p669
I1
sS'41584'
p670
I1
sS'59858'
p671
I1
sS'33676'
p672
I1
sS'54397'
p673
I2
sS'33506'
p674
I1
sS'41762'
p675
I1
sS'33856'
p676
I1
sS'41760'
p677
I1
sS'33858'
p678
I1
sS'59921'
p679
I1
sS'41768'
p680
I1
sS'58457'
p681
I1
sS'41564'
p682
I2
sS'58451'
p683
I1
sS'54379'
p684
I1
sS'37173'
p685
I1
sS'55535'
p686
I1
sS'58355'
p687
I1
sS'37777'
p688
I1
sS'54087'
p689
I1
sS'37955'
p690
I1
sS'40963'
p691
I1
sS'54082'
p692
I1
sS'37772'
p693
I1
sS'47217'
p694
I1
sS'35154'
p695
I1
sS'40562'
p696
I1
sS'50095'
p697
I1
sS'59038'
p698
I1
sS'39594'
p699
I1
sS'39592'
p700
I1
sS'50708'
p701
I1
sS'58528'
p702
I2
sS'50253'
p703
I1
sS'34375'
p704
I1
sS'47505'
p705
I1
sS'47673'
p706
I1
sS'50895'
p707
I1
sS'50893'
p708
I1
sS'34796'
p709
I1
sS'47321'
p710
I1
sS'47322'
p711
I1
sS'40419'
p712
I1
sS'55110'
p713
I2
sS'59112'
p714
I1
sS'44936'
p715
I1
sS'44933'
p716
I1
sS'44932'
p717
I1
sS'48956'
p718
I1
sS'48955'
p719
I1
sS'35932'
p720
I1
sS'35935'
p721
I1
sS'43265'
p722
I1
sS'47030'
p723
I1
sS'47033'
p724
I1
sS'50677'
p725
I1
sS'60909'
p726
I2
sS'53978'
p727
I1
sS'35844'
p728
I1
sS'35846'
p729
I1
sS'55029'
p730
I1
sS'35332'
p731
I1
sS'32825'
p732
I1
sS'55751'
p733
I1
sS'60344'
p734
I1
sS'43868'
p735
I1
sS'43869'
p736
I1
sS'43462'
p737
I1
sS'32797'
p738
I1
sS'56249'
p739
I1
sS'46120'
p740
I1
sS'43468'
p741
I1
sS'54991'
p742
I1
sS'39006'
p743
I1
sS'48911'
p744
I1
sS'60833'
p745
I1
sS'41397'
p746
I1
sS'60123'
p747
I2
sS'60124'
p748
I1
sS'57268'
p749
I1
sS'56822'
p750
I1
sS'56046'
p751
I1
sS'56044'
p752
I1
sS'40616'
p753
I1
sS'55805'
p754
I1
sS'51855'
p755
I1
sS'51948'
p756
I1
sS'38622'
p757
I1
sS'57662'
p758
I1
sS'57665'
p759
I1
sS'59045'
p760
I1
sS'43686'
p761
I1
sS'46018'
p762
I1
sS'51100'
p763
I1
sS'51108'
p764
I1
sS'43511'
p765
I1
sS'52103'
p766
I1
sS'59361'
p767
I2
sS'52107'
p768
I1
sS'46277'
p769
I1
sS'42937'
p770
I2
sS'42936'
p771
I2
sS'42935'
p772
I1
sS'57896'
p773
I1
sS'38424'
p774
I1
sS'49578'
p775
I1
sS'39913'
p776
I1
sS'39910'
p777
I2
sS'49439'
p778
I1
sS'49571'
p779
I1
sS'46657'
p780
I1
sS'49174'
p781
I2
sS'57068'
p782
I1
sS'45473'
p783
I1
sS'42337'
p784
I1
sS'57064'
p785
I1
sS'57111'
p786
I1
sS'52038'
p787
I1
sS'36492'
p788
I1
sS'53345'
p789
I1
sS'45879'
p790
I1
sS'45654'
p791
I1
sS'45877'
p792
I1
sS'44783'
p793
I1
sS'36947'
p794
I1
sS'33440'
p795
I1
sS'45871'
p796
I1
sS'52749'
p797
I1
sS'46878'
p798
I2
sS'56923'
p799
I1
sS'46870'
p800
I1
sS'52747'
p801
I1
sS'46875'
p802
I1
sS'44658'
p803
I1
sS'37019'
p804
I1
sS'53296'
p805
I1
sS'53297'
p806
I2
sS'45786'
p807
I1
sS'33047'
p808
I1
sS'47394'
p809
I1
sS'60650'
p810
I1
sS'44653'
p811
I1
sS'38510'
p812
I1
sS'37543'
p813
I1
sS'38513'
p814
I1
sS'41223'
p815
I2
sS'41220'
p816
I1
sS'53722'
p817
I1
sS'54418'
p818
I1
sS'45279'
p819
I1
sS'42153'
p820
I1
sS'42154'
p821
I1
sS'40178'
p822
I1
sS'40884'
p823
I1
sS'49400'
p824
I1
sS'34948'
p825
I1
sS'38639'
p826
I1
sS'53507'
p827
I1
sS'34943'
p828
I1
sS'34942'
p829
I1
sS'39771'
p830
I1
sS'39770'
p831
I1
sS'49790'
p832
I1
sS'39778'
p833
I1
sS'58280'
p834
I1
sS'44250'
p835
I1
sS'43987'
p836
I1
sS'59827'
p837
I1
sS'41591'
p838
I1
sS'41592'
p839
I1
sS'52395'
p840
I1
sS'59837'
p841
I1
sS'33530'
p842
I1
sS'54185'
p843
I1
sS'33538'
p844
I2
sS'40317'
p845
I1
sS'40089'
p846
I1
sS'54342'
p847
I1
sS'54341'
p848
I1
sS'41575'
p849
I1
sS'48041'
p850
I1
sS'54345'
p851
I1
sS'41571'
p852
I1
sS'38185'
p853
I1
sS'48048'
p854
I1
sS'41578'
p855
I1
sS'38180'
p856
I1
sS'44976'
p857
I1
sS'45892'
p858
I1
sS'38746'
p859
I1
sS'45899'
p860
I1
sS'37942'
p861
I1
sS'40952'
p862
I1
sS'33225'
p863
I1
sS'37941'
p864
I1
sS'41680'
p865
I1
sS'33222'
p866
I1
sS'54741'
p867
I1
sS'33996'
p868
I1
sS'40556'
p869
I1
sS'40555'
p870
I1
sS'47206'
p871
I1
sS'34414'
p872
I1
sS'47204'
p873
I1
sS'40795'
p874
I1
sS'50089'
p875
I1
sS'54053'
p876
I1
sS'39349'
p877
I1
sS'59559'
p878
I1
sS'59121'
p879
I1
sS'34094'
p880
I1
sS'38292'
p881
I1
sS'58536'
p882
I1
sg77
I1
sS'58533'
p883
I1
sS'34301'
p884
I1
sS'40715'
p885
I1
sS'34307'
p886
I1
sS'34603'
p887
I1
sS'50880'
p888
I1
sS'47556'
p889
I1
sS'47339'
p890
I1
sS'53199'
p891
I1
sS'43504'
p892
I1
sS'34521'
p893
I1
sS'51446'
p894
I1
sS'40428'
p895
I1
sS'51443'
p896
I1
sS'44922'
p897
I1
sS'44920'
p898
I1
sS'38360'
p899
I1
sS'59318'
p900
I1
sS'38369'
p901
I1
sS'38166'
p902
I1
sS'38160'
p903
I2
sS'58307'
p904
I1
sS'35926'
p905
I1
sS'57575'
p906
I1
sS'35217'
p907
I1
sS'35212'
p908
I1
sS'34635'
p909
I1
sS'34631'
p910
I1
sS'54355'
p911
I1
sS'34639'
p912
I1
sS'47028'
p913
I1
sS'60938'
p914
I1
sS'50668'
p915
I1
sS'60931'
p916
I1
sS'50066'
p917
I1
sS'45165'
p918
I1
sS'50911'
p919
I1
sS'35325'
p920
I1
sS'35851'
p921
I1
sS'55742'
p922
I1
sS'48059'
p923
I1
sS'55033'
p924
I1
sS'51045'
p925
I1
sS'60330'
p926
I2
sS'55924'
p927
I1
sS'60339'
p928
I1
sS'56217'
p929
I1
sS'51910'
p930
I1
sS'43855'
p931
I1
sS'43854'
p932
I1
sS'39232'
p933
I1
sS'35452'
p934
I1
sS'35455'
p935
I1
sS'55413'
p936
I1
sS'52938'
p937
I1
sS'43325'
p938
I1
sS'56694'
p939
I1
sS'60000'
p940
I1
sS'56459'
p941
I1
sS'55632'
p942
I1
sS'56108'
p943
I1
sS'56455'
p944
I1
sS'56674'
p945
I1
sS'57828'
p946
I1
sS'46468'
p947
I1
sS'57279'
p948
I1
sS'46465'
p949
I1
sS'56678'
p950
I1
sS'60481'
p951
I2
sS'38985'
p952
I1
sS'60248'
p953
I1
sS'53999'
p954
I1
sS'53998'
p955
I1
sS'36220'
p956
I2
sS'60246'
p957
I1
sS'53993'
p958
I1
sS'53990'
p959
I1
sS'48966'
p960
I1
sS'52245'
p961
I1
sS'51131'
p962
I1
sS'43528'
p963
I1
sS'43522'
p964
I1
sS'52248'
p965
I1
sS'43524'
p966
I1
sS'53194'
p967
I1
sS'39900'
p968
I1
sS'52114'
p969
I1
sS'52110'
p970
I1
sS'57414'
p971
I1
sS'49099'
p972
I1
sS'41962'
p973
I1
sS'49090'
p974
I1
sS'60791'
p975
I1
sS'60790'
p976
I1
sS'60797'
p977
I1
sS'49546'
p978
I1
sS'60794'
p979
I1
sS'34887'
p980
I1
sS'38997'
p981
I1
sS'49304'
p982
I2
sS'43140'
p983
I1
sS'42328'
p984
I1
sS'42322'
p985
I1
sS'57077'
p986
I1
sS'46515'
p987
I1
sS'49325'
p988
I1
sS'49895'
p989
I1
sS'45649'
p990
I1
sS'48238'
p991
I1
sS'45319'
p992
I1
sS'36486'
p993
I1
sS'36487'
p994
I1
sS'48233'
p995
I1
sS'45866'
p996
I1
sS'33185'
p997
I1
sS'57094'
p998
I1
sS'60662'
p999
I1
sS'58052'
p1000
I2
sS'38569'
p1001
I1
sS'54979'
p1002
I1
sS'36550'
p1003
I1
sS'36555'
p1004
I1
sS'38563'
p1005
I1
sS'38565'
p1006
I1
sS'37576'
p1007
I1
sS'42925'
p1008
I1
sS'48300'
p1009
I2
sS'42923'
p1010
I1
sS'36829'
p1011
I1
sS'53979'
p1012
I1
sS'41212'
p1013
I1
sS'53141'
p1014
I1
sS'48433'
p1015
I1
sS'44135'
p1016
I1
sS'40164'
p1017
I1
sS'58949'
p1018
I1
sS'59636'
p1019
I1
sS'59637'
p1020
I1
sS'40892'
p1021
I2
sS'38621'
p1022
I1
sS'34950'
p1023
I1
sS'48120'
p1024
I2
sS'53577'
p1025
I1
sS'53576'
p1026
I1
sS'37372'
p1027
I1
sS'37378'
p1028
I1
sS'39763'
p1029
I1
sS'33455'
p1030
I1
sS'33450'
p1031
I1
sS'44224'
p1032
I1
sS'59834'
p1033
I1
sS'54573'
p1034
I1
sS'36175'
p1035
I1
sS'45084'
p1036
I1
sS'53925'
p1037
I1
sS'45082'
p1038
I1
sS'41788'
p1039
I1
sS'59122'
p1040
I1
sS'45708'
p1041
I1
sS'40302'
p1042
I1
sS'41540'
p1043
I1
sS'53401'
p1044
I1
sS'54359'
p1045
I1
sS'53402'
p1046
I1
sS'54888'
p1047
I1
sS'40091'
p1048
I1
sS'33833'
p1049
I1
sS'40095'
p1050
I1
sS'45882'
p1051
I1
sS'38758'
p1052
I1
sS'45881'
p1053
I1
sS'38288'
p1054
I1
sS'37191'
p1055
I1
sS'40624'
p1056
I1
sS'54752'
p1057
I1
sS'37750'
p1058
I1
sS'40948'
p1059
I1
sS'33235'
p1060
I1
sS'40761'
p1061
I1
sS'37207'
p1062
I1
sS'40763'
p1063
I1
sS'48568'
p1064
I1
sS'37203'
p1065
I1
sS'55669'
p1066
I1
sS'40548'
p1067
I1
sS'34400'
p1068
I1
sS'40239'
p1069
I1
sS'38285'
p1070
I1
sS'59018'
p1071
I1
sS'39373'
p1072
I1
sS'46946'
p1073
I1
sS'34087'
p1074
I1
sS'52634'
p1075
I1
sS'55663'
p1076
I1
sS'39576'
p1077
I1
sS'50276'
p1078
I1
sS'50275'
p1079
I1
sS'39572'
p1080
I1
sS'34312'
p1081
I1
sS'34317'
p1082
I1
sS'47529'
p1083
I2
sS'47528'
p1084
I1
sS'47835'
p1085
I1
sS'58288'
p1086
I2
sS'47303'
p1087
I1
sS'47650'
p1088
I1
sS'47300'
p1089
I1
sS'50871'
p1090
I2
sS'41547'
p1091
I1
sS'50180'
p1092
I1
sS'34538'
p1093
I1
sS'40439'
p1094
I1
sS'48938'
p1095
I1
sS'51452'
p1096
I1
sS'40437'
p1097
I1
sS'40430'
p1098
I1
sS'51815'
p1099
I2
sS'35916'
p1100
I1
sS'38372'
p1101
I1
sS'59309'
p1102
I1
sS'55137'
p1103
I1
sS'55134'
p1104
I1
sS'55133'
p1105
I1
sS'59301'
p1106
I1
sS'46864'
p1107
I2
sS'51818'
p1108
I1
sS'35136'
p1109
I1
sS'39481'
p1110
I1
sS'47782'
p1111
I1
sS'47786'
p1112
I1
sS'35262'
p1113
I1
sS'55518'
p1114
I1
sS'47011'
p1115
I1
sS'47010'
p1116
I1
sS'47016'
p1117
I2
sS'47018'
p1118
I1
sS'50696'
p1119
I1
sS'50693'
p1120
I1
sS'35861'
p1121
I1
sS'50509'
p1122
I1
sS'35688'
p1123
I1
sS'51587'
p1124
I1
sS'60323'
p1125
I1
sS'54959'
p1126
I1
sS'60324'
p1127
I1
sS'60328'
p1128
I1
sS'55268'
p1129
I1
sS'35468'
p1130
I1
sS'60810'
p1131
I1
sS'60811'
p1132
I1
sS'51636'
p1133
I1
sS'56680'
p1134
I1
sS'52901'
p1135
I1
sS'43443'
p1136
I1
sS'56684'
p1137
I1
sS'43333'
p1138
I1
sS'56686'
p1139
I1
sS'55313'
p1140
I1
sS'56111'
p1141
I1
sS'53853'
p1142
I1
sS'60499'
p1143
I1
sS'52349'
p1144
I1
sS'56848'
p1145
I1
sS'57240'
p1146
I1
sS'57795'
p1147
I1
sS'52343'
p1148
I1
sS'51839'
p1149
I1
sS'60259'
p1150
I1
sS'38998'
p1151
I1
sS'42796'
p1152
I1
sS'51835'
p1153
I1
sS'46072'
p1154
I1
sS'46074'
p1155
I1
sS'42004'
p1156
I1
sS'43538'
p1157
I1
sS'45362'
p1158
I1
sS'56204'
p1159
I1
sS'56201'
p1160
I1
sS'49659'
p1161
I1
sS'56203'
p1162
I1
sS'43848'
p1163
I1
sS'49642'
p1164
I1
sS'60784'
p1165
I1
sS'49556'
p1166
I1
sS'53185'
p1167
I1
sS'49552'
p1168
I1
sS'52692'
p1169
I1
sS'52162'
p1170
I1
sS'49559'
p1171
I1
sS'52695'
p1172
I1
sS'46215'
p1173
I1
sS'60078'
p1174
I1
sS'54670'
p1175
I1
sS'36369'
p1176
I1
sS'60073'
p1177
I1
sS'49085'
p1178
I1
sS'45418'
p1179
I1
sS'56063'
p1180
I2
sS'42310'
p1181
I1
sS'42316'
p1182
I1
sS'46676'
p1183
I1
sS'42314'
p1184
I1
sS'58044'
p1185
I1
sS'58045'
p1186
I1
sS'38981'
p1187
I1
sS'52763'
p1188
I1
sS'46503'
p1189
I1
sS'46856'
p1190
I1
sS'57334'
p1191
I1
sS'45322'
p1192
I2
sS'49888'
p1193
I1
sS'57338'
p1194
I1
sS'48205'
p1195
I1
sS'41164'
p1196
I1
sS'37566'
p1197
I1
sS'37567'
p1198
I1
sS'41048'
p1199
I1
sS'60677'
p1200
I1
sS'60679'
p1201
I1
sS'44011'
p1202
I1
sS'52568'
p1203
I1
sS'60475'
p1204
I1
sS'42172'
p1205
I1
sS'36566'
p1206
I1
sS'36563'
p1207
I1
sS'38575'
p1208
I1
sS'53742'
p1209
I1
sS'57426'
p1210
I1
sS'34971'
p1211
I3
sS'42959'
p1212
I1
sS'36764'
p1213
I2
sS'45255'
p1214
I1
sS'36766'
p1215
I1
sS'42657'
p1216
I1
sS'58957'
p1217
I1
sS'40158'
p1218
I1
sS'36581'
p1219
I1
sS'40152'
p1220
I1
sS'54216'
p1221
I1
sS'44690'
p1222
I1
sS'58958'
p1223
I1
sS'48684'
p1224
I2
sS'48682'
p1225
I1
sS'37698'
p1226
I1
sS'53566'
p1227
I1
sS'53564'
p1228
I1
sS'54691'
p1229
I1
sS'37363'
p1230
I1
sS'39715'
p1231
I1
sS'41373'
p1232
I1
sS'59803'
p1233
I1
sS'36107'
p1234
I1
sS'33558'
p1235
I1
sS'52067'
p1236
I1
sS'41798'
p1237
I1
sS'44342'
p1238
I1
sS'46627'
p1239
I1
sS'33881'
p1240
I1
sS'33880'
p1241
I1
sS'59796'
p1242
I1
sS'54321'
p1243
I1
sS'54322'
p1244
I1
sS'54324'
p1245
I1
sS'39627'
p1246
I1
sS'57936'
p1247
I1
sS'37186'
p1248
I1
sS'57938'
p1249
I1
sS'40939'
p1250
I1
sS'41663'
p1251
I1
sS'36610'
p1252
I1
sS'56714'
p1253
I1
sS'37747'
p1254
I1
sS'37212'
p1255
I1
sS'58311'
p1256
I1
sS'34435'
p1257
I1
sS'33957'
p1258
I1
sS'50267'
p1259
I1
sS'37983'
p1260
I1
sS'33953'
p1261
I1
sS'57976'
p1262
I1
sS'39365'
p1263
I1
sS'58557'
p1264
I1
sS'40845'
p1265
I1
sS'59976'
p1266
I1
sS'34328'
p1267
I1
sS'34324'
p1268
I1
sS'47535'
p1269
I1
sS'40339'
p1270
I1
sS'47311'
p1271
I1
sS'34509'
p1272
I1
sS'35051'
p1273
I1
sS'50197'
p1274
I1
sS'40440'
p1275
I1
sS'48929'
p1276
I1
sS'55128'
p1277
I1
sS'47795'
p1278
I1
sS'35904'
p1279
I1
sS'50464'
p1280
I1
sS'59370'
p1281
I1
sS'47799'
p1282
I1
sS'40112'
p1283
I1
sS'34189'
p1284
I1
sS'47227'
p1285
I1
sS'35126'
p1286
I1
sS'36657'
p1287
I1
sS'37314'
p1288
I1
sS'55491'
p1289
I1
sS'60282'
p1290
I1
sS'33269'
p1291
I1
sS'45160'
p1292
I1
sS'50998'
p1293
I1
sS'47008'
p1294
I1
sS'52820'
p1295
I1
sS'50991'
p1296
I1
sS'43232'
p1297
I2
sS'52826'
p1298
I1
sS'59205'
p1299
I1
sS'55015'
p1300
I1
sS'39142'
p1301
I1
sS'39143'
p1302
I1
sS'39145'
p1303
I2
sS'32876'
p1304
I1
sS'48852'
p1305
I1
sS'39387'
p1306
I1
sS'39384'
p1307
I1
sS'39380'
p1308
I1
sS'50519'
p1309
I1
sS'35691'
p1310
I1
sS'50352'
p1311
I1
sS'44630'
p1312
I1
sS'35870'
p1313
I1
sS'51938'
p1314
I1
sS'55278'
p1315
I1
sS'35477'
p1316
I1
sS'51933'
p1317
I1
sS'55270'
p1318
I1
sS'52919'
p1319
I1
sS'33141'
p1320
I1
sS'60861'
p1321
I1
sS'46752'
p1322
I1
sS'55652'
p1323
I1
sS'51485'
p1324
I1
sS'32905'
p1325
I1
sS'56472'
p1326
I1
sS'32900'
p1327
I1
sS'39033'
p1328
I1
sS'56653'
p1329
I1
sS'48619'
p1330
I1
sS'43944'
p1331
I1
sS'43498'
p1332
I1
sS'43941'
p1333
I1
sS'46445'
p1334
I1
sS'46444'
p1335
I1
sS'54073'
p1336
I1
sS'42786'
p1337
I1
sS'55875'
p1338
I1
sS'35724'
p1339
I1
sS'43012'
p1340
I1
sS'43547'
p1341
I1
sS'56786'
p1342
I1
sS'43549'
p1343
I1
sS'42547'
p1344
I1
sS'46044'
p1345
I1
sS'42542'
p1346
I1
sS'46042'
p1347
I1
sS'43831'
p1348
I1
sS'43781'
p1349
I1
sS'43836'
p1350
I1
sS'52229'
p1351
I1
sS'39960'
p1352
I1
sS'53179'
p1353
I1
sS'39967'
p1354
I1
sS'49529'
p1355
I2
sS'39969'
p1356
I1
sS'52175'
p1357
I1
sS'36372'
p1358
I1
sS'53887'
p1359
I1
sS'41947'
p1360
I1
sS'41944'
p1361
I1
sS'57803'
p1362
I1
sS'38201'
p1363
I1
sS'57256'
p1364
I1
sS'43167'
p1365
I1
sS'56095'
p1366
I1
sS'43169'
p1367
I1
sS'56096'
p1368
I1
sS'57258'
p1369
I2
sS'38547'
p1370
I1
sS'38543'
p1371
I1
sS'38810'
p1372
I1
sS'53093'
p1373
I1
sS'60443'
p1374
I1
sS'42162'
p1375
I1
sS'42164'
p1376
I1
sS'56890'
p1377
I1
sS'60444'
p1378
I1
sS'40740'
p1379
I1
sS'36576'
p1380
I1
sS'46991'
p1381
I2
sS'42943'
p1382
I1
sS'44424'
p1383
I1
sS'42762'
p1384
I2
sS'42763'
p1385
I1
sS'48323'
p1386
I1
sS'53772'
p1387
I1
sS'48452'
p1388
I1
sS'36594'
p1389
I1
sS'48457'
p1390
I1
sS'45751'
p1391
I1
sS'58786'
p1392
I1
sS'54083'
p1393
I1
sS'54203'
p1394
I1
sS'49989'
p1395
I1
sS'38600'
p1396
I1
sS'60458'
p1397
I1
sS'46823'
p1398
I2
sS'44384'
p1399
I1
sS'50063'
p1400
I1
sS'37429'
p1401
I1
sS'44599'
p1402
I1
sS'41096'
p1403
I1
sS'44597'
p1404
I2
sS'44596'
p1405
I1
sS'54688'
p1406
I1
sS'49928'
p1407
I1
sS'37350'
p1408
I2
sS'33433'
p1409
I1
sS'36119'
p1410
I1
sS'41305'
p1411
I1
sS'41304'
p1412
I1
sS'44209'
p1413
I1
sS'44206'
p1414
I1
sS'44757'
p1415
I1
sS'44756'
p1416
I1
sS'45338'
p1417
I1
sS'45339'
p1418
I1
sS'44753'
p1419
I2
sS'59142'
p1420
I1
sS'59141'
p1421
I1
sS'60599'
p1422
I1
sS'55931'
p1423
I1
sS'35504'
p1424
I1
sS'53425'
p1425
I1
sS'41520'
p1426
I1
sS'48077'
p1427
I1
sS'48070'
p1428
I1
sS'38779'
p1429
I1
sS'41527'
p1430
I1
sS'49854'
p1431
I2
sS'57924'
p1432
I1
sS'49856'
p1433
I1
sS'48589'
p1434
I1
sS'39630'
p1435
I1
sS'57921'
p1436
I1
sS'48586'
p1437
I1
sS'57036'
p1438
I1
sS'39639'
p1439
I1
sS'47128'
p1440
I1
sS'40928'
p1441
I1
sS'53002'
p1442
I1
sS'40142'
p1443
I1
sS'37220'
p1444
I1
sS'37225'
p1445
I1
sS'37736'
p1446
I1
sS'47490'
p1447
I1
sS'40213'
p1448
I1
sS'54025'
p1449
I1
sS'59565'
p1450
I1
sS'41638'
p1451
I1
sS'33948'
p1452
I1
sS'33949'
p1453
I1
sS'46989'
p1454
I1
sS'39553'
p1455
I1
sS'37645'
p1456
I1
sS'33895'
p1457
I1
sS'40325'
p1458
I1
sS'40326'
p1459
I1
sS'34995'
p1460
I1
sS'34510'
p1461
I1
sS'47675'
p1462
I1
sS'47678'
p1463
I2
sS'50857'
p1464
I1
sS'54239'
p1465
I1
sS'35064'
p1466
I1
sS'53543'
p1467
I1
sS'48450'
p1468
I1
sS'40454'
p1469
I1
sS'34197'
p1470
I1
sS'50329'
p1471
I1
sS'59362'
p1472
I1
sS'50454'
p1473
I1
sS'38391'
p1474
I1
sS'34426'
p1475
I1
sS'47595'
p1476
I1
sS'35113'
p1477
I1
sS'58792'
p1478
I1
sS'55465'
p1479
I1
sS'55460'
p1480
I1
sS'55463'
p1481
I1
sS'58971'
p1482
I2
sS'47079'
p1483
I1
sS'56447'
p1484
I1
sS'50258'
p1485
I1
sS'52716'
p1486
I1
sS'52017'
p1487
I1
sS'39590'
p1488
I1
sS'59218'
p1489
I1
sS'50038'
p1490
I1
sS'50527'
p1491
I1
sS'35806'
p1492
I1
sS'47105'
p1493
I1
sS'52965'
p1494
I1
sS'59034'
p1495
I1
sS'35644'
p1496
I1
sS'56662'
p1497
I1
sS'47109'
p1498
I1
sS'46809'
p1499
I1
sg56
I1
sS'56468'
p1500
I1
sS'35245'
p1501
I1
sS'50146'
p1502
I1
sS'51498'
p1503
I1
sS'50143'
p1504
I2
sS'55566'
p1505
I1
sS'51490'
p1506
I1
sS'50148'
p1507
I1
sS'51492'
p1508
I1
sS'56868'
p1509
I1
sS'52369'
p1510
I1
sS'60277'
p1511
I1
sS'43488'
p1512
I1
sS'43489'
p1513
I2
sS'56318'
p1514
I1
sS'55840'
p1515
I1
sS'43956'
p1516
I2
sS'56645'
p1517
I1
sS'46187'
p1518
I1
sS'46184'
p1519
I1
sS'55685'
p1520
I1
sS'57797'
p1521
I1
sS'56792'
p1522
I1
sS'43554'
p1523
I1
sS'43007'
p1524
I1
sS'43790'
p1525
I1
sS'43821'
p1526
I1
sS'56265'
p1527
I1
sS'51142'
p1528
I1
sS'50576'
p1529
I1
sS'56268'
p1530
I1
sS'52214'
p1531
I1
sS'52210'
p1532
I1
sS'49533'
p1533
I1
sS'49537'
p1534
I1
sS'57688'
p1535
I1
sS'39953'
p1536
I1
sS'42682'
p1537
I1
sS'42684'
p1538
I1
sS'38999'
p1539
I1
sS'47044'
p1540
I1
sS'41955'
p1541
I1
sS'36341'
p1542
I1
sS'36901'
p1543
I1
sS'42372'
p1544
I1
sS'54446'
p1545
I1
sS'57222'
p1546
I1
sS'46452'
p1547
I1
sS'43174'
p1548
I1
sS'43177'
p1549
I1
sS'58020'
p1550
I2
sS'46525'
p1551
I1
sS'58028'
p1552
I1
sS'52783'
p1553
I1
sS'52782'
p1554
I1
sS'38550'
p1555
I1
sS'37503'
p1556
I1
sS'49198'
p1557
I1
sS'49628'
p1558
I1
sS'60697'
p1559
I1
sS'49624'
p1560
I1
sS'49625'
p1561
I1
sS'53096'
p1562
I1
sS'56886'
p1563
I1
sS'56884'
p1564
I1
sS'56882'
p1565
I1
sS'42195'
p1566
I1
sS'42190'
p1567
I1
sS'42750'
p1568
I1
sS'42754'
p1569
I1
sS'36742'
p1570
I1
sS'53947'
p1571
I1
sS'41884'
p1572
I1
sS'53234'
p1573
I1
sS'53235'
p1574
I1
sS'49990'
p1575
I1
sS'45989'
p1576
I1
sS'33713'
p1577
I1
sS'42551'
p1578
I1
sS'45985'
p1579
I1
sS'54230'
p1580
I1
sS'41403'
p1581
I1
sS'54234'
p1582
I1
sS'49449'
p1583
I1
sS'42990'
p1584
I1
sS'49443'
p1585
I1
sS'45298'
p1586
I1
sS'48663'
p1587
I1
sS'39738'
p1588
I1
sS'33398'
p1589
I1
sS'36128'
p1590
I1
sS'41312'
p1591
I1
sS'36902'
p1592
I1
sS'33407'
p1593
I1
sS'36908'
p1594
I1
sS'44212'
p1595
I1
sS'33404'
p1596
I1
sS'54307'
p1597
I1
sS'54656'
p1598
I1
sS'33373'
p1599
I1
sS'40040'
p1600
I1
sS'38702'
p1601
I1
sS'38707'
p1602
I1
sS'41531'
p1603
I1
sS'58376'
p1604
I1
sS'48004'
p1605
I1
sS'40916'
p1606
I1
sS'39606'
p1607
I1
sS'49840'
p1608
I1
sS'49841'
p1609
I1
sS'52990'
p1610
I1
sS'39609'
p1611
I1
sS'37238'
p1612
I1
sS'44105'
p1613
I1
sS'53536'
p1614
I1
sS'44102'
p1615
I1
sS'50009'
p1616
I1
sS'54783'
p1617
I1
sS'36638'
p1618
I1
sS'54787'
p1619
I1
sS'44109'
p1620
I1
sS'53530'
p1621
I1
sS'34297'
p1622
I1
sS'58132'
p1623
I1
sS'47485'
p1624
I1
sS'34299'
p1625
I1
sS'33971'
p1626
I1
sS'46350'
p1627
I1
sS'54017'
p1628
I1
sS'58575'
p1629
I1
sS'50204'
p1630
I1
sS'58579'
p1631
I1
sS'49128'
p1632
I1
sS'45961'
p1633
I2
sS'38871'
p1634
I1
sS'59683'
p1635
I1
sS'38011'
p1636
I1
sS'57016'
p1637
I1
sS'37653'
p1638
I1
sS'44367'
p1639
I1
sS'58134'
p1640
I1
sS'34072'
p1641
I1
sS'50824'
p1642
I2
sS'53067'
p1643
I1
sS'50797'
p1644
I1
sS'40468'
p1645
I1
sS'59352'
p1646
I1
sS'40663'
p1647
I1
sS'52166'
p1648
I1
sS'40668'
p1649
I1
sS'44963'
p1650
I1
sg465
I1
sS'44966'
p1651
I1
sS'44964'
p1652
I1
sS'44965'
p1653
I1
sS'38128'
p1654
I1
sS'34458'
p1655
I1
sS'35102'
p1656
I1
sS'35103'
p1657
I1
sS'57919'
p1658
I1
sS'55476'
p1659
I1
sS'55473'
p1660
I1
sS'48871'
p1661
I1
sS'34673'
p1662
I1
sS'48879'
p1663
I1
sS'34677'
p1664
I1
sS'59221'
p1665
I1
sS'44815'
p1666
I1
sS'50531'
p1667
I1
sS'59225'
p1668
I1
sS'50533'
p1669
I1
sS'49733'
p1670
I1
sS'51006'
p1671
I1
sS'55078'
p1672
I1
sS'55079'
p1673
I1
sS'51552'
p1674
I1
sS'38235'
p1675
I1
sS'35077'
p1676
I2
sS'35073'
p1677
I1
sS'50026'
p1678
I1
sS'60999'
p1679
I1
sS'53684'
p1680
I1
sS'41031'
p1681
I1
sS'35495'
p1682
I1
sS'35491'
p1683
I1
sS'43361'
p1684
I1
sS'52970'
p1685
I1
sS'44980'
p1686
I1
sS'43366'
p1687
I1
sS'43369'
p1688
I1
sS'56410'
p1689
I1
sS'60846'
p1690
I1
sS'60845'
p1691
I1
sS'35256'
p1692
I1
sS'35257'
p1693
I1
sS'55675'
p1694
I1
sS'46614'
p1695
I1
sS'55507'
p1696
I1
sS'56633'
p1697
I1
sS'56325'
p1698
I1
sS'59453'
p1699
I1
sS'42562'
p1700
I1
sS'42568'
p1701
I1
sS'51172'
p1702
I1
sS'43566'
p1703
I1
sS'59901'
p1704
I1
sS'56492'
p1705
I1
sS'51179'
p1706
I1
sS'47131'
p1707
I1
sS'51955'
p1708
I1
sS'52201'
p1709
I1
sS'43761'
p1710
I1
sS'43812'
p1711
I1
sS'52206'
p1712
I1
sS'46083'
p1713
I1
sS'38492'
p1714
I1
sS'56740'
p1715
I1
sS'46085'
p1716
I1
sS'49508'
p1717
I1
sS'57124'
p1718
I1
sS'46088'
p1719
I1
sS'49051'
p1720
I1
sS'46732'
p1721
I1
sS'36359'
p1722
I1
sS'60516'
p1723
I1
sS'36354'
p1724
I1
sS'52429'
p1725
I1
sS'52581'
p1726
I1
sS'52372'
p1727
I1
sS'58574'
p1728
I1
sS'49157'
p1729
I1
sS'52379'
p1730
I1
sS'39834'
p1731
I1
sS'45192'
p1732
I1
sS'52799'
p1733
I1
sS'52795'
p1734
I1
sS'37537'
p1735
I1
sS'53368'
p1736
I1
sS'47375'
p1737
I1
sS'49610'
p1738
I1
sS'36756'
p1739
I1
sS'36757'
p1740
I1
sS'45513'
p1741
I1
sS'45519'
p1742
I1
sS'36289'
p1743
I1
sS'52154'
p1744
I1
sS'42218'
p1745
I1
sS'42960'
p1746
I1
sS'42961'
p1747
I1
sS'49295'
p1748
I1
sS'49294'
p1749
I2
sS'42740'
p1750
I1
sS'57339'
p1751
I1
sS'42742'
p1752
I1
sS'49290'
p1753
I1
sS'48479'
p1754
I1
sS'45774'
p1755
I1
sS'45775'
p1756
I1
sS'45776'
p1757
I1
sS'41434'
p1758
I1
sS'46957'
p1759
I1
sS'39723'
p1760
I1
sS'49270'
p1761
I1
sS'42981'
p1762
I1
sS'53363'
p1763
I1
sS'45283'
p1764
I1
sS'36130'
p1765
I1
sS'33382'
p1766
I1
sS'37406'
p1767
I1
sS'33387'
p1768
I1
sS'33419'
p1769
I1
sS'45602'
p1770
I1
sS'41980'
p1771
I1
sS'53331'
p1772
I1
sS'33149'
p1773
I1
sS'33146'
p1774
I1
sS'45609'
p1775
I1
sS'41325'
p1776
I1
sS'44770'
p1777
I1
sS'41322'
p1778
I1
sS'44774'
p1779
I1
sS'54647'
p1780
I1
sS'41051'
p1781
I1
sS'41502'
p1782
I1
sS'44555'
p1783
I1
sS'37394'
p1784
I1
sS'59161'
p1785
I1
sS'59163'
p1786
I1
sS'41059'
p1787
I1
sS'58474'
p1788
I1
sS'38713'
p1789
I1
sS'48018'
p1790
I1
sS'48013'
p1791
I1
sS'59760'
p1792
I1
sS'48015'
p1793
I1
sS'37717'
p1794
I1
sS'49872'
p1795
I1
sS'54797'
p1796
I1
sS'54791'
p1797
I1
sS'44486'
p1798
I1
sS'40908'
p1799
I1
sS'44488'
p1800
I1
sS'55930'
p1801
I2
sS'34841'
p1802
I1
sS'44171'
p1803
I1
sS'54220'
p1804
I1
sS'36629'
p1805
I2
sS'54222'
p1806
I1
sS'44176'
p1807
I1
sS'44179'
p1808
I1
sS'41182'
p1809
I1
sS'46242'
p1810
I1
sS'41180'
p1811
I1
sS'36620'
p1812
I1
sS'33709'
p1813
I1
sS'36622'
p1814
I1
sS'56943'
p1815
I1
sS'40278'
p1816
I1
sS'40270'
p1817
I1
sS'47471'
p1818
I1
sS'41615'
p1819
I1
sS'38793'
p1820
I1
sS'48709'
p1821
I1
sS'1025'
p1822
I46
sS'54864'
p1823
I1
sS'38004'
p1824
I1
sS'37667'
p1825
I1
sS'37889'
p1826
I1
sS'55363'
p1827
I1
sS'33569'
p1828
I1
sS'37669'
p1829
I1
sS'40697'
p1830
I1
sS'47618'
p1831
I1
sS'44956'
p1832
I1
sS'40672'
p1833
I1
sS'40673'
p1834
I1
sS'37863'
p1835
I1
sS'59348'
p1836
I1
sS'47583'
p1837
I1
sS'39282'
p1838
I1
sS'40679'
p1839
I1
sS'53966'
p1840
I1
sS'59184'
p1841
I1
sS'57958'
p1842
I1
sS'39444'
p1843
I1
sS'40584'
p1844
I1
sS'38138'
p1845
I1
sS'46840'
p1846
I1
sS'47904'
p1847
I1
sS'47906'
p1848
I1
sS'47903'
p1849
I1
sS'50490'
p1850
I1
sS'55190'
p1851
I1
sS'50946'
p1852
I1
sS'50940'
p1853
I1
sS'47294'
p1854
I1
sS'47297'
p1855
I1
sS'36816'
p1856
I1
sS'35391'
p1857
I1
sS'44822'
p1858
I1
sS'45526'
p1859
I1
sS'35823'
p1860
I1
sS'35822'
p1861
I1
sS'51548'
p1862
I1
sS'51012'
p1863
I1
sS'44828'
p1864
I1
sS'51014'
p1865
I1
sS'59231'
p1866
I1
sS'50019'
p1867
I1
sS'53804'
p1868
I1
sS'38222'
p1869
I1
sS'38229'
p1870
I1
sS'60989'
p1871
I1
sS'35836'
p1872
I1
sS'47122'
p1873
I1
sS'58955'
p1874
I1
sS'34712'
p1875
I1
sS'43377'
p1876
I2
sS'43374'
p1877
I1
sS'51521'
p1878
I1
sS'54219'
p1879
I1
sS'35622'
p1880
I1
sS'35625'
p1881
I1
sS'35627'
p1882
I1
sS'32936'
p1883
I1
sS'39061'
p1884
I1
sS'32933'
p1885
I1
sS'60855'
p1886
I1
sS'53485'
p1887
I1
sS'54690'
p1888
I1
sS'40224'
p1889
I1
sS'55536'
p1890
I1
sS'38952'
p1891
I2
sS'56622'
p1892
I1
sS'45749'
p1893
I1
sS'60219'
p1894
I1
sS'56627'
p1895
I1
sS'58386'
p1896
I1
sS'52882'
p1897
I1
sS'42513'
p1898
I1
sS'42515'
p1899
I2
sS'35530'
p1900
I1
sS'42517'
p1901
I1
sS'51161'
p1902
I1
sS'51163'
p1903
I2
sS'53642'
p1904
I1
sS'43576'
p1905
I2
sS'55227'
p1906
I1
sS'51767'
p1907
I1
sS'49834'
p1908
I1
sS'55999'
p1909
I1
sS'43802'
p1910
I1
sS'56535'
p1911
I1
sS'56246'
p1912
I1
sS'56521'
p1913
I1
sS'43596'
p1914
I1
sS'56754'
p1915
I1
sS'43593'
p1916
I1
sS'59199'
p1917
I1
sS'46724'
p1918
I1
sS'46725'
p1919
I1
sS'46090'
p1920
I1
sS'46092'
p1921
I1
sS'57114'
p1922
I1
sS'60509'
p1923
I2
sS'56820'
p1924
I1
sS'47243'
p1925
I1
sS'52098'
p1926
I1
sS'42426'
p1927
I1
sS'46494'
p1928
I1
sS'42422'
p1929
I1
sS'46437'
p1930
I1
sS'43972'
p1931
I1
sS'57201'
p1932
I1
sS'49604'
p1933
I1
sS'49605'
p1934
I1
sS'39842'
p1935
I1
sS'49600'
p1936
I1
sS'39844'
p1937
I1
sS'49603'
p1938
I1
sS'39849'
p1939
I1
sS'56828'
p1940
I1
sS'46547'
p1941
I1
sS'58006'
p1942
I1
sS'45162'
p1943
I1
sS'38828'
p1944
I1
sS'44435'
p1945
I1
sS'52527'
p1946
I1
sS'45561'
p1947
I1
sS'36724'
p1948
I1
sS'45567'
p1949
I1
sS'36726'
p1950
I1
sS'39891'
p1951
I1
sS'42739'
p1952
I1
sS'42738'
p1953
I1
sS'42228'
p1954
I1
sS'43603'
p1955
I1
sS'49282'
p1956
I1
sS'53926'
p1957
I1
sS'42736'
p1958
I1
sS'49460'
p1959
I1
sS'58175'
p1960
I2
sS'54490'
p1961
I1
sS'45703'
p1962
I1
sS'45702'
p1963
I1
sS'37414'
p1964
I1
sS'49267'
p1965
I1
sS'41696'
p1966
I1
sS'48643'
p1967
I1
sS'48397'
p1968
I1
sS'46949'
p1969
I1
sS'45730'
p1970
I1
sS'39996'
p1971
I1
sS'54269'
p1972
I1
sS'53322'
p1973
I1
sS'36380'
p1974
I1
sS'53942'
p1975
I1
sS'33173'
p1976
I1
sS'36434'
p1977
I1
sS'36923'
p1978
I2
sS'41991'
p1979
I1
sS'54815'
p1980
I1
sS'54814'
p1981
I1
sS'58350'
p1982
I1
sS'48026'
p1983
I1
sS'33351'
p1984
I1
sS'48024'
p1985
I1
sS'44549'
p1986
I1
sS'44018'
p1987
I1
sS'54674'
p1988
I1
sS'44544'
p1989
I1
sS'44012'
p1990
I2
sS'54909'
p1991
I1
sS'44542'
p1992
I1
sS'44543'
p1993
I1
sS'53459'
p1994
I1
sS'38728'
p1995
I1
sS'38726'
p1996
I1
sS'44491'
p1997
I1
sS'49860'
p1998
I1
sS'49861'
p1999
I1
sS'53048'
p2000
I1
sS'39666'
p2001
I1
sS'33771'
p2002
I1
sS'44160'
p2003
I1
sS'37093'
p2004
I1
sS'41420'
p2005
I1
sS'37095'
p2006
I1
sS'33776'
p2007
I1
sS'54259'
p2008
I1
sS'36654'
p2009
I1
sS'40111'
p2010
I2
sS'40110'
p2011
I1
sS'47468'
p2012
I1
sS'34275'
p2013
I1
sS'51413'
p2014
I1
sS'44460'
p2015
I1
sS'46391'
p2016
I1
sS'39525'
p2017
I1
sS'39528'
p2018
I1
sS'58590'
p2019
I1
sS'47866'
p2020
I1
sS'45946'
p2021
I1
sS'47864'
p2022
I1
sS'47865'
p2023
I1
sS'57093'
p2024
I1
sS'47869'
p2025
I2
sS'38036'
p2026
I1
sS'54048'
p2027
I1
sS'37678'
p2028
I1
sS'56345'
p2029
I1
sS'37676'
p2030
I1
sS'33596'
p2031
I1
sS'41794'
p2032
I1
sS'37896'
p2033
I1
sS'57748'
p2034
I1
sS'40485'
p2035
I1
sS'38271'
p2036
I2
sS'40480'
p2037
I1
sS'54104'
p2038
I1
sS'47598'
p2039
I1
sS'59874'
p2040
I1
sS'57747'
p2041
I1
sS'34381'
p2042
I1
sS'47590'
p2043
I1
sS'33829'
p2044
I1
sS'34387'
p2045
I1
sS'39297'
p2046
I1
sS'38107'
p2047
I1
sS'47269'
p2048
I1
sS'40242'
p2049
I1
sS'40241'
p2050
I1
sS'34475'
p2051
I1
sS'34474'
p2052
I1
sS'34472'
p2053
I1
sS'47734'
p2054
I1
sS'34126'
p2055
I1
sS'50488'
p2056
I1
sS'47045'
p2057
I1
sS'34650'
p2058
I1
sS'50955'
p2059
I1
sS'34129'
p2060
I2
sS'35703'
p2061
I1
sS'34659'
p2062
I1
sS'39181'
p2063
I1
sS'47280'
p2064
I1
sS'48815'
p2065
I1
sS'47289'
p2066
I1
sS'50001'
p2067
I1
sS'50002'
p2068
I1
sS'35381'
p2069
I1
sS'35387'
p2070
I1
sS'35384'
p2071
I1
sS'35838'
p2072
I1
sS'35839'
p2073
I1
sS'50559'
p2074
I1
sS'51577'
p2075
I1
sS'51575'
p2076
I1
sS'41551'
p2077
I1
sS'50792'
p2078
I1
sS'50741'
p2079
I1
sS'50827'
p2080
I1
sS'50796'
p2081
I1
sS'38214'
p2082
I1
sS'47406'
p2083
I1
sS'50829'
p2084
I1
sS'50928'
p2085
I1
sS'48591'
p2086
I1
sS'52958'
p2087
I1
sS'51680'
p2088
I1
sS'35639'
p2089
I1
sS'52952'
p2090
I1
sS'52954'
p2091
I1
sS'43342'
p2092
I1
sS'47133'
p2093
I1
sS'51372'
p2094
I1
sS'51375'
p2095
I1
sS'39075'
p2096
I1
sS'56437'
p2097
I1
sS'53330'
p2098
I1
sS'55455'
p2099
I1
sS'39274'
p2100
I1
sS'39272'
p2101
I1
sS'55451'
p2102
I1
sS'39278'
p2103
I1
sS'38920'
p2104
I1
sS'38927'
p2105
I1
sS'38926'
p2106
I1
sS'55525'
p2107
I1
sS'55527'
p2108
I1
sS'56918'
p2109
I1
sS'42504'
p2110
I1
sS'40903'
p2111
I1
sS'42509'
p2112
I2
sS'60017'
p2113
I1
sS'51198'
p2114
I1
sS'51194'
p2115
I1
sS'44515'
p2116
I1
sS'49573'
p2117
I1
sS'51467'
p2118
I1
sS'51752'
p2119
I1
sS'55981'
p2120
I1
sS'51979'
p2121
I1
sS'43743'
p2122
I1
sS'55239'
p2123
I1
sS'51758'
p2124
I1
sS'43295'
p2125
I1
sS'51970'
p2126
I1
sS'46718'
p2127
I1
sS'56985'
p2128
I1
sS'56984'
p2129
I1
sS'52402'
p2130
I1
sS'56981'
p2131
I1
sS'60530'
p2132
I1
sS'60537'
p2133
I1
sS'59202'
p2134
I1
sS'52086'
p2135
I1
sS'46399'
p2136
I1
sS'42341'
p2137
I1
sS'42342'
p2138
I1
sS'46393'
p2139
I1
sS'43129'
p2140
I1
sS'57218'
p2141
I1
sS'56342'
p2142
I1
sS'43905'
p2143
I1
sS'52314'
p2144
I1
sS'46408'
p2145
I1
sS'57746'
p2146
I1
sS'56348'
p2147
I1
sS'52318'
p2148
I1
sS'46404'
p2149
I1
sS'50952'
p2150
I1
sS'46375'
p2151
I1
sS'57563'
p2152
I1
sS'46373'
p2153
I1
sS'57561'
p2154
I1
sS'53044'
p2155
I1
sS'53041'
p2156
I1
sS'53950'
p2157
I1
sS'43104'
p2158
I1
sS'36732'
p2159
I2
sS'34653'
p2160
I1
sS'53912'
p2161
I1
sS'36739'
p2162
I1
sS'57834'
p2163
I1
sS'42239'
p2164
I1
sS'57106'
p2165
I1
sS'53137'
p2166
I1
sS'53136'
p2167
I1
sS'43638'
p2168
I1
sS'41296'
p2169
I3
sS'41292'
p2170
I1
sS'54488'
p2171
I1
sS'45713'
p2172
I1
sS'57103'
p2173
I1
sS'48658'
p2174
I1
sS'53595'
p2175
I1
sS'45715'
p2176
I1
sS'49252'
p2177
I1
sS'49250'
p2178
I1
sS'48383'
p2179
I1
sS'49259'
p2180
I1
sS'49706'
p2181
I1
sS'56964'
p2182
I1
sS'44712'
p2183
I1
sS'33162'
p2184
I1
sS'39985'
p2185
I1
sS'56968'
p2186
I1
sS'39983'
p2187
I1
sS'36938'
p2188
I1
sS'46576'
p2189
I1
sS'36399'
p2190
I1
sS'46570'
p2191
I1
sS'36930'
p2192
I1
sS'53685'
p2193
I1
sS'42728'
p2194
I1
sS'36934'
p2195
I1
sS'36423'
p2196
I1
sS'59746'
p2197
I1
sS'41070'
p2198
I1
sS'59740'
p2199
I1
sS'44023'
p2200
I1
sS'41079'
p2201
I1
sS'44532'
p2202
I1
sS'33611'
p2203
I1
sS'53666'
p2204
I1
sS'34861'
p2205
I1
sS'53663'
p2206
I1
sS'37820'
p2207
I1
sS'38733'
p2208
I1
sS'43946'
p2209
I2
sS'58610'
p2210
I1
sS'58613'
p2211
I1
sS'49818'
p2212
I1
sS'33290'
p2213
I1
sS'33291'
p2214
I1
sS'53616'
p2215
I1
sS'37268'
p2216
I1
sS'37263'
p2217
I1
sS'50269'
p2218
I1
sS'58291'
p2219
I1
sS'53261'
p2220
I1
sS'58925'
p2221
I1
sS'54247'
p2222
I1
sS'58297'
p2223
I1
sS'48224'
p2224
I1
sS'54248'
p2225
I1
sS'44622'
p2226
I1
sS'57505'
p2227
I1
sS'44441'
p2228
I1
sS'47453'
p2229
I1
sS'49491'
p2230
I1
sS'38024'
p2231
I1
sS'33908'
p2232
I1
sS'58410'
p2233
I1
sS'36943'
p2234
I1
sS'48725'
p2235
I1
sS'33901'
p2236
I1
sS'54066'
p2237
I1
sS'48721'
p2238
I1
sS'46972'
p2239
I1
sS'58721'
p2240
I1
sS'58723'
p2241
I1
sS'58724'
p2242
I1
sS'58726'
p2243
I1
sS'37609'
p2244
I1
sS'40077'
p2245
I1
sS'34869'
p2246
I1
sS'40072'
p2247
I1
sS'37604'
p2248
I1
sS'60200'
p2249
I1
sS'34003'
p2250
I1
sS'34001'
p2251
I1
sS'33835'
p2252
I1
sS'41700'
p2253
I1
sS'51217'
p2254
I1
sS'40654'
p2255
I1
sS'59415'
p2256
I1
sS'49310'
p2257
I1
sS'40653'
p2258
I1
sS'38112'
p2259
I2
sS'39461'
p2260
I2
sS'40251'
p2261
I1
sS'37117'
p2262
I1
sS'37786'
p2263
I1
sS'40256'
p2264
I1
sS'34460'
p2265
I1
sS'37118'
p2266
I1
sS'50969'
p2267
I1
sS'34130'
p2268
I1
sS'50963'
p2269
I1
sS'50960'
p2270
I1
sS'35737'
p2271
I1
sS'34487'
p2272
I1
sS'34485'
p2273
I1
sS'56637'
p2274
I1
sS'48828'
p2275
I1
sS'44849'
p2276
I1
sS'47533'
p2277
I1
sS'50017'
p2278
I1
sS'44844'
p2279
I1
sS'50561'
p2280
I1
sS'47637'
p2281
I1
sS'38208'
p2282
I1
sS'35029'
p2283
I1
sS'44718'
p2284
I1
sS'50817'
p2285
I1
sS'41360'
p2286
I1
sS'37544'
p2287
I1
sS'50810'
p2288
I1
sS'35355'
p2289
I1
sS'35603'
p2290
I2
sS'55690'
p2291
I1
sS'55085'
p2292
I1
sS'32880'
p2293
I1
sS'55733'
p2294
I1
sS'33042'
p2295
I1
sS'43352'
p2296
I1
sS'34730'
p2297
I1
sS'34733'
p2298
I1
sS'46577'
p2299
I1
sS'32950'
p2300
I1
sS'53862'
p2301
I1
sS'32958'
p2302
I2
sS'53726'
p2303
I1
sS'55423'
p2304
I1
sS'35281'
p2305
I1
sS'39248'
p2306
I1
sS'35285'
p2307
I1
sS'56190'
p2308
I1
sS'38930'
p2309
I1
sS'60899'
p2310
I1
sS'56196'
p2311
I1
sS'56197'
p2312
I1
sS'55883'
p2313
I1
sS'55550'
p2314
I1
sS'60896'
p2315
I1
sS'55880'
p2316
I1
sS'55884'
p2317
I1
sS'42530'
p2318
I1
sS'45373'
p2319
I1
sS'51182'
p2320
I1
sS'50616'
p2321
I1
sS'51216'
p2322
I1
sS'51961'
p2323
I1
sS'43286'
p2324
I1
sS'57735'
p2325
I1
sS'60525'
p2326
I1
sS'56779'
p2327
I1
sS'56776'
p2328
I1
sS'56994'
p2329
I1
sS'56771'
p2330
I1
sS'51986'
p2331
I2
sS'55954'
p2332
I1
sS'59747'
p2333
I1
sS'55951'
p2334
I1
sS'55958'
p2335
I1
sS'42409'
p2336
I1
sS'42408'
p2337
I1
sS'43135'
p2338
I1
sS'43139'
p2339
I1
sS'56602'
p2340
I1
sS'57778'
p2341
I1
sS'56604'
p2342
I1
sS'46148'
p2343
I1
sS'43915'
p2344
I1
sS'57771'
p2345
I1
sS'57775'
p2346
I1
sS'45498'
p2347
I1
sS'38596'
p2348
I1
sS'57557'
p2349
I1
sS'50463'
p2350
I1
sS'45143'
p2351
I1
sS'57004'
p2352
I1
sS'45140'
p2353
I1
sS'58934'
p2354
I1
sS'39861'
p2355
I1
sS'46369'
p2356
I1
sS'44024'
p2357
I1
sS'36830'
p2358
I1
sS'42241'
p2359
I1
sS'53902'
p2360
I2
sS'53906'
p2361
I1
sS'42249'
p2362
I1
sS'42248'
p2363
I1
sS'51778'
p2364
I1
sS'49064'
p2365
I1
sS'42084'
p2366
I1
sS'53124'
p2367
I1
sS'43624'
p2368
I1
sS'52181'
p2369
I2
sS'49403'
p2370
I1
sS'48621'
p2371
I1
sS'48622'
p2372
I1
sS'51974'
p2373
I1
sS'49487'
p2374
I1
sS'53271'
p2375
I1
sS'37012'
p2376
I1
sS'36898'
p2377
I1
sS'58202'
p2378
I1
sS'52617'
p2379
I1
sS'37474'
p2380
I1
sS'52614'
p2381
I1
sS'59376'
p2382
I1
sS'59932'
p2383
I1
sS'56975'
p2384
I1
sS'44706'
p2385
I1
sS'57881'
p2386
I1
sS'44518'
p2387
I2
sS'35120'
p2388
I1
sS'56979'
p2389
I1
sS'46565'
p2390
I1
sS'42888'
p2391
I2
sS'42669'
p2392
I1
sS'57696'
p2393
I1
sS'49504'
p2394
I1
sS'45037'
p2395
I1
sS'59734'
p2396
I1
sS'44523'
p2397
I1
sS'44520'
p2398
I1
sS'41067'
p2399
I1
sS'49794'
p2400
I1
sS'42864'
p2401
I1
sS'53675'
p2402
I1
sS'48286'
p2403
I1
sS'48285'
p2404
I1
sS'53671'
p2405
I2
sS'54583'
p2406
I1
sS'58605'
p2407
I1
sS'45810'
p2408
I1
sS'33297'
p2409
I1
sS'39885'
p2410
I1
sS'39883'
p2411
I1
sS'55749'
p2412
I1
sS'49800'
p2413
I2
sS'49806'
p2414
I1
sS'58897'
p2415
I1
sS'53586'
p2416
I1
sS'41580'
p2417
I1
sS'33029'
p2418
I1
sS'52784'
p2419
I1
sS'33756'
p2420
I1
sS'54907'
p2421
I1
sS'50744'
p2422
I1
sS'54273'
p2423
I1
sS'37073'
p2424
I1
sS'45729'
p2425
I1
sS'33935'
p2426
I1
sS'42817'
p2427
I1
sS'54051'
p2428
I1
sS'54050'
p2429
I1
sS'34253'
p2430
I1
sS'59086'
p2431
I1
sS'37298'
p2432
I1
sS'54290'
p2433
I1
sS'39500'
p2434
I1
sS'39501'
p2435
I1
sS'41661'
p2436
I1
sS'38696'
p2437
I1
sS'40392'
p2438
I1
sS'41450'
p2439
I1
sS'34925'
p2440
I1
sS'40398'
p2441
I1
sS'47842'
p2442
I1
sS'34926'
p2443
I1
sS'49939'
p2444
I1
sS'37619'
p2445
I1
sS'44030'
p2446
I1
sS'37613'
p2447
I1
sS'37616'
p2448
I1
sS'56181'
p2449
I1
sS'52466'
p2450
I1
sS'54123'
p2451
I1
sS'59468'
p2452
I1
sS'59398'
p2453
I1
sS'33807'
p2454
I1
sS'33805'
p2455
I1
sS'59390'
p2456
I1
sS'59465'
p2457
I1
sS'36169'
p2458
I1
sS'40627'
p2459
I1
sS'47930'
p2460
I1
sS'58421'
p2461
I1
sS'47445'
p2462
I1
sS'37102'
p2463
I1
sS'37956'
p2464
I1
sS'52365'
p2465
I1
sS'47710'
p2466
I1
sS'47711'
p2467
I1
sS'51513'
p2468
I1
sS'59260'
p2469
I1
sS'48830'
p2470
I1
sS'48833'
p2471
I1
sS'48836'
p2472
I1
sg252
I1
sS'59061'
p2473
I1
sS'45818'
p2474
I1
sS'44854'
p2475
I1
sS'50577'
p2476
I1
sS'34037'
p2477
I1
sS'38278'
p2478
I1
sS'47622'
p2479
I1
sS'33603'
p2480
I1
sS'50778'
p2481
I1
sS'50779'
p2482
I1
sS'50800'
p2483
I1
sS'50774'
p2484
I1
sS'50771'
p2485
I1
sS'50595'
p2486
I1
sS'50590'
p2487
I1
sS'35341'
p2488
I1
sS'35618'
p2489
I1
sS'52478'
p2490
I1
sS'50599'
p2491
I1
sS'48891'
p2492
I1
sS'47156'
p2493
I1
sS'51355'
p2494
I1
sS'39095'
p2495
I1
sS'51350'
p2496
I1
sS'38305'
p2497
I2
sS'38304'
p2498
I1
sS'35726'
p2499
I1
sS'50977'
p2500
I1
sS'35723'
p2501
I1
sS'54347'
p2502
I1
sS'35728'
p2503
I1
sS'43296'
p2504
I1
sS'55549'
p2505
I1
sS'38188'
p2506
I1
sS'55546'
p2507
I1
sS'41642'
p2508
I1
sS'42520'
p2509
I1
sS'35502'
p2510
I1
sS'35503'
p2511
I1
sS'56564'
p2512
I1
sS'56566'
p2513
I1
sS'53709'
p2514
I1
sS'49707'
p2515
I1
sS'51228'
p2516
I2
sS'51733'
p2517
I2
sS'51225'
p2518
I1
sS'60553'
p2519
I1
sS'60552'
p2520
I2
sS'60554'
p2521
I1
sS'56705'
p2522
I1
sS'42410'
p2523
I1
sS'60392'
p2524
I1
sS'55940'
p2525
I1
sS'60390'
p2526
I1
sS'55949'
p2527
I1
sS'57761'
p2528
I2
sS'59420'
p2529
I1
sS'50512'
p2530
I1
sS'55894'
p2531
I1
sS'55896'
p2532
I1
sS'56369'
p2533
I1
sS'46173'
p2534
I1
sS'43926'
p2535
I1
sS'43925'
p2536
I1
sS'46177'
p2537
I1
sS'52991'
p2538
I1
sS'52512'
p2539
I1
sS'38874'
p2540
I1
sS'38872'
p2541
I1
sS'56013'
p2542
I1
sS'49125'
p2543
I1
sS'49124'
p2544
I1
sS'45480'
p2545
I1
sS'49126'
p2546
I1
sS'46601'
p2547
I1
sS'39875'
p2548
I1
sS'45484'
p2549
I1
sS'57543'
p2550
I1
sS'57888'
p2551
I1
sS'36082'
p2552
I1
sS'60178'
p2553
I1
sS'36608'
p2554
I1
sS'36719'
p2555
I1
sS'42254'
p2556
I1
sS'42255'
p2557
I1
sS'41873'
p2558
I1
sS'42709'
p2559
I1
sS'36740'
p2560
I1
sS'37940'
p2561
I1
sS'36716'
p2562
I1
sS'55274'
p2563
I1
sS'49012'
p2564
I1
sS'46775'
p2565
I1
sS'43650'
p2566
I1
sS'53115'
p2567
I1
sS'33995'
p2568
I1
sS'40956'
p2569
I1
sS'36880'
p2570
I1
sS'58125'
p2571
I1
sS'37761'
p2572
I1
sS'60584'
p2573
I1
sS'46913'
p2574
I1
sS'49727'
p2575
I1
sS'50291'
p2576
I1
sS'46917'
p2577
I1
sS'54862'
p2578
I1
sS'54863'
p2579
I1
sS'38475'
p2580
I1
sS'44737'
p2581
I1
sS'60773'
p2582
I1
sS'42189'
p2583
I1
sS'60777'
p2584
I1
sS'40079'
p2585
I1
sS'53809'
p2586
I1
sS'45155'
p2587
I1
sS'46597'
p2588
I1
sS'53805'
p2589
I1
sS'46590'
p2590
I1
sS'59727'
p2591
I1
sS'59896'
p2592
I1
sS'37362'
p2593
I1
sS'41011'
p2594
I1
sS'59729'
p2595
I1
sS'54606'
p2596
I1
sS'41014'
p2597
I1
sS'41017'
p2598
I1
sS'46824'
p2599
I1
sS'46826'
p2600
I1
sS'49833'
p2601
I2
sS'39655'
p2602
I1
sS'45808'
p2603
I1
sS'54592'
p2604
I1
sS'41380'
p2605
I1
sS'41385'
p2606
I1
sS'58634'
p2607
I1
sS'60607'
p2608
I1
sS'36663'
p2609
I1
sS'39892'
p2610
I1
sS'60603'
p2611
I1
sS'36667'
p2612
I1
sS'46308'
p2613
I1
sS'36669'
p2614
I1
sS'37599'
p2615
I1
sS'33749'
p2616
I1
sS'53011'
p2617
I1
sS'36062'
p2618
I1
sS'53241'
p2619
I1
sS'53240'
p2620
I1
sS'54916'
p2621
I1
sS'37042'
p2622
I1
sS'37597'
p2623
I1
sS'41125'
p2624
I1
sS'54041'
p2625
I1
sS'41127'
p2626
I1
sS'33255'
p2627
I1
sS'58599'
p2628
I1
sS'33928'
p2629
I1
sS'40707'
p2630
I1
sS'59095'
p2631
I1
sS'59096'
p2632
I1
sS'41495'
p2633
I1
sS'58257'
p2634
I1
sS'44196'
p2635
I1
sS'58252'
p2636
I1
sS'40383'
p2637
I1
sS'38682'
p2638
I1
sS'38684'
p2639
I1
sS'57839'
p2640
I1
sS'46603'
p2641
I1
sS'34936'
p2642
I1
sS'57835'
p2643
I1
sS'34930'
p2644
I1
sS'44043'
p2645
I1
sS'49291'
p2646
I1
sS'40014'
p2647
I1
sS'44048'
p2648
I1
sS'40018'
p2649
I1
sS'56578'
p2650
I1
sS'44519'
p2651
I2
sS'54113'
p2652
I1
sS'47892'
p2653
I1
sS'48570'
p2654
I1
sS'47541'
p2655
I1
sS'47542'
p2656
I1
sS'41726'
p2657
I1
sS'35999'
p2658
I1
sS'39409'
p2659
I1
sS'33815'
p2660
I1
sS'50345'
p2661
I1
sS'33810'
p2662
I1
sS'59474'
p2663
I1
sS'50083'
p2664
I1
sS'47431'
p2665
I1
sS'37132'
p2666
I1
sS'34247'
p2667
I1
sS'34240'
p2668
I1
sS'37135'
p2669
I1
sS'34248'
p2670
I1
sS'47099'
p2671
I1
sS'35194'
p2672
I1
sS'34119'
p2673
I1
sS'47091'
p2674
I1
sS'46406'
p2675
I1
sS'59277'
p2676
I1
sS'59074'
p2677
I1
sS'39318'
p2678
I1
sS'39314'
p2679
I1
sS'58082'
p2680
I1
sS'39313'
p2681
I1
sS'39031'
p2682
I1
sS'34025'
p2683
I1
sS'38262'
p2684
I1
sS'50701'
p2685
I1
sS'50293'
p2686
I1
sS'50294'
p2687
I1
sS'42983'
p2688
I1
sS'58638'
p2689
I1
sS'47162'
p2690
I2
sS'35374'
p2691
I2
sS'55713'
p2692
I3
sS'47169'
p2693
I1
sS'49374'
p2694
I1
sS'47361'
p2695
I2
sS'47362'
p2696
I1
sS'34751'
p2697
I1
sS'48994'
p2698
I1
sS'48993'
p2699
I1
sS'50122'
p2700
I1
sS'50121'
p2701
I1
sS'51436'
p2702
I1
sS'55396'
p2703
I1
sS'53766'
p2704
I1
sS'48999'
p2705
I1
sS'39686'
p2706
I1
sS'56216'
p2707
I1
sS'35971'
p2708
I1
sS'56377'
p2709
I1
sS'38311'
p2710
I1
sS'48671'
p2711
I1
sS'40255'
p2712
I1
sS'38918'
p2713
I1
sS'55377'
p2714
I1
sS'46192'
p2715
I1
sS'56178'
p2716
I1
sS'56176'
p2717
I1
sS'56873'
p2718
I1
sS'56174'
p2719
I1
sS'56303'
p2720
I1
sS'35575'
p2721
I1
sS'51235'
p2722
I2
sS'34898'
p2723
I1
sS'56576'
p2724
I1
sS'51231'
p2725
I1
sS'43735'
p2726
I1
sS'52855'
p2727
I2
sS'43738'
p2728
I1
sS'52856'
p2729
I1
sS'51238'
p2730
I1
sS'52325'
p2731
I1
sS'56718'
p2732
I1
sS'60546'
p2733
I1
sS'47188'
p2734
I1
sS'52299'
p2735
I1
sS'55973'
p2736
I1
sS'60382'
p2737
I1
sS'60383'
p2738
I1
sS'60386'
p2739
I1
sS'46164'
p2740
I1
sS'46167'
p2741
I1
sS'57714'
p2742
I1
sS'57717'
p2743
I1
sS'54539'
p2744
I1
sS'57719'
p2745
I1
sS'43398'
p2746
I1
sS'54457'
p2747
I1
sS'43930'
p2748
I1
sS'43932'
p2749
I1
sS'43391'
p2750
I1
sS'43393'
p2751
I1
sS'56004'
p2752
I1
sS'49138'
p2753
I2
sS'57873'
p2754
I1
sS'36915'
p2755
I1
sS'46341'
p2756
I1
sS'54827'
p2757
I1
sS'60166'
p2758
I1
sS'60160'
p2759
I1
sS'36918'
p2760
I1
sS'36668'
p2761
I1
sS'50540'
p2762
I2
sS'36271'
p2763
I1
sS'46299'
p2764
I1
sS'52451'
p2765
I1
sS'46760'
p2766
I1
sS'48947'
p2767
I1
sS'46766'
p2768
I1
sS'57628'
p2769
I1
sS'57651'
p2770
I1
sS'52459'
p2771
I1
sS'57626'
p2772
I1
sS'53105'
p2773
I1
sS'57150'
p2774
I1
sS'33209'
p2775
I2
sS'57441'
p2776
I1
sS'45584'
p2777
I1
sS'39798'
p2778
I1
sS'48357'
p2779
I1
sS'51563'
p2780
I1
sS'36871'
p2781
I1
sS'45230'
p2782
I1
sS'41261'
p2783
I1
sS'58495'
p2784
I1
sS'36188'
p2785
I1
sS'33746'
p2786
I1
sS'49225'
p2787
I1
sS'41501'
p2788
I1
sS'54858'
p2789
I1
sS'60762'
p2790
I1
sS'33361'
p2791
I1
sS'56950'
p2792
I1
sS'33131'
p2793
I1
sS'38463'
p2794
I1
sS'45120'
p2795
I1
sS'53076'
p2796
I1
sS'55602'
p2797
I1
sS'53073'
p2798
I1
sS'45129'
p2799
I1
sS'53079'
p2800
I1
sS'53814'
p2801
I1
sS'33480'
p2802
I1
sS'59717'
p2803
I1
sS'44299'
p2804
I1
sS'41000'
p2805
I1
sS'59866'
p2806
I2
sS'58629'
p2807
I1
sS'45057'
p2808
I1
sS'53491'
p2809
I1
sS'42843'
p2810
I1
sS'45838'
p2811
I1
sS'46833'
p2812
I1
sS'49827'
p2813
I1
sS'45831'
p2814
I1
sS'48792'
p2815
I1
sS'52709'
p2816
I1
sS'43396'
p2817
I1
sS'34830'
p2818
I1
sS'44617'
p2819
I1
sS'44610'
p2820
I1
sS'44611'
p2821
I1
sS'44619'
p2822
I1
sS'53251'
p2823
I1
sS'53252'
p2824
I1
sS'36054'
p2825
I1
sg186
I1
sS'51659'
p2826
I1
sS'42118'
p2827
I1
sS'41641'
p2828
I1
sS'54701'
p2829
I1
sS'48773'
p2830
I1
sS'54705'
p2831
I1
sS'41648'
p2832
I1
sS'37907'
p2833
I1
sS'54709'
p2834
I1
sS'44477'
p2835
I1
sS'58710'
p2836
I1
sS'45904'
p2837
I1
sS'33797'
p2838
I1
sS'58243'
p2839
I1
sS'48172'
p2840
I1
sS'58718'
p2841
I1
sS'38076'
p2842
I1
sS'38075'
p2843
I1
sS'33798'
p2844
I1
sS'44182'
p2845
I1
sS'38070'
p2846
I1
sS'37634'
p2847
I1
sS'37638'
p2848
I1
sS'57842'
p2849
I1
sS'49913'
p2850
I1
sS'54636'
p2851
I1
sS'33643'
p2852
I1
sS'44051'
p2853
I1
sS'33645'
p2854
I1
sS'40028'
p2855
I1
sS'33648'
p2856
I1
sS'40022'
p2857
I2
sS'40020'
p2858
I1
sS'59447'
p2859
I1
sS'44985'
p2860
I1
sS'49643'
p2861
I1
sS'40351'
p2862
I1
sS'47889'
p2863
I1
sS'57119'
p2864
I1
sS'59912'
p2865
I1
sS'37441'
p2866
I1
sS'59919'
p2867
I1
sS'57026'
p2868
I1
sS'37839'
p2869
I1
sS'39416'
p2870
I1
sS'32773'
p2871
I1
sS'35981'
p2872
I1
sS'41736'
p2873
I1
sS'54142'
p2874
I1
sS'35984'
p2875
I1
sS'50355'
p2876
I1
sS'47951'
p2877
I2
sS'47955'
p2878
I1
sS'35023'
p2879
I1
sS'50812'
p2880
I1
sS'47423'
p2881
I1
sS'40288'
p2882
I1
sS'47424'
p2883
I1
sS'34236'
p2884
I1
sS'37123'
p2885
I1
sS'35189'
p2886
I1
sS'47770'
p2887
I1
sS'47771'
p2888
I1
sS'34166'
p2889
I1
sS'44874'
p2890
I1
sS'43724'
p2891
I1
sS'51539'
p2892
I2
sS'40514'
p2893
I1
sS'35351'
p2894
I1
sS'48081'
p2895
I1
sS'59040'
p2896
I1
sS'38251'
p2897
I1
sS'58387'
p2898
I2
sS'38099'
p2899
I1
sS'55767'
p2900
I1
sS'34766'
p2901
I1
sS'45303'
p2902
I1
sS'35363'
p2903
I1
sS'41500'
p2904
I1
sS'36624'
p2905
I1
sS'34566'
p2906
I1
sS'47372'
p2907
I1
sS'47371'
p2908
I1
sS'32883'
p2909
I1
sS'34568'
p2910
I1
sS'51005'
p2911
I1
sS'52802'
p2912
I1
sS'50132'
p2913
I1
sS'48984'
p2914
I1
sS'50136'
p2915
I1
sS'50137'
p2916
I1
sS'58385'
p2917
I2
sS'37323'
p2918
I1
sS'55418'
p2919
I1
sS'39239'
p2920
I1
sS'47082'
p2921
I1
sS'60507'
p2922
I1
sS'38328'
p2923
I2
sS'32970'
p2924
I1
sS'55367'
p2925
I1
sS'55362'
p2926
I1
sS'40745'
p2927
I1
sS'55361'
p2928
I1
sS'56143'
p2929
I1
sS'56141'
p2930
I1
sS'51398'
p2931
I1
sS'56144'
p2932
I1
sS'45551'
p2933
I1
sS'43096'
p2934
I1
sS'35566'
p2935
I2
sS'35564'
p2936
I1
sS'35565'
p2937
I1
sS'51243'
p2938
I1
sS'56544'
p2939
I1
sS'56543'
p2940
I1
sS'51718'
p2941
I1
sS'41280'
p2942
I1
sS'52452'
p2943
I1
sS'44010'
p2944
I1
sS'39123'
p2945
I1
sS'52285'
p2946
I1
sS'35414'
p2947
I1
sS'35410'
p2948
I1
sS'60376'
p2949
I1
sS'55960'
p2950
I1
sS'55432'
p2951
I1
sS'35419'
p2952
I1
sS'60672'
p2953
I1
sS'57703'
p2954
I1
sS'43641'
p2955
I1
sS'58609'
p2956
I1
sS'51365'
p2957
I1
sS'55560'
p2958
I1
sS'43419'
p2959
I2
sS'51665'
p2960
I1
sS'43413'
p2961
I1
sS'55569'
p2962
I1
sS'43411'
p2963
I1
sS'43417'
p2964
I1
sS'46339'
p2965
I1
sS'52068'
p2966
I1
sS'38894'
p2967
I1
sS'49100'
p2968
I1
sS'46335'
p2969
I1
sS'49106'
p2970
I1
sS'38893'
p2971
I1
sS'60119'
p2972
I1
sS'36266'
p2973
I1
sS'51866'
p2974
I1
sS'41815'
p2975
I1
sS'60111'
p2976
I1
sS'45587'
p2977
I1
sS'57865'
p2978
I1
sS'51599'
p2979
I1
sS'50067'
p2980
I1
sS'42273'
p2981
I1
sS'60284'
p2982
I1
sS'57148'
p2983
I1
sS'43076'
p2984
I1
sS'52446'
p2985
I1
sS'46028'
p2986
I1
sS'43073'
p2987
I1
sS'46758'
p2988
I1
sS'57140'
p2989
I1
sS'57637'
p2990
I1
sS'42075'
p2991
I1
sS'46753'
p2992
I1
sS'46020'
p2993
I1
sS'49031'
p2994
I1
sS'56728'
p2995
I1
sS'39783'
p2996
I1
sS'57454'
p2997
I1
sS'53719'
p2998
I1
sS'42293'
p2999
I1
sS'36868'
p3000
I1
sS'36869'
p3001
I1
sS'45595'
p3002
I1
sS'45224'
p3003
I1
sS'46249'
p3004
I1
sS'41256'
p3005
I1
sS'36860'
p3006
I1
sS'48341'
p3007
I1
sS'60757'
p3008
I1
sS'36193'
p3009
I1
sS'49585'
p3010
I1
sS'36191'
p3011
I1
sS'36196'
p3012
I1
sS'36194'
p3013
I1
sS'49589'
p3014
I1
sS'36462'
p3015
I1
sS'36463'
p3016
I1
sS'60597'
p3017
I1
sS'51040'
p3018
I1
sS'53399'
p3019
I1
sS'41924'
p3020
I1
sS'38413'
p3021
I1
sS'54844'
p3022
I1
sS'50723'
p3023
I2
sS'58890'
p3024
I1
sS'58462'
p3025
I1
sS'45130'
p3026
I1
sS'45131'
p3027
I1
sS'45138'
p3028
I1
sS'42617'
p3029
I1
sS'60688'
p3030
I1
sS'44269'
p3031
I1
sS'59879'
p3032
I1
sS'54420'
p3033
I1
sS'59702'
p3034
I1
sS'49363'
p3035
I1
sS'53628'
p3036
I1
sS'52715'
p3037
I1
sS'49366'
p3038
I1
sS'34822'
p3039
I1
sS'42851'
p3040
I1
sS'34826'
p3041
I1
sS'37023'
p3042
I1
sS'54937'
p3043
I1
sS'49695'
p3044
I1
sS'36689'
p3045
I1
sS'60257'
p3046
I1
sS'56198'
p3047
I1
sS'42104'
p3048
I1
sS'36048'
p3049
I1
sS'52602'
p3050
I1
sS'42101'
p3051
I2
sS'36515'
p3052
I1
sS'45254'
p3053
I1
sS'48767'
p3054
I1
sS'33274'
p3055
I2
sS'37935'
p3056
I1
sS'37934'
p3057
I1
sS'48167'
p3058
I2
sS'34916'
p3059
I1
sS'34917'
p3060
I1
sS'48163'
p3061
I1
sS'38062'
p3062
I1
sS'59906'
p3063
I1
sS'33306'
p3064
I1
sS'40031'
p3065
I1
sS'37331'
p3066
I2
sS'37333'
p3067
I1
sS'59450'
p3068
I1
sS'40612'
p3069
I1
sS'60761'
p3070
I1
sS'40343'
p3071
I1
sS'59456'
p3072
I1
sS'44312'
p3073
I1
sS'47563'
p3074
I1
sS'34357'
p3075
I1
sS'47560'
p3076
I1
sS'40348'
p3077
I1
sS'54158'
p3078
I1
sS'41741'
p3079
I1
sS'54151'
p3080
I1
sS'40290'
p3081
I1
sS'54382'
p3082
I1
sS'47967'
p3083
I1
sS'58472'
p3084
I1
sS'47962'
p3085
I1
sS'37159'
p3086
I1
sS'34223'
p3087
I1
sS'34221'
p3088
I1
sS'40720'
p3089
I1
sS'47417'
p3090
I1
sS'46223'
p3091
I1
sS'37155'
p3092
I1
sS'48246'
p3093
I1
sS'38794'
p3094
I1
sS'34179'
p3095
I1
sS'47981'
p3096
I1
sS'40380'
p3097
I1
sS'47982'
p3098
I2
sS'35880'
p3099
I1
sS'40508'
p3100
I1
sS'59299'
p3101
I2
sS'40505'
p3102
I1
sS'51448'
p3103
I1
sS'40502'
p3104
I1
sS'50721'
p3105
I1
sS'58504'
p3106
I1
sS'38242'
p3107
I1
sS'50726'
p3108
I1
sS'39332'
p3109
I1
sS'41922'
p3110
I1
sS'38084'
p3111
I1
sS'38080'
p3112
I1
sS'34590'
p3113
I1
sS'58963'
p3114
I1
sS'34775'
p3115
I1
sS'35310'
p3116
I1
sS'35314'
p3117
I1
sS'53618'
p3118
I1
sS'47341'
p3119
I1
sS'34571'
p3120
I1
sS'39205'
p3121
I2
sS'48978'
p3122
I1
sS'53499'
p3123
I1
sS'53749'
p3124
I1
sS'59865'
p3125
I1
sS'47740'
p3126
I1
sS'50437'
p3127
I1
sS'50924'
p3128
I1
sS'38330'
p3129
I1
sS'45053'
p3130
I1
sS'50433'
p3131
I1
sS'55357'
p3132
I1
sS'51389'
p3133
I1
sS'55358'
p3134
I1
sS'54795'
p3135
I1
sS'56484'
p3136
I1
sS'35558'
p3137
I1
sS'40603'
p3138
I1
sS'51745'
p3139
I1
sS'35799'
p3140
I1
sS'58443'
p3141
I1
sS'54276'
p3142
I1
sS'55285'
p3143
I1
sS'43248'
p3144
I1
sS'43710'
p3145
I1
sS'43244'
p3146
I1
sS'48343'
p3147
I1
sS'43241'
p3148
I1
sS'51091'
p3149
I2
sS'52045'
p3150
I1
sS'48886'
p3151
I1
sS'52275'
p3152
I1
sS'60917'
p3153
I1
sS'48699'
p3154
I1
sS'42447'
p3155
I1
sS'42446'
p3156
I1
sS'53656'
p3157
I1
sS'43404'
p3158
I1
sS'43405'
p3159
I1
sS'46100'
p3160
I1
sS'43400'
p3161
I1
sS'57738'
p3162
I1
sS'57737'
p3163
I1
sS'46108'
p3164
I1
sS'57730'
p3165
I1
sS'56152'
p3166
I1
sS'51674'
p3167
I1
sS'55596'
p3168
I1
sS'52019'
p3169
I1
sS'57282'
p3170
I1
sS'56025'
p3171
I1
sS'46320'
p3172
I1
sS'46324'
p3173
I1
sS'60529'
p3174
I1
sS'55827'
p3175
I1
sS'50074'
p3176
I1
sS'52385'
p3177
I1
sS'55828'
p3178
I1
sS'56801'
p3179
I1
sS'43660'
p3180
I1
sS'43661'
p3181
I1
sS'34835'
p3182
I1
sS'60657'
p3183
I1
sS'56730'
p3184
I1
sS'46039'
p3185
I1
sS'57603'
p3186
I1
sS'42045'
p3187
I1
sS'46922'
p3188
I1
sS'52653'
p3189
I1
sS'46925'
p3190
I1
sS'49755'
p3191
I1
sS'36853'
p3192
I1
sS'42914'
p3193
I1
sS'45210'
p3194
I1
sS'36856'
p3195
I1
sS'46258'
p3196
I1
sS'46259'
p3197
I1
sS'60036'
p3198
I2
sS'60037'
p3199
I1
sS'52491'
p3200
I1
sS'60030'
p3201
I1
sS'57194'
p3202
I1
sS'39397'
p3203
I1
sS'42625'
p3204
I2
sS'53834'
p3205
I1
sS'41938'
p3206
I1
sS'38402'
p3207
I1
sS'53839'
p3208
I1
sS'36327'
p3209
I1
sS'45694'
p3210
I1
sS'42117'
p3211
I1
sS'56281'
p3212
I1
sS'57041'
p3213
I1
sS'41302'
p3214
I1
sS'45106'
p3215
I1
sS'45451'
p3216
I1
sS'46639'
p3217
I1
sS'57519'
p3218
I1
sS'36971'
p3219
I1
sS'45851'
p3220
I1
sS'45674'
p3221
I1
sS'45852'
p3222
I1
sS'33469'
p3223
I1
sS'45670'
p3224
I1
sS'45857'
p3225
I1
sS'45859'
p3226
I2
sS'45858'
p3227
I1
sS'45679'
p3228
I1
sS'45678'
p3229
I1
sS'54543'
p3230
I1
sS'42828'
p3231
I1
sS'57999'
p3232
I1
sS'40999'
p3233
I1
sS'39683'
p3234
I1
sS'53633'
p3235
I1
sS'53631'
p3236
I1
sS'44205'
p3237
I1
sS'38536'
p3238
I1
sS'36506'
p3239
I1
sS'54945'
p3240
I1
sS'33064'
p3241
I1
sS'44655'
p3242
I1
sS'33068'
p3243
I2
sS'44679'
p3244
I1
sS'42132'
p3245
I1
sS'44201'
p3246
I1
sS'36031'
p3247
I1
sS'42139'
p3248
I1
sS'40400'
p3249
I1
sS'40197'
p3250
I1
sS'33208'
p3251
I1
sS'41118'
p3252
I1
sS'40192'
p3253
I1
sS'54093'
p3254
I1
sS'33202'
p3255
I2
sS'44417'
p3256
I1
sS'40198'
p3257
I1
sS'34963'
p3258
I1
sS'34965'
p3259
I1
sS'53523'
p3260
I1
sS'57861'
p3261
I2
sS'57860'
p3262
I1
sS'58261'
p3263
I1
sS'39751'
p3264
I1
sS'38653'
p3265
I1
sS'49973'
p3266
I1
sS'49974'
p3267
I1
sS'36145'
p3268
I1
sS'41021'
p3269
I1
sS'51130'
p3270
I1
sS'41024'
p3271
I1
sS'37499'
p3272
I1
sS'41026'
p3273
I1
sS'45070'
p3274
I1
sS'41029'
p3275
I1
sS'37490'
p3276
I1
sS'37491'
p3277
I1
sS'37811'
p3278
I1
sS'54164'
p3279
I1
sS'44302'
p3280
I1
sS'37816'
p3281
I1
sS'44301'
p3282
I1
sS'34361'
p3283
I1
sS'56355'
p3284
I1
sS'34366'
p3285
I1
sS'34365'
p3286
I1
sS'44091'
p3287
I1
sS'59116'
p3288
I1
sS'59111'
p3289
I1
sS'39435'
p3290
I1
sS'41755'
p3291
I1
sS'33863'
p3292
I1
sS'47409'
p3293
I1
sS'40755'
p3294
I1
sS'59597'
p3295
I1
sS'34218'
p3296
I1
sS'34217'
p3297
I1
sS'40942'
p3298
I2
sS'34211'
p3299
I1
sS'51545'
p3300
I1
sS'52054'
p3301
I1
sS'35162'
p3302
I1
sS'47998'
p3303
I1
sS'39320'
p3304
I2
sS'59232'
p3305
I1
sS'44897'
p3306
I1
sS'40573'
p3307
I1
sS'44895'
p3308
I1
sS'59028'
p3309
I1
sS'50731'
p3310
I1
sS'38884'
p3311
I1
sS'50737'
p3312
I1
sS'50738'
p3313
I1
sS'40725'
p3314
I1
sS'58367'
p3315
I1
sS'50783'
p3316
I1
sS'57558'
p3317
I1
sS'34803'
p3318
I1
sS'47198'
p3319
I1
sS'38647'
p3320
I1
sS'47195'
p3321
I1
sS'47193'
p3322
I1
sS'40401'
p3323
I1
sS'52509'
p3324
I1
sS'40403'
p3325
I1
sS'51469'
p3326
I1
sS'35090'
p3327
I1
sS'34548'
p3328
I1
sS'35096'
p3329
I1
sS'50932'
p3330
I2
sS'35192'
p3331
I1
sS'57920'
p3332
I1
sS'53388'
p3333
I1
sS'38640'
p3334
I1
sS'45330'
p3335
I1
sS'57002'
p3336
I1
sS'60798'
p3337
I1
sS'35949'
p3338
I1
sS'50930'
p3339
I1
sS'35762'
p3340
I1
sS'50425'
p3341
I1
sS'38344'
p3342
I1
stp3343
sS'174.129.37.180'
p3344
(I7
(dp3345
S'60998'
p3346
I1
sS'32772'
p3347
I1
sS'32770'
p3348
I1
sS'32771'
p3349
I1
sS'60997'
p3350
I1
sS'60996'
p3351
I1
sg3139
I1
stp3352
sS'66.151.153.13'
p3353
(I4
(dp3354
S'48849'
p3355
I1
sg1661
I1
sS'48872'
p3356
I1
sS'48873'
p3357
I1
stp3358
sS'62.48.3.24'
p3359
(I4
(dp3360
S'48730'
p3361
I1
sS'48728'
p3362
I1
sS'48729'
p3363
I1
sS'48727'
p3364
I1
stp3365
sS'114.59.51.188'
p3366
(I1
(dp3367
S'1469'
p3368
I1
stp3369
sS'75.101.155.168'
p3370
(I1
(dp3371
S'45564'
p3372
I1
stp3373
sS'82.205.221.102'
p3374
(I1
(dp3375
S'1440'
p3376
I1
stp3377
sS'65.54.234.78'
p3378
(I5
(dp3379
S'1667'
p3380
I1
sS'1316'
p3381
I1
sS'1306'
p3382
I1
sS'1689'
p3383
I1
sS'1693'
p3384
I1
stp3385
sS'89.215.49.24'
p3386
(I1
(dp3387
S'1359'
p3388
I1
stp3389
sS'65.54.165.169'
p3390
(I1
(dp3391
S'1323'
p3392
I1
stp3393
sS'65.54.234.75'
p3394
(I6
(dp3395
S'1835'
p3396
I1
sS'1719'
p3397
I1
sS'1955'
p3398
I1
sS'1951'
p3399
I1
sS'1478'
p3400
I1
sS'1566'
p3401
I1
stp3402
sS'160.68.205.252'
p3403
(I10
(dp3404
S'58342'
p3405
I1
sS'58341'
p3406
I1
sS'58340'
p3407
I1
sS'48225'
p3408
I1
sg2224
I1
sS'48227'
p3409
I1
sS'48226'
p3410
I1
sS'48221'
p3411
I1
sS'48223'
p3412
I1
sS'58339'
p3413
I1
stp3414
sS'69.26.113.13'
p3415
(I7
(dp3416
S'60814'
p3417
I1
sS'60815'
p3418
I1
sS'60913'
p3419
I1
sS'60912'
p3420
I1
sS'60915'
p3421
I1
sS'60914'
p3422
I1
sS'60911'
p3423
I1
stp3424
sS'61.17.216.6'
p3425
(I1
(dp3426
S'1369'
p3427
I1
stp3428
sS'61.17.216.4'
p3429
(I1
(dp3430
S'1912'
p3431
I1
stp3432
sS'218.248.255.243'
p3433
(I2
(dp3434
S'1796'
p3435
I1
sS'2021'
p3436
I1
stp3437
sS'77.75.72.22'
p3438
(I3
(dp3439
S'55118'
p3440
I1
sS'55117'
p3441
I1
sS'55116'
p3442
I1
stp3443
sS'196.205.12.237'
p3444
(I1
(dp3445
S'2120'
p3446
I1
stp3447
sS'178.123.248.251'
p3448
(I1
(dp3449
S'2107'
p3450
I1
stp3451
sS'133.6.157.199'
p3452
(I2
(dp3453
S'1509'
p3454
I1
sS'1082'
p3455
I1
stp3456
sS'92.243.65.226'
p3457
(I2
(dp3458
S'58180'
p3459
I1
sS'58179'
p3460
I1
stp3461
sS'149.169.27.83'
p3462
(I6
(dp3463
S'36057'
p3464
I1
sS'36056'
p3465
I1
sS'36055'
p3466
I1
sS'36054'
p3467
I1
sS'36059'
p3468
I1
sS'36058'
p3469
I1
stp3470
sS'208.71.125.1'
p3471
(I3
(dp3472
g698
I1
sS'58998'
p3473
I1
sS'59037'
p3474
I1
stp3475
sS'61.17.216.93'
p3476
(I1
(dp3477
S'1300'
p3478
I1
stp3479
sS'180.222.136.3'
p3480
(I1
(dp3481
S'1455'
p3482
I1
stp3483
sS'94.127.76.60'
p3484
(I10
(dp3485
S'55375'
p3486
I1
sS'55374'
p3487
I1
sS'55377'
p3488
I1
sS'55373'
p3489
I1
sS'55372'
p3490
I1
sS'55380'
p3491
I1
sS'55381'
p3492
I1
sS'55382'
p3493
I1
sS'55379'
p3494
I1
sS'55378'
p3495
I1
stp3496
sS'117.207.7.56'
p3497
(I1
(dp3498
S'1090'
p3499
I1
stp3500
sS'92.87.4.97'
p3501
(I2
(dp3502
S'2036'
p3503
I1
sS'2030'
p3504
I1
stp3505
sS'180.251.135.144'
p3506
(I1
(dp3507
S'2126'
p3508
I1
stp3509
sS'2.21.97.51'
p3510
(I1
(dp3511
S'58233'
p3512
I1
stp3513
sS'217.31.57.205'
p3514
(I1
(dp3515
S'52809'
p3516
I1
stp3517
sS'213.189.48.243'
p3518
(I3
(dp3519
g1794
I1
sS'37716'
p3520
I1
sS'37715'
p3521
I1
stp3522
sS'184.106.213.57'
p3523
(I2
(dp3524
S'1334'
p3525
I1
sS'1291'
p3526
I1
stp3527
sS'202.80.173.5'
p3528
(I1
(dp3529
S'1419'
p3530
I1
stp3531
sS'50.17.196.18'
p3532
(I1
(dp3533
S'36063'
p3534
I1
stp3535
sS'65.55.255.9'
p3536
(I2
(dp3537
S'1458'
p3538
I1
sS'1449'
p3539
I1
stp3540
sS'89.236.212.138'
p3541
(I1
(dp3542
S'1682'
p3543
I1
stp3544
sS'65.54.186.47'
p3545
(I3
(dp3546
S'1352'
p3547
I1
sS'1342'
p3548
I1
sS'1299'
p3549
I1
stp3550
sS'209.85.149.132'
p3551
(I32
(dp3552
S'40607'
p3553
I1
sS'40605'
p3554
I1
sS'36648'
p3555
I1
sS'36649'
p3556
I1
sS'36602'
p3557
I1
sS'36600'
p3558
I1
sS'36601'
p3559
I1
sS'36642'
p3560
I1
sS'36643'
p3561
I1
sS'36641'
p3562
I1
sS'36644'
p3563
I1
sS'36645'
p3564
I1
sS'36596'
p3565
I1
sS'36597'
p3566
I1
sS'36594'
p3567
I1
sS'40604'
p3568
I1
sg3138
I1
sS'40602'
p3569
I1
sS'40601'
p3570
I1
sS'36598'
p3571
I1
sS'36599'
p3572
I1
sS'36651'
p3573
I1
sS'37745'
p3574
I1
sS'40608'
p3575
I1
sS'37747'
p3576
I1
sS'37748'
p3577
I1
sS'37749'
p3578
I1
sS'37744'
p3579
I1
sS'36650'
p3580
I1
sS'37746'
p3581
I1
sS'36652'
p3582
I1
sS'37741'
p3583
I1
stp3584
sS'95.58.236.6'
p3585
(I1
(dp3586
S'2133'
p3587
I1
stp3588
sS'124.125.21.140'
p3589
(I2
(dp3590
S'1634'
p3591
I1
sS'1073'
p3592
I1
stp3593
sS'95.168.214.160'
p3594
(I1
(dp3595
S'44703'
p3596
I1
stp3597
sS'74.3.164.223'
p3598
(I1
(dp3599
S'1308'
p3600
I1
stp3601
sS'75.101.154.43'
p3602
(I1
(dp3603
S'50890'
p3604
I1
stp3605
sS'196.46.196.3'
p3606
(I1
(dp3607
S'1864'
p3608
I1
stp3609
sS'81.222.128.22'
p3610
(I4
(dp3611
S'44948'
p3612
I1
sS'44949'
p3613
I1
sS'44946'
p3614
I1
sS'44947'
p3615
I1
stp3616
sS'216.137.61.51'
p3617
(I1
(dp3618
S'45117'
p3619
I1
stp3620
sS'209.132.182.33'
p3621
(I18
(dp3622
S'46869'
p3623
I1
sS'46290'
p3624
I1
sS'34135'
p3625
I1
sS'49907'
p3626
I1
sS'43367'
p3627
I1
sS'43494'
p3628
I1
sS'40216'
p3629
I1
sS'58005'
p3630
I1
sg845
I1
sS'35584'
p3631
I1
sS'46650'
p3632
I1
sS'39895'
p3633
I1
sS'41026'
p3634
I1
sS'53996'
p3635
I1
sS'37613'
p3636
I1
sS'42885'
p3637
I1
sS'44696'
p3638
I1
sS'57707'
p3639
I1
stp3640
sS'204.127.217.16'
p3641
(I1
(dp3642
S'1674'
p3643
I1
stp3644
sS'182.2.117.2'
p3645
(I1
(dp3646
S'1317'
p3647
I1
stp3648
sS'74.3.164.224'
p3649
(I1
(dp3650
S'1418'
p3651
I1
stp3652
sS'77.88.106.116'
p3653
(I7
(dp3654
S'49735'
p3655
I1
sS'49745'
p3656
I1
sS'49746'
p3657
I1
sS'33169'
p3658
I1
sS'33170'
p3659
I1
sS'49712'
p3660
I1
sS'49713'
p3661
I1
stp3662
sS'95.58.134.226'
p3663
(I1
(dp3664
S'1593'
p3665
I1
stp3666
sS'209.85.149.82'
p3667
(I2
(dp3668
S'53164'
p3669
I1
sS'53165'
p3670
I1
stp3671
sS'74.3.164.222'
p3672
(I1
(dp3673
S'1283'
p3674
I1
stp3675
sS'91.220.0.52'
p3676
(I13
(dp3677
S'1165'
p3678
I1
sS'1268'
p3679
I1
sS'1280'
p3680
I1
sS'2224'
p3681
I1
sS'1275'
p3682
I1
sS'1808'
p3683
I1
sS'2173'
p3684
I1
sS'1286'
p3685
I1
sS'1292'
p3686
I1
sS'1651'
p3687
I1
sS'1598'
p3688
I1
sS'2198'
p3689
I1
sS'1765'
p3690
I1
stp3691
sS'77.120.37.254'
p3692
(I2
(dp3693
S'2190'
p3694
I1
sS'1606'
p3695
I1
stp3696
sS'2.21.99.206'
p3697
(I14
(dp3698
S'45370'
p3699
I1
sS'52702'
p3700
I1
sS'45156'
p3701
I1
sS'55428'
p3702
I1
sS'42674'
p3703
I1
sg3026
I1
sS'45131'
p3704
I1
sS'52701'
p3705
I1
sS'45295'
p3706
I1
sS'45294'
p3707
I1
sS'45129'
p3708
I1
sS'42675'
p3709
I1
sS'42673'
p3710
I1
sS'45157'
p3711
I1
stp3712
sS'115.98.215.108'
p3713
(I1
(dp3714
S'1077'
p3715
I1
stp3716
sS'109.200.239.148'
p3717
(I2
(dp3718
S'2218'
p3719
I1
sS'1066'
p3720
I1
stp3721
sS'41.93.130.4'
p3722
(I1
(dp3723
S'1748'
p3724
I1
stp3725
sS'74.125.93.27'
p3726
(I3
(dp3727
S'1858'
p3728
I1
sS'1514'
p3729
I1
sS'2104'
p3730
I1
stp3731
sS'119.154.117.193'
p3732
(I1
(dp3733
S'1089'
p3734
I1
stp3735
sS'117.96.96.152'
p3736
(I1
(dp3737
S'1088'
p3738
I1
stp3739
sS'88.212.196.66'
p3740
(I1
(dp3741
S'37407'
p3742
I1
stp3743
sS'1.22.16.143'
p3744
(I1
(dp3745
S'1085'
p3746
I1
stp3747
sS'64.4.56.23'
p3748
(I9
(dp3749
S'1993'
p3750
I1
sS'1939'
p3751
I1
sS'1989'
p3752
I1
sS'1867'
p3753
I1
sS'1929'
p3754
I1
sS'1904'
p3755
I1
sS'1891'
p3756
I1
sS'1917'
p3757
I1
sS'1879'
p3758
I1
stp3759
sS'81.19.66.97'
p3760
(I1
(dp3761
S'50746'
p3762
I1
stp3763
sS'77.75.76.7'
p3764
(I6
(dp3765
S'43550'
p3766
I1
sS'43551'
p3767
I1
sg1341
I1
sS'43546'
p3768
I1
sS'43549'
p3769
I1
sS'43548'
p3770
I1
stp3771
sS'196.2.13.199'
p3772
(I1
(dp3773
S'2094'
p3774
I1
stp3775
sS'194.79.52.204'
p3776
(I10
(dp3777
g2508
I1
sS'41643'
p3778
I1
sS'47148'
p3779
I1
sS'41607'
p3780
I1
sS'47149'
p3781
I1
sS'41599'
p3782
I1
sg2436
I1
sS'41600'
p3783
I1
sS'41601'
p3784
I1
sS'47147'
p3785
I1
stp3786
sS'82.199.80.141'
p3787
(I1
(dp3788
S'47421'
p3789
I1
stp3790
sS'118.34.142.43'
p3791
(I1
(dp3792
S'1285'
p3793
I1
stp3794
sS'2.21.110.10'
p3795
(I1
(dp3796
S'52886'
p3797
I1
stp3798
sS'74.125.232.204'
p3799
(I11
(dp3800
S'52847'
p3801
I1
sS'33168'
p3802
I1
sS'35941'
p3803
I1
sS'35677'
p3804
I1
sS'44740'
p3805
I1
sS'35944'
p3806
I1
sS'52665'
p3807
I1
sS'35940'
p3808
I1
sS'35934'
p3809
I1
sS'35942'
p3810
I1
sS'35943'
p3811
I1
stp3812
sS'74.125.232.205'
p3813
(I15
(dp3814
S'39607'
p3815
I1
sg189
I1
sS'35104'
p3816
I1
sS'39608'
p3817
I1
sS'37934'
p3818
I1
sS'35939'
p3819
I1
sS'35938'
p3820
I1
sS'57092'
p3821
I1
sS'36037'
p3822
I1
sS'52967'
p3823
I1
sS'36036'
p3824
I1
sg3808
I1
sg3809
I1
sS'35937'
p3825
I1
sS'35936'
p3826
I1
stp3827
sS'74.125.232.206'
p3828
(I8
(dp3829
S'50880'
p3830
I1
sS'50881'
p3831
I1
sS'50882'
p3832
I1
sS'50883'
p3833
I1
sS'50879'
p3834
I1
sS'50808'
p3835
I1
sS'50884'
p3836
I1
sS'53589'
p3837
I1
stp3838
sS'65.54.234.24'
p3839
(I3
(dp3840
S'1313'
p3841
I1
sS'1671'
p3842
I1
sS'1303'
p3843
I1
stp3844
sS'74.125.232.200'
p3845
(I3
(dp3846
S'35401'
p3847
I1
sS'37396'
p3848
I1
sS'37395'
p3849
I1
stp3850
sS'74.125.232.201'
p3851
(I7
(dp3852
S'34259'
p3853
I1
sg2776
I1
sS'57440'
p3854
I1
sS'57442'
p3855
I1
sS'59440'
p3856
I1
sS'53141'
p3857
I1
sS'38272'
p3858
I1
stp3859
sS'74.125.232.202'
p3860
(I6
(dp3861
S'37300'
p3862
I1
sS'47961'
p3863
I1
sS'59832'
p3864
I1
sS'59833'
p3865
I1
sS'46700'
p3866
I1
sS'59834'
p3867
I1
stp3868
sS'74.125.232.203'
p3869
(I6
(dp3870
S'47849'
p3871
I1
sS'47851'
p3872
I1
sS'47850'
p3873
I1
sS'34835'
p3874
I1
sS'34834'
p3875
I1
sS'34833'
p3876
I1
stp3877
sS'202.12.27.33'
p3878
(I2
(dp3879
S'1613'
p3880
I1
sS'1611'
p3881
I1
stp3882
sS'94.52.57.11'
p3883
(I1
(dp3884
S'1420'
p3885
I1
stp3886
sS'209.236.119.101'
p3887
(I1
(dp3888
S'1284'
p3889
I1
stp3890
sS'91.189.89.60'
p3891
(I4
(dp3892
S'40997'
p3893
I1
sS'49354'
p3894
I1
sS'40493'
p3895
I1
sS'43891'
p3896
I1
stp3897
sS'178.137.128.94'
p3898
(I1
(dp3899
S'1480'
p3900
I1
stp3901
sS'59.94.194.59'
p3902
(I1
(dp3903
S'1888'
p3904
I1
stp3905
sS'220.143.177.200'
p3906
(I1
(dp3907
S'1501'
p3908
I1
stp3909
sS'199.255.211.81'
p3910
(I1
(dp3911
S'1810'
p3912
I1
stp3913
sS'67.212.77.13'
p3914
(I3
(dp3915
S'44454'
p3916
I1
sS'44455'
p3917
I1
sS'55221'
p3918
I1
stp3919
sS'67.212.77.12'
p3920
(I1
(dp3921
S'59628'
p3922
I1
stp3923
sS'94.245.116.9'
p3924
(I8
(dp3925
S'1602'
p3926
I1
sS'1610'
p3927
I1
sS'1439'
p3928
I1
sS'1862'
p3929
I1
sS'1443'
p3930
I1
sS'1871'
p3931
I1
sS'1332'
p3932
I1
sS'1368'
p3933
I1
stp3934
sS'59.78.181.188'
p3935
(I1
(dp3936
S'1548'
p3937
I1
stp3938
sS'182.72.80.42'
p3939
(I1
(dp3940
S'1277'
p3941
I1
stp3942
sS'77.93.192.142'
p3943
(I4
(dp3944
S'45379'
p3945
I1
sS'45375'
p3946
I1
sS'45376'
p3947
I1
sS'45377'
p3948
I1
stp3949
sS'77.93.192.144'
p3950
(I8
(dp3951
S'60814'
p3952
I1
sS'60815'
p3953
I1
sS'60816'
p3954
I1
sS'60812'
p3955
I1
sS'60813'
p3956
I1
sS'60793'
p3957
I1
sS'60795'
p3958
I1
sg979
I1
stp3959
sS'147.32.80.13'
p3960
(I1
(dp3961
S'123'
p3962
I1
stp3963
sS'77.78.99.22'
p3964
(I10
(dp3965
S'55857'
p3966
I1
sS'45425'
p3967
I1
sS'45426'
p3968
I1
sS'45427'
p3969
I1
sS'55869'
p3970
I1
sS'55872'
p3971
I1
sS'39397'
p3972
I1
sS'45455'
p3973
I1
sS'46597'
p3974
I1
sS'45440'
p3975
I1
stp3976
sS'77.78.99.23'
p3977
(I11
(dp3978
S'56628'
p3979
I1
sS'56629'
p3980
I1
sS'56630'
p3981
I1
sS'56635'
p3982
I1
sS'48032'
p3983
I1
sS'36129'
p3984
I1
sS'56634'
p3985
I1
sS'36213'
p3986
I1
sS'48052'
p3987
I1
sS'56636'
p3988
I1
sS'36090'
p3989
I1
stp3990
sS'98.154.67.160'
p3991
(I1
(dp3992
S'1064'
p3993
I1
stp3994
sS'77.78.99.21'
p3995
(I13
(dp3996
S'38838'
p3997
I1
sS'38763'
p3998
I1
sS'51080'
p3999
I1
sS'38752'
p4000
I1
sS'38750'
p4001
I1
sS'38751'
p4002
I1
sS'38830'
p4003
I1
sg3464
I1
sS'51081'
p4004
I1
sS'51079'
p4005
I1
sS'38782'
p4006
I1
sS'38846'
p4007
I1
sS'36041'
p4008
I1
stp4009
sS'77.75.76.68'
p4010
(I1
(dp4011
g3488
I1
stp4012
sS'77.75.76.69'
p4013
(I3
(dp4014
S'39324'
p4015
I1
sS'39325'
p4016
I1
sS'39323'
p4017
I1
stp4018
sS'78.24.14.16'
p4019
(I65
(dp4020
S'45318'
p4021
I1
sg992
I1
sS'45235'
p4022
I1
sS'45234'
p4023
I1
sS'45314'
p4024
I1
sS'45236'
p4025
I1
sS'45231'
p4026
I1
sS'45230'
p4027
I1
sS'45310'
p4028
I1
sS'45311'
p4029
I1
sS'45293'
p4030
I1
sS'45292'
p4031
I1
sS'45290'
p4032
I1
sS'45296'
p4033
I1
sg3706
I1
sg3707
I1
sS'45276'
p4034
I1
sS'45299'
p4035
I1
sS'45249'
p4036
I1
sS'45262'
p4037
I1
sS'45316'
p4038
I1
sS'45266'
p4039
I1
sS'45267'
p4040
I1
sS'45264'
p4041
I1
sS'45265'
p4042
I1
sS'45268'
p4043
I1
sS'45243'
p4044
I1
sS'45244'
p4045
I1
sS'45246'
p4046
I1
sS'45317'
p4047
I1
sS'45315'
p4048
I1
sS'45309'
p4049
I1
sS'45308'
p4050
I1
sS'45228'
p4051
I1
sS'45229'
p4052
I1
sS'45226'
p4053
I1
sS'45312'
p4054
I1
sS'45225'
p4055
I1
sS'45301'
p4056
I1
sS'45326'
p4057
I1
sS'45313'
p4058
I1
sS'45279'
p4059
I1
sS'45278'
p4060
I1
sS'45284'
p4061
I1
sS'45285'
p4062
I1
sS'45286'
p4063
I1
sS'45280'
p4064
I1
sS'45281'
p4065
I1
sS'45282'
p4066
I1
sg1764
I1
sS'45269'
p4067
I1
sS'45306'
p4068
I1
sS'45271'
p4069
I1
sS'45270'
p4070
I1
sS'45273'
p4071
I1
sS'45272'
p4072
I1
sS'45275'
p4073
I1
sS'45274'
p4074
I1
sS'45277'
p4075
I1
sS'45227'
p4076
I1
sS'45257'
p4077
I1
sS'45256'
p4078
I1
sS'45253'
p4079
I1
sS'45252'
p4080
I1
sS'45251'
p4081
I1
stp4082
sS'89.34.90.20'
p4083
(I1
(dp4084
S'1084'
p4085
I1
stp4086
sS'117.204.76.152'
p4087
(I1
(dp4088
S'2221'
p4089
I1
stp4090
sS'174.129.35.206'
p4091
(I2
(dp4092
S'46643'
p4093
I1
sS'46642'
p4094
I1
stp4095
sS'195.113.232.81'
p4096
(I1
(dp4097
S'52146'
p4098
I1
stp4099
sS'184.164.142.139'
p4100
(I1
(dp4101
S'1964'
p4102
I1
stp4103
sS'195.113.232.83'
p4104
(I2
(dp4105
S'53016'
p4106
I1
sS'53015'
p4107
I1
stp4108
sS'195.113.232.82'
p4109
(I7
(dp4110
S'36688'
p4111
I1
sg3045
I1
sS'36686'
p4112
I1
sS'36687'
p4113
I1
sS'36685'
p4114
I1
sS'36690'
p4115
I1
sg2771
I1
stp4116
sS'74.125.39.27'
p4117
(I3
(dp4118
S'2118'
p4119
I1
sS'1536'
p4120
I1
sS'1893'
p4121
I1
stp4122
sS'147.32.192.34'
p4123
(I1
(dp4124
g1281
I1
stp4125
sS'64.12.175.136'
p4126
(I5
(dp4127
S'2243'
p4128
I1
sS'1492'
p4129
I1
sS'1508'
p4130
I1
sS'1486'
p4131
I1
sS'1505'
p4132
I1
stp4133
sS'208.91.135.41'
p4134
(I3
(dp4135
S'35203'
p4136
I1
sS'35202'
p4137
I1
sS'35201'
p4138
I1
stp4139
sS'211.140.47.197'
p4140
(I1
(dp4141
S'1092'
p4142
I1
stp4143
sS'84.16.230.244'
p4144
(I1
(dp4145
S'1572'
p4146
I1
stp4147
sS'210.211.186.109'
p4148
(I1
(dp4149
S'1406'
p4150
I1
stp4151
sS'195.88.191.59'
p4152
(I4
(dp4153
S'1059'
p4154
I1
sS'1062'
p4155
I1
sS'1267'
p4156
I1
sS'1056'
p4157
I1
stp4158
sS'92.47.55.219'
p4159
(I1
(dp4160
S'2054'
p4161
I1
stp4162
sS'72.21.214.143'
p4163
(I2
(dp4164
S'42281'
p4165
I1
sS'42282'
p4166
I1
stp4167
sS'112.205.182.117'
p4168
(I1
(dp4169
S'1067'
p4170
I1
stp4171
sS'82.103.123.207'
p4172
(I1
(dp4173
S'1069'
p4174
I1
stp4175
sS'61.28.22.201'
p4176
(I1
(dp4177
S'2075'
p4178
I1
stp4179
sS'78.24.14.69'
p4180
(I15
(dp4181
S'51939'
p4182
I1
sS'51919'
p4183
I1
sS'51969'
p4184
I1
sS'51932'
p4185
I1
sS'51911'
p4186
I1
sS'51965'
p4187
I1
sS'51925'
p4188
I1
sS'51926'
p4189
I1
sS'51982'
p4190
I1
sS'51983'
p4191
I1
sS'51978'
p4192
I1
sS'51976'
p4193
I1
sS'51975'
p4194
I1
sS'51920'
p4195
I1
sS'51966'
p4196
I1
stp4197
sS'41.220.18.106'
p4198
(I1
(dp4199
S'2048'
p4200
I1
stp4201
sS'117.199.114.136'
p4202
(I1
(dp4203
S'1071'
p4204
I1
stp4205
sS'88.86.120.78'
p4206
(I19
(dp4207
S'54167'
p4208
I1
sS'54166'
p4209
I1
sS'54165'
p4210
I1
sg3279
I1
sS'54163'
p4211
I1
sS'54162'
p4212
I1
sS'54161'
p4213
I1
sS'54169'
p4214
I1
sS'54168'
p4215
I1
sS'54148'
p4216
I1
sg3078
I1
sS'54159'
p4217
I1
sS'54147'
p4218
I1
sS'54152'
p4219
I1
sS'54153'
p4220
I1
sS'54156'
p4221
I1
sS'54157'
p4222
I1
sS'54154'
p4223
I1
sS'54155'
p4224
I1
stp4225
sS'205.188.186.167'
p4226
(I2
(dp4227
S'2018'
p4228
I1
sS'1981'
p4229
I1
stp4230
sS'178.90.6.143'
p4231
(I1
(dp4232
S'1414'
p4233
I1
stp4234
sS'125.99.28.64'
p4235
(I1
(dp4236
S'1074'
p4237
I1
stp4238
sS'2.21.92.124'
p4239
(I9
(dp4240
S'43406'
p4241
I1
sS'43407'
p4242
I1
sS'50682'
p4243
I1
sS'50685'
p4244
I1
sS'50691'
p4245
I1
sS'50681'
p4246
I1
sS'43429'
p4247
I1
sS'43390'
p4248
I1
sS'43408'
p4249
I1
stp4250
sS'78.24.10.28'
p4251
(I7
(dp4252
S'36149'
p4253
I1
sS'36105'
p4254
I1
sS'36079'
p4255
I1
sS'36084'
p4256
I1
sS'36085'
p4257
I1
sg1234
I1
sS'36087'
p4258
I1
stp4259
sS'80.239.149.19'
p4260
(I6
(dp4261
S'32884'
p4262
I1
sS'32885'
p4263
I1
sS'32886'
p4264
I1
sS'32881'
p4265
I1
sS'32882'
p4266
I1
sg2909
I1
stp4267
sS'78.24.10.27'
p4268
(I5
(dp4269
S'53792'
p4270
I1
sS'53796'
p4271
I1
sg1387
I1
sS'53836'
p4272
I1
sS'53778'
p4273
I1
stp4274
sS'81.19.88.81'
p4275
(I1
(dp4276
S'52402'
p4277
I1
stp4278
sS'77.127.115.133'
p4279
(I1
(dp4280
S'1093'
p4281
I1
stp4282
sS'195.24.233.55'
p4283
(I30
(dp4284
S'45239'
p4285
I1
sS'52358'
p4286
I1
sS'35047'
p4287
I1
sS'35041'
p4288
I1
sS'52354'
p4289
I1
sS'50309'
p4290
I1
sS'50305'
p4291
I1
sS'52301'
p4292
I1
sS'34982'
p4293
I1
sS'35010'
p4294
I1
sS'34986'
p4295
I1
sS'35015'
p4296
I1
sS'52326'
p4297
I1
sS'50281'
p4298
I1
sS'50286'
p4299
I1
sS'45090'
p4300
I1
sS'52362'
p4301
I1
sS'50313'
p4302
I1
sS'52332'
p4303
I1
sS'35019'
p4304
I1
sS'35035'
p4305
I1
sS'52312'
p4306
I1
sS'52316'
p4307
I1
sS'34998'
p4308
I1
sS'45152'
p4309
I1
sS'45111'
p4310
I1
sS'35025'
p4311
I1
sS'50290'
p4312
I1
sg2687
I1
sS'52336'
p4313
I1
stp4314
sS'49.128.164.249'
p4315
(I1
(dp4316
S'1270'
p4317
I1
stp4318
sS'65.55.72.7'
p4319
(I17
(dp4320
S'1832'
p4321
I1
sS'1774'
p4322
I1
sS'1806'
p4323
I1
sS'1770'
p4324
I1
sS'1813'
p4325
I1
sS'1729'
p4326
I1
sS'1779'
p4327
I1
sS'1785'
p4328
I1
sS'1795'
p4329
I1
sS'1736'
p4330
I1
sS'1789'
p4331
I1
sS'1759'
p4332
I1
sS'1800'
p4333
I1
sS'1820'
p4334
I1
sS'1755'
p4335
I1
sS'1764'
p4336
I1
sS'1743'
p4337
I1
stp4338
sS'59.103.193.24'
p4339
(I1
(dp4340
S'1450'
p4341
I1
stp4342
sS'190.151.53.33'
p4343
(I1
(dp4344
S'1421'
p4345
I1
stp4346
sS'216.34.181.59'
p4347
(I3
(dp4348
S'58199'
p4349
I1
sS'48178'
p4350
I1
sS'58205'
p4351
I1
stp4352
sS'190.204.173.239'
p4353
(I1
(dp4354
S'2146'
p4355
I1
stp4356
sS'94.127.76.70'
p4357
(I12
(dp4358
S'60713'
p4359
I1
sS'60712'
p4360
I1
sS'60711'
p4361
I1
sS'60710'
p4362
I1
sS'60708'
p4363
I1
sS'60709'
p4364
I1
sS'60704'
p4365
I1
sS'60705'
p4366
I1
sS'60706'
p4367
I1
sS'60707'
p4368
I1
sS'60702'
p4369
I1
sS'60703'
p4370
I1
stp4371
sS'50.19.104.3'
p4372
(I2
(dp4373
S'49097'
p4374
I1
sS'49096'
p4375
I1
stp4376
sS'188.230.64.18'
p4377
(I1
(dp4378
S'1080'
p4379
I1
stp4380
sS'160.68.117.20'
p4381
(I11
(dp4382
S'38629'
p4383
I1
sS'38624'
p4384
I1
sS'38623'
p4385
I1
sS'38626'
p4386
I1
sS'37449'
p4387
I1
sS'38625'
p4388
I1
sS'37450'
p4389
I1
sS'37451'
p4390
I1
sS'37452'
p4391
I1
sS'37453'
p4392
I1
sS'37454'
p4393
I1
stp4394
sS'69.63.190.14'
p4395
(I1
(dp4396
S'50019'
p4397
I1
stp4398
sS'86.126.237.212'
p4399
(I1
(dp4400
S'2175'
p4401
I1
stp4402
sS'64.215.254.120'
p4403
(I1
(dp4404
S'45165'
p4405
I1
stp4406
sS'79.132.91.208'
p4407
(I2
(dp4408
S'1532'
p4409
I1
sS'1081'
p4410
I1
stp4411
sS'91.189.89.59'
p4412
(I3
(dp4413
S'37657'
p4414
I1
sS'56847'
p4415
I1
sg2024
I1
stp4416
sS'193.169.234.231'
p4417
(I2
(dp4418
S'43316'
p4419
I1
sS'43318'
p4420
I1
stp4421
sS'8.19.240.53'
p4422
(I7
(dp4423
S'36564'
p4424
I1
sS'36563'
p4425
I1
sg1380
I1
sS'60415'
p4426
I1
sS'60802'
p4427
I1
sS'60827'
p4428
I1
sS'60427'
p4429
I1
stp4430
sS'77.127.115.2'
p4431
(I1
(dp4432
S'1287'
p4433
I1
stp4434
sS'64.4.56.87'
p4435
(I7
(dp4436
S'1621'
p4437
I1
sS'1636'
p4438
I1
sS'1707'
p4439
I1
sS'1733'
p4440
I1
sS'1686'
p4441
I1
sS'1650'
p4442
I1
sS'1827'
p4443
I1
stp4444
sS'65.54.186.19'
p4445
(I2
(dp4446
S'1656'
p4447
I1
sS'1660'
p4448
I1
stp4449
sS'209.85.148.147'
p4450
(I52
(dp4451
S'39172'
p4452
I1
sS'60132'
p4453
I1
sS'34651'
p4454
I1
sS'33084'
p4455
I1
sS'43703'
p4456
I1
sS'60119'
p4457
I1
sS'34678'
p4458
I1
sS'36082'
p4459
I1
sS'60076'
p4460
I1
sS'60077'
p4461
I1
sS'34069'
p4462
I1
sS'43675'
p4463
I1
sS'1985'
p4464
I1
sS'1969'
p4465
I1
sS'43707'
p4466
I1
sS'1965'
p4467
I1
sS'1960'
p4468
I1
sS'1901'
p4469
I1
sS'50680'
p4470
I1
sS'43692'
p4471
I1
sS'36606'
p4472
I1
sS'36607'
p4473
I1
sS'36605'
p4474
I1
sS'34682'
p4475
I1
sS'1854'
p4476
I1
sS'1752'
p4477
I1
sS'36068'
p4478
I1
sS'39165'
p4479
I1
sS'34645'
p4480
I1
sS'60126'
p4481
I1
sS'60128'
p4482
I1
sS'60129'
p4483
I1
sS'33097'
p4484
I1
sS'33093'
p4485
I1
sS'50663'
p4486
I1
sS'1973'
p4487
I1
sS'43672'
p4488
I1
sS'33129'
p4489
I1
sS'39154'
p4490
I1
sS'1998'
p4491
I1
sS'33122'
p4492
I1
sS'43687'
p4493
I1
sS'1847'
p4494
I1
sS'36076'
p4495
I1
sS'43628'
p4496
I1
sS'36608'
p4497
I1
sS'39149'
p4498
I1
sS'50669'
p4499
I1
sS'39173'
p4500
I1
sS'36609'
p4501
I1
sS'1740'
p4502
I1
sg1252
I1
stp4503
sS'65.54.186.10'
p4504
(I13
(dp4505
S'1436'
p4506
I1
sS'1859'
p4507
I1
sS'1432'
p4508
I1
sS'1427'
p4509
I1
sS'1426'
p4510
I1
sS'1582'
p4511
I1
sS'1840'
p4512
I1
sS'1586'
p4513
I1
sS'1850'
p4514
I1
sS'1578'
p4515
I1
sS'1310'
p4516
I1
sS'1843'
p4517
I1
sS'1594'
p4518
I1
stp4519
sS'184.73.162.18'
p4520
(I1
(dp4521
S'59748'
p4522
I1
stp4523
sS'2.21.109.177'
p4524
(I4
(dp4525
S'59186'
p4526
I1
sg1841
I1
sS'59185'
p4527
I1
sS'48255'
p4528
I1
stp4529
sS'2.21.101.115'
p4530
(I2
(dp4531
S'59524'
p4532
I1
sS'37920'
p4533
I1
stp4534
sS'66.220.153.19'
p4535
(I1
(dp4536
S'40307'
p4537
I1
stp4538
sS'195.113.232.75'
p4539
(I4
(dp4540
S'32812'
p4541
I1
sS'43617'
p4542
I1
sS'55242'
p4543
I1
sS'43607'
p4544
I1
stp4545
sS'209.85.148.103'
p4546
(I48
(dp4547
S'40202'
p4548
I1
sS'33328'
p4549
I1
sS'46510'
p4550
I1
sS'55496'
p4551
I1
sS'55514'
p4552
I1
sS'55524'
p4553
I1
sS'49815'
p4554
I1
sS'33340'
p4555
I1
sg1335
I1
sS'49837'
p4556
I1
sS'49805'
p4557
I1
sS'55503'
p4558
I1
sS'44765'
p4559
I1
sS'43675'
p4560
I1
sS'46455'
p4561
I1
sS'46601'
p4562
I1
sS'43703'
p4563
I1
sS'49817'
p4564
I1
sS'49799'
p4565
I1
sS'46454'
p4566
I1
sS'43658'
p4567
I1
sS'46456'
p4568
I1
sS'43630'
p4569
I1
sS'46452'
p4570
I1
sS'46453'
p4571
I1
sS'43650'
p4572
I1
sS'33319'
p4573
I1
sS'46507'
p4574
I1
sS'55484'
p4575
I1
sS'46502'
p4576
I1
sS'46500'
p4577
I1
sS'46501'
p4578
I1
sS'46499'
p4579
I1
sS'33333'
p4580
I1
sS'33334'
p4581
I1
sS'46508'
p4582
I1
sS'46509'
p4583
I1
sS'49813'
p4584
I1
sS'46617'
p4585
I1
sS'49808'
p4586
I1
sS'49802'
p4587
I1
sS'49788'
p4588
I1
sS'43681'
p4589
I1
sS'44778'
p4590
I1
sS'44758'
p4591
I1
sS'43641'
p4592
I1
sS'44776'
p4593
I1
sS'44752'
p4594
I1
stp4595
sS'66.220.153.11'
p4596
(I6
(dp4597
S'46921'
p4598
I1
sg3188
I1
sS'38477'
p4599
I1
sS'38476'
p4600
I1
sg2580
I1
sS'38439'
p4601
I1
stp4602
sS'195.113.232.73'
p4603
(I2
(dp4604
S'1290'
p4605
I1
sS'38633'
p4606
I1
stp4607
sS'80.239.149.8'
p4608
(I6
(dp4609
S'44008'
p4610
I1
sS'44005'
p4611
I1
sS'44004'
p4612
I1
sS'44007'
p4613
I1
sS'44006'
p4614
I1
sS'44003'
p4615
I1
stp4616
sS'109.123.211.197'
p4617
(I5
(dp4618
S'36244'
p4619
I1
sS'36234'
p4620
I1
sS'36233'
p4621
I1
sS'36243'
p4622
I1
sS'36245'
p4623
I1
stp4624
sS'109.123.211.195'
p4625
(I22
(dp4626
S'52008'
p4627
I1
sS'52009'
p4628
I1
sS'43592'
p4629
I1
sS'43593'
p4630
I1
sS'43590'
p4631
I1
sS'43591'
p4632
I1
sS'52006'
p4633
I1
sS'52007'
p4634
I1
sS'52004'
p4635
I1
sS'52005'
p4636
I1
sS'46046'
p4637
I1
sS'46043'
p4638
I1
sS'46042'
p4639
I1
sS'46041'
p4640
I1
sS'46040'
p4641
I1
sg2986
I1
sS'46027'
p4642
I1
sS'46020'
p4643
I1
sS'43604'
p4644
I1
sS'46039'
p4645
I1
sS'46032'
p4646
I1
sS'46031'
p4647
I1
stp4648
sS'221.130.69.202'
p4649
(I2
(dp4650
S'2072'
p4651
I1
sS'1882'
p4652
I1
stp4653
sS'69.59.128.228'
p4654
(I16
(dp4655
S'38408'
p4656
I1
sS'43003'
p4657
I1
sS'53384'
p4658
I1
sS'49351'
p4659
I1
sS'55133'
p4660
I1
sS'54644'
p4661
I1
sS'37986'
p4662
I1
sS'51994'
p4663
I1
sS'43363'
p4664
I1
sS'48266'
p4665
I1
sS'43927'
p4666
I1
sS'49313'
p4667
I1
sS'49144'
p4668
I1
sS'52666'
p4669
I1
sS'34384'
p4670
I1
sS'50106'
p4671
I1
stp4672
sS'209.85.149.100'
p4673
(I3
(dp4674
S'38798'
p4675
I1
sS'60523'
p4676
I1
sS'47461'
p4677
I1
stp4678
sS'74.125.235.75'
p4679
(I2
(dp4680
S'39252'
p4681
I1
sS'39253'
p4682
I1
stp4683
sS'50.16.227.193'
p4684
(I2
(dp4685
S'45356'
p4686
I1
sS'45357'
p4687
I1
stp4688
sS'194.79.52.98'
p4689
(I4
(dp4690
g4098
I1
sS'52145'
p4691
I1
sS'52144'
p4692
I1
sS'37778'
p4693
I1
stp4694
sS'194.79.52.99'
p4695
(I2
(dp4696
S'45600'
p4697
I1
sS'45542'
p4698
I1
stp4699
sS'112.205.111.114'
p4700
(I1
(dp4701
S'1075'
p4702
I1
stp4703
sS'64.225.158.191'
p4704
(I2
(dp4705
S'52238'
p4706
I1
sS'52206'
p4707
I1
stp4708
sS'78.58.99.95'
p4709
(I1
(dp4710
S'2168'
p4711
I1
stp4712
sS'82.99.253.2'
p4713
(I1
(dp4714
S'1579'
p4715
I1
stp4716
sS'200.29.244.194'
p4717
(I1
(dp4718
S'1713'
p4719
I1
stp4720
sS'74.125.235.64'
p4721
(I1
(dp4722
S'33879'
p4723
I1
stp4724
sS'210.211.186.4'
p4725
(I1
(dp4726
S'1563'
p4727
I1
stp4728
sS'190.77.235.75'
p4729
(I2
(dp4730
S'1278'
p4731
I1
sS'2232'
p4732
I1
stp4733
sS'194.79.52.199'
p4734
(I36
(dp4735
S'46728'
p4736
I1
sS'46803'
p4737
I1
sS'46802'
p4738
I1
sS'46806'
p4739
I1
sS'46805'
p4740
I1
sS'46804'
p4741
I1
sS'46785'
p4742
I1
sS'46786'
p4743
I1
sS'46787'
p4744
I1
sS'46783'
p4745
I1
sS'43017'
p4746
I1
sS'43016'
p4747
I1
sS'43019'
p4748
I1
sS'43018'
p4749
I1
sS'46696'
p4750
I1
sS'46697'
p4751
I1
sS'46694'
p4752
I1
sS'46695'
p4753
I1
sS'46692'
p4754
I1
sS'46693'
p4755
I1
sS'46698'
p4756
I1
sS'46699'
p4757
I1
sS'43004'
p4758
I1
sS'43005'
p4759
I1
sS'43006'
p4760
I1
sS'43007'
p4761
I1
sS'43008'
p4762
I1
sS'43009'
p4763
I1
sS'46791'
p4764
I1
sS'46790'
p4765
I1
sg3866
I1
sS'46701'
p4766
I1
sS'46702'
p4767
I1
sS'46703'
p4768
I1
sS'43020'
p4769
I1
sS'43021'
p4770
I1
stp4771
sS'85.130.81.228'
p4772
(I1
(dp4773
S'1091'
p4774
I1
stp4775
sS'65.54.165.141'
p4776
(I1
(dp4777
S'1296'
p4778
I1
stp4779
sS'130.159.196.37'
p4780
(I7
(dp4781
S'43606'
p4782
I1
sg4644
I1
sS'43605'
p4783
I1
sS'43602'
p4784
I1
sS'43603'
p4785
I1
sS'43601'
p4786
I1
sS'38628'
p4787
I1
stp4788
sS'74.125.232.217'
p4789
(I2
(dp4790
S'59006'
p4791
I1
sS'51827'
p4792
I1
stp4793
sS'74.125.232.219'
p4794
(I1
(dp4795
S'52414'
p4796
I1
stp4797
sS'74.125.232.218'
p4798
(I1
(dp4799
S'54325'
p4800
I1
stp4801
sS'81.31.45.72'
p4802
(I2
(dp4803
S'40654'
p4804
I1
sg2258
I1
stp4805
sS'89.46.59.46'
p4806
(I1
(dp4807
S'1281'
p4808
I1
stp4809
sS'208.84.201.167'
p4810
(I2
(dp4811
S'1087'
p4812
I1
sS'2184'
p4813
I1
stp4814
sS'70.37.55.137'
p4815
(I3
(dp4816
S'51689'
p4817
I1
sS'51690'
p4818
I1
sS'51655'
p4819
I1
stp4820
sS'74.125.232.243'
p4821
(I1
(dp4822
S'56846'
p4823
I1
stp4824
sS'216.34.181.69'
p4825
(I2
(dp4826
S'41532'
p4827
I1
sS'33544'
p4828
I1
stp4829
sS'112.110.18.151'
p4830
(I2
(dp4831
S'1652'
p4832
I1
sS'1994'
p4833
I1
stp4834
sS'65.54.186.107'
p4835
(I1
(dp4836
S'1704'
p4837
I1
stp4838
sS'216.34.181.60'
p4839
(I11
(dp4840
S'56464'
p4841
I1
sS'56465'
p4842
I1
sS'56463'
p4843
I1
sS'34150'
p4844
I1
sS'34153'
p4845
I1
sS'34154'
p4846
I1
sS'34141'
p4847
I1
sS'34158'
p4848
I1
sS'56457'
p4849
I1
sS'56456'
p4850
I1
sS'34149'
p4851
I1
stp4852
sS'209.85.148.104'
p4853
(I40
(dp4854
S'58008'
p4855
I1
sS'57987'
p4856
I1
sS'58037'
p4857
I1
sS'58015'
p4858
I1
sg1550
I1
sS'43861'
p4859
I1
sS'58157'
p4860
I1
sg2435
I1
sg58
I1
sS'44183'
p4861
I1
sS'48979'
p4862
I1
sS'58731'
p4863
I1
sS'48971'
p4864
I1
sS'44050'
p4865
I1
sS'58734'
p4866
I1
sS'44230'
p4867
I1
sS'44231'
p4868
I1
sS'44234'
p4869
I1
sS'44073'
p4870
I1
sS'44215'
p4871
I1
sS'44683'
p4872
I1
sS'44682'
p4873
I1
sS'44681'
p4874
I1
sS'44680'
p4875
I1
sS'58027'
p4876
I1
sS'58742'
p4877
I1
sS'59011'
p4878
I1
sS'59012'
p4879
I1
sS'39518'
p4880
I1
sS'57994'
p4881
I1
sS'48980'
p4882
I1
sS'48981'
p4883
I1
sS'58747'
p4884
I1
sS'44678'
p4885
I1
sS'44679'
p4886
I1
sS'58725'
p4887
I1
sS'49006'
p4888
I1
sS'57174'
p4889
I1
sS'44069'
p4890
I1
sS'44207'
p4891
I1
stp4892
sS'209.85.148.105'
p4893
(I72
(dp4894
S'35747'
p4895
I1
sS'45580'
p4896
I1
sS'47984'
p4897
I1
sS'35883'
p4898
I1
sS'52166'
p4899
I1
sS'1483'
p4900
I1
sS'53787'
p4901
I1
sS'48932'
p4902
I1
sS'48935'
p4903
I1
sS'48936'
p4904
I1
sS'53788'
p4905
I1
sS'52195'
p4906
I1
sS'36536'
p4907
I1
sS'36537'
p4908
I1
sS'45576'
p4909
I1
sS'34192'
p4910
I1
sS'53750'
p4911
I1
sS'1617'
p4912
I1
sS'45579'
p4913
I1
sS'36538'
p4914
I1
sS'36539'
p4915
I1
sS'45557'
p4916
I1
sS'53751'
p4917
I1
sS'35750'
p4918
I1
sS'53753'
p4919
I1
sS'35752'
p4920
I1
sS'53754'
p4921
I1
sS'53758'
p4922
I1
sS'36514'
p4923
I1
sS'36513'
p4924
I1
sS'36511'
p4925
I1
sS'47985'
p4926
I1
sg1641
I1
sS'53739'
p4927
I1
sS'47986'
p4928
I1
sS'35885'
p4929
I1
sS'40861'
p4930
I1
sS'59955'
p4931
I1
sS'52177'
p4932
I1
sg594
I1
sS'59956'
p4933
I1
sS'45527'
p4934
I1
sS'47114'
p4935
I1
sS'35882'
p4936
I1
sS'47112'
p4937
I1
sS'40897'
p4938
I1
sS'1496'
p4939
I1
sS'40895'
p4940
I1
sS'40875'
p4941
I1
sS'40898'
p4942
I1
sS'1571'
p4943
I1
sS'36541'
p4944
I1
sS'36540'
p4945
I1
sS'40832'
p4946
I1
sS'53749'
p4947
I1
sS'53747'
p4948
I1
sS'47834'
p4949
I1
sS'53752'
p4950
I1
sS'40839'
p4951
I1
sS'45545'
p4952
I1
sS'48946'
p4953
I1
sS'35751'
p4954
I1
sS'47115'
p4955
I1
sS'34171'
p4956
I1
sS'1518'
p4957
I1
sS'47835'
p4958
I1
sS'34182'
p4959
I1
sS'35748'
p4960
I1
sS'35749'
p4961
I1
sS'59983'
p4962
I1
sS'1575'
p4963
I1
sS'47832'
p4964
I1
stp4965
sS'209.85.148.106'
p4966
(I55
(dp4967
S'44553'
p4968
I1
sS'44552'
p4969
I1
sS'59387'
p4970
I1
sS'44556'
p4971
I1
sS'38907'
p4972
I1
sS'47610'
p4973
I1
sS'47612'
p4974
I1
sS'38903'
p4975
I1
sS'44578'
p4976
I1
sS'36361'
p4977
I1
sS'59435'
p4978
I1
sS'44579'
p4979
I1
sS'49671'
p4980
I1
sS'52222'
p4981
I1
sS'51175'
p4982
I1
sS'51173'
p4983
I1
sS'44580'
p4984
I1
sS'44581'
p4985
I1
sS'44582'
p4986
I1
sS'44583'
p4987
I1
sS'57964'
p4988
I1
sS'51133'
p4989
I1
sS'51158'
p4990
I1
sS'54247'
p4991
I1
sS'54248'
p4992
I1
sS'34229'
p4993
I1
sS'36416'
p4994
I1
sg1510
I1
sS'58793'
p4995
I1
sS'35260'
p4996
I1
sS'49668'
p4997
I1
sS'49669'
p4998
I1
sg2130
I1
sS'52366'
p4999
I1
sS'52244'
p5000
I1
sS'36359'
p5001
I1
sS'59401'
p5002
I1
sS'50212'
p5003
I1
sS'59987'
p5004
I1
sS'59379'
p5005
I1
sS'57937'
p5006
I1
sS'57917'
p5007
I1
sS'57916'
p5008
I1
sS'51186'
p5009
I1
sg1658
I1
sS'57918'
p5010
I1
sS'47609'
p5011
I1
sS'54250'
p5012
I1
sS'51104'
p5013
I1
sg2453
I1
sS'59412'
p5014
I1
sS'51125'
p5015
I1
sS'59984'
p5016
I1
sS'59985'
p5017
I1
sS'59373'
p5018
I1
stp5019
sS'92.123.68.154'
p5020
(I1
(dp5021
S'51617'
p5022
I1
stp5023
sS'193.48.200.8'
p5024
(I25
(dp5025
S'53010'
p5026
I1
sS'52983'
p5027
I1
sS'52982'
p5028
I1
sS'52981'
p5029
I1
sS'52980'
p5030
I1
sS'52987'
p5031
I1
sS'52986'
p5032
I1
sS'52985'
p5033
I1
sS'52984'
p5034
I1
sS'52989'
p5035
I1
sS'52988'
p5036
I1
sS'53009'
p5037
I1
sS'52976'
p5038
I1
sS'52977'
p5039
I1
sS'52978'
p5040
I1
sS'52979'
p5041
I1
sS'52998'
p5042
I1
sS'52994'
p5043
I1
sS'52995'
p5044
I1
sS'52996'
p5045
I1
sS'52997'
p5046
I1
sg1610
I1
sg2538
I1
sS'52992'
p5047
I1
sS'52993'
p5048
I1
stp5049
sS'92.123.68.112'
p5050
(I1
(dp5051
g3015
I1
stp5052
sS'80.191.187.36'
p5053
(I1
(dp5054
S'1063'
p5055
I1
stp5056
sS'46.175.169.64'
p5057
(I2
(dp5058
S'1493'
p5059
I1
sS'1079'
p5060
I1
stp5061
sS'117.204.67.233'
p5062
(I1
(dp5063
S'1428'
p5064
I1
stp5065
sS'95.59.1.63'
p5066
(I1
(dp5067
S'1568'
p5068
I1
stp5069
sS'67.215.253.139'
p5070
(I1
(dp5071
S'34185'
p5072
I1
stp5073
sS'77.75.76.52'
p5074
(I6
(dp5075
S'58927'
p5076
I1
sS'58926'
p5077
I1
sS'58925'
p5078
I1
sS'58924'
p5079
I1
sS'58923'
p5080
I1
sS'58928'
p5081
I1
stp5082
sS'77.75.73.86'
p5083
(I4
(dp5084
S'41734'
p5085
I1
sS'41735'
p5086
I1
sS'41815'
p5087
I1
sS'41733'
p5088
I1
stp5089
sS'65.55.16.187'
p5090
(I6
(dp5091
S'1320'
p5092
I1
sS'1710'
p5093
I1
sS'1326'
p5094
I1
sS'1715'
p5095
I1
sS'1329'
p5096
I1
sS'1697'
p5097
I1
stp5098
sS'218.93.203.210'
p5099
(I1
(dp5100
S'1410'
p5101
I1
stp5102
sS'66.220.158.18'
p5103
(I1
(dp5104
S'39085'
p5105
I1
stp5106
sS'70.37.127.110'
p5107
(I4
(dp5108
S'55653'
p5109
I1
sS'55656'
p5110
I1
sS'55654'
p5111
I1
sS'55655'
p5112
I1
stp5113
sS'27.251.19.95'
p5114
(I1
(dp5115
S'1540'
p5116
I1
stp5117
sS'209.85.149.116'
p5118
(I1
(dp5119
S'58464'
p5120
I1
stp5121
sS'209.85.149.117'
p5122
(I1
(dp5123
S'50980'
p5124
I1
stp5125
sS'195.24.232.205'
p5126
(I29
(dp5127
S'36366'
p5128
I1
sS'36346'
p5129
I1
sS'40902'
p5130
I1
sS'36320'
p5131
I1
sS'36304'
p5132
I1
sS'53130'
p5133
I1
sS'40922'
p5134
I1
sS'53126'
p5135
I1
sS'40946'
p5136
I1
sS'40941'
p5137
I1
sS'53111'
p5138
I1
sS'35344'
p5139
I1
sS'36358'
p5140
I1
sS'35328'
p5141
I1
sS'40896'
p5142
I1
sS'36350'
p5143
I1
sg1724
I1
sS'36314'
p5144
I1
sS'40914'
p5145
I1
sS'36339'
p5146
I1
sS'36334'
p5147
I1
sS'40927'
p5148
I1
sS'40951'
p5149
I1
sS'53121'
p5150
I1
sS'35333'
p5151
I1
sS'53100'
p5152
I1
sS'40932'
p5153
I1
sg2773
I1
sS'40936'
p5154
I1
stp5155
sS'157.249.32.138'
p5156
(I12
(dp5157
S'45033'
p5158
I1
sS'45032'
p5159
I1
sS'45031'
p5160
I1
sS'40297'
p5161
I1
sS'45029'
p5162
I1
sS'45034'
p5163
I1
sS'45030'
p5164
I1
sS'40324'
p5165
I1
sg1458
I1
sS'40326'
p5166
I1
sS'40327'
p5167
I1
sS'40323'
p5168
I1
stp5169
sS'74.125.232.207'
p5170
(I4
(dp5171
S'45110'
p5172
I1
sS'45112'
p5173
I1
sS'45109'
p5174
I1
sS'43099'
p5175
I1
stp5176
sS'91.189.89.213'
p5177
(I2
(dp5178
S'41572'
p5179
I1
sS'48314'
p5180
I1
stp5181
sS'95.172.94.52'
p5182
(I1
(dp5183
g2440
I1
stp5184
sS'85.185.226.13'
p5185
(I1
(dp5186
S'2113'
p5187
I1
stp5188
sS'92.123.64.120'
p5189
(I6
(dp5190
S'59930'
p5191
I1
sS'59929'
p5192
I1
sS'60195'
p5193
I1
sS'60197'
p5194
I1
sS'60196'
p5195
I1
sS'60198'
p5196
I1
stp5197
sS'61.17.216.20'
p5198
(I1
(dp5199
S'1836'
p5200
I1
stp5201
sS'61.17.216.26'
p5202
(I1
(dp5203
S'1947'
p5204
I1
stp5205
sS'80.239.149.27'
p5206
(I3
(dp5207
S'56657'
p5208
I1
sS'56656'
p5209
I1
sS'56655'
p5210
I1
stp5211
sS'92.123.64.128'
p5212
(I4
(dp5213
g3701
I1
sg3711
I1
sS'45158'
p5214
I1
sS'45159'
p5215
I1
stp5216
sS'84.229.253.152'
p5217
(I1
(dp5218
S'1293'
p5219
I1
stp5220
sS'217.163.21.40'
p5221
(I4
(dp5222
S'52280'
p5223
I1
sS'52281'
p5224
I1
sS'47101'
p5225
I1
sS'52256'
p5226
I1
stp5227
sS'217.163.21.41'
p5228
(I2
(dp5229
S'49158'
p5230
I1
sg1729
I1
stp5231
sS'61.150.114.216'
p5232
(I1
(dp5233
S'1273'
p5234
I1
stp5235
sS'173.203.218.127'
p5236
(I2
(dp5237
S'34194'
p5238
I1
sS'34193'
p5239
I1
stp5240
sS'94.63.150.52'
p5241
(I13
(dp5242
S'1043'
p5243
I1
sS'1042'
p5244
I1
sS'1041'
p5245
I1
sS'1047'
p5246
I1
sS'1046'
p5247
I1
sS'1045'
p5248
I1
sS'1044'
p5249
I1
sS'1049'
p5250
I1
sS'1048'
p5251
I1
sS'1052'
p5252
I1
sS'1051'
p5253
I1
sS'1050'
p5254
I1
sS'1054'
p5255
I1
stp5256
sS'74.125.232.199'
p5257
(I4
(dp5258
S'47248'
p5259
I1
sS'47182'
p5260
I1
sS'44013'
p5261
I1
sS'46765'
p5262
I1
stp5263
sS'58.252.109.240'
p5264
(I1
(dp5265
S'1086'
p5266
I1
stp5267
sS'77.75.77.9'
p5268
(I6
(dp5269
S'44700'
p5270
I1
sS'44562'
p5271
I1
sS'44560'
p5272
I1
sS'44561'
p5273
I1
sS'39664'
p5274
I1
sS'39667'
p5275
I1
stp5276
sS'95.134.172.70'
p5277
(I1
(dp5278
S'1065'
p5279
I1
stp5280
sS'217.112.36.110'
p5281
(I40
(dp5282
S'57683'
p5283
I1
sS'57682'
p5284
I1
sS'57687'
p5285
I1
sS'57686'
p5286
I1
sS'57685'
p5287
I1
sS'57684'
p5288
I1
sS'57704'
p5289
I1
sS'57672'
p5290
I1
sS'57673'
p5291
I1
sS'57670'
p5292
I1
sS'57671'
p5293
I1
sS'57676'
p5294
I1
sS'57677'
p5295
I1
sS'57674'
p5296
I1
sS'57675'
p5297
I1
sS'57678'
p5298
I1
sS'57679'
p5299
I1
sS'45999'
p5300
I1
sS'57698'
p5301
I1
sS'57699'
p5302
I1
sS'57694'
p5303
I1
sS'57695'
p5304
I1
sg2393
I1
sS'57697'
p5305
I1
sS'57690'
p5306
I1
sS'57691'
p5307
I1
sS'57692'
p5308
I1
sS'57693'
p5309
I1
sS'57701'
p5310
I1
sS'57706'
p5311
I1
sg3639
I1
sS'57702'
p5312
I1
sS'57703'
p5313
I1
sS'57663'
p5314
I1
sS'57662'
p5315
I1
sg759
I1
sS'57664'
p5316
I1
sS'57667'
p5317
I1
sS'57668'
p5318
I1
sS'57700'
p5319
I1
stp5320
sS'115.97.135.112'
p5321
(I1
(dp5322
S'1083'
p5323
I1
stp5324
sS'66.220.151.91'
p5325
(I22
(dp5326
S'57980'
p5327
I1
sS'57981'
p5328
I1
sS'57982'
p5329
I1
sS'57983'
p5330
I1
sS'35210'
p5331
I1
sS'35211'
p5332
I1
sS'35212'
p5333
I1
sS'35213'
p5334
I1
sS'33130'
p5335
I1
sS'39384'
p5336
I1
sS'39382'
p5337
I1
sS'39383'
p5338
I1
sg1308
I1
sS'39381'
p5339
I1
sS'57979'
p5340
I1
sS'57978'
p5341
I1
sS'35209'
p5342
I1
sS'33128'
p5343
I1
sS'33129'
p5344
I1
sS'33125'
p5345
I1
sS'33126'
p5346
I1
sS'33127'
p5347
I1
stp5348
sS'217.163.21.35'
p5349
(I2
(dp5350
S'48894'
p5351
I1
sS'48895'
p5352
I1
stp5353
sS'217.163.21.34'
p5354
(I1
(dp5355
S'57399'
p5356
I1
stp5357
sS'217.163.21.37'
p5358
(I2
(dp5359
S'45572'
p5360
I1
sS'45563'
p5361
I1
stp5362
sS'192.58.128.30'
p5363
(I1
(dp5364
S'1612'
p5365
I1
stp5366
sS'74.125.232.222'
p5367
(I2
(dp5368
S'39711'
p5369
I1
sS'39712'
p5370
I1
stp5371
sS'74.125.232.223'
p5372
(I16
(dp5373
S'38525'
p5374
I1
sg3301
I1
sS'52101'
p5375
I1
sS'38526'
p5376
I1
sS'52034'
p5377
I1
sS'52055'
p5378
I1
sS'35534'
p5379
I1
sS'52035'
p5380
I1
sS'52100'
p5381
I1
sS'38836'
p5382
I1
sS'35533'
p5383
I1
sS'36743'
p5384
I1
sS'45366'
p5385
I1
sS'45365'
p5386
I1
sS'48666'
p5387
I1
sS'45367'
p5388
I1
stp5389
sS'74.125.232.220'
p5390
(I3
(dp5391
S'38518'
p5392
I1
sg2184
I1
sS'33259'
p5393
I1
stp5394
sS'74.125.232.221'
p5395
(I2
(dp5396
S'60858'
p5397
I1
sS'38164'
p5398
I1
stp5399
sS'217.163.21.39'
p5400
(I1
(dp5401
S'35766'
p5402
I1
stp5403
sS'217.163.21.38'
p5404
(I4
(dp5405
S'39072'
p5406
I1
sS'39064'
p5407
I1
sS'39063'
p5408
I1
sS'39073'
p5409
I1
stp5410
sS'65.55.75.231'
p5411
(I9
(dp5412
S'1945'
p5413
I1
sS'1876'
p5414
I1
sS'1922'
p5415
I1
sS'2001'
p5416
I1
sS'1935'
p5417
I1
sS'2005'
p5418
I1
sS'1887'
p5419
I1
sS'1913'
p5420
I1
sS'1897'
p5421
I1
stp5422
sS'109.123.211.210'
p5423
(I6
(dp5424
g4050
I1
sS'45304'
p5425
I1
sg2902
I1
sg4030
I1
sg4031
I1
sS'45291'
p5426
I1
stp5427
sS'94.100.176.20'
p5428
(I4
(dp5429
S'2239'
p5430
I1
sS'2091'
p5431
I1
sS'1500'
p5432
I1
sS'1803'
p5433
I1
stp5434
sS'91.189.89.114'
p5435
(I1
(dp5436
g5287
I1
stp5437
sS'64.12.73.165'
p5438
(I1
(dp5439
S'35139'
p5440
I1
stp5441
sS'119.154.54.142'
p5442
(I1
(dp5443
S'1399'
p5444
I1
stp5445
sS'193.169.234.243'
p5446
(I2
(dp5447
S'55248'
p5448
I1
sS'55250'
p5449
I1
stp5450
sS'27.255.59.65'
p5451
(I1
(dp5452
S'1519'
p5453
I1
stp5454
sS'27.255.59.64'
p5455
(I1
(dp5456
S'1289'
p5457
I1
stp5458
sS'92.47.5.149'
p5459
(I1
(dp5460
S'1919'
p5461
I1
stp5462
sS'89.167.251.252'
p5463
(I122
(dp5464
S'33322'
p5465
I1
sS'49181'
p5466
I1
sS'54291'
p5467
I1
sS'51477'
p5468
I1
sS'38843'
p5469
I1
sS'56811'
p5470
I1
sS'57823'
p5471
I1
sS'49932'
p5472
I1
sS'51777'
p5473
I1
sS'51772'
p5474
I1
sS'51672'
p5475
I1
sS'59151'
p5476
I1
sS'35205'
p5477
I1
sS'40547'
p5478
I1
sS'53492'
p5479
I1
sS'53710'
p5480
I1
sS'55901'
p5481
I1
sS'41499'
p5482
I1
sS'60356'
p5483
I1
sS'40788'
p5484
I1
sS'53395'
p5485
I1
sS'34084'
p5486
I1
sS'50569'
p5487
I1
sS'58546'
p5488
I1
sS'58815'
p5489
I1
sS'44429'
p5490
I1
sS'56736'
p5491
I1
sS'36746'
p5492
I1
sS'56818'
p5493
I1
sS'45194'
p5494
I1
sS'46481'
p5495
I1
sS'58972'
p5496
I1
sS'51847'
p5497
I1
sS'40437'
p5498
I1
sS'51454'
p5499
I1
sS'47940'
p5500
I1
sS'60388'
p5501
I1
sS'50571'
p5502
I1
sS'60426'
p5503
I1
sS'54445'
p5504
I1
sS'54544'
p5505
I1
sS'60237'
p5506
I1
sS'51995'
p5507
I1
sS'46815'
p5508
I1
sS'43990'
p5509
I1
sg1950
I1
sS'42434'
p5510
I1
sS'57586'
p5511
I1
sS'34232'
p5512
I1
sS'40137'
p5513
I1
sS'56106'
p5514
I1
sS'56102'
p5515
I1
sS'40285'
p5516
I1
sS'51743'
p5517
I1
sS'35467'
p5518
I1
sS'54959'
p5519
I1
sS'56859'
p5520
I1
sS'46272'
p5521
I1
sg627
I1
sS'54018'
p5522
I1
sS'38857'
p5523
I1
sS'49877'
p5524
I1
sS'56682'
p5525
I1
sS'38508'
p5526
I1
sS'52906'
p5527
I1
sS'46190'
p5528
I1
sS'33664'
p5529
I1
sg2899
I1
sS'45015'
p5530
I1
sS'57312'
p5531
I1
sS'53266'
p5532
I1
sS'38848'
p5533
I1
sS'36317'
p5534
I1
sS'49257'
p5535
I1
sS'57876'
p5536
I1
sS'40505'
p5537
I1
sS'55369'
p5538
I1
sS'42242'
p5539
I1
sS'36013'
p5540
I1
sS'60868'
p5541
I1
sS'43420'
p5542
I1
sS'37203'
p5543
I1
sS'34216'
p5544
I1
sS'48804'
p5545
I1
sS'33382'
p5546
I1
sS'51800'
p5547
I1
sS'53189'
p5548
I1
sS'49655'
p5549
I1
sS'46848'
p5550
I1
sS'58615'
p5551
I1
sS'36362'
p5552
I1
sS'42469'
p5553
I1
sS'39281'
p5554
I1
sS'46165'
p5555
I1
sS'50536'
p5556
I1
sg3312
I1
sS'54878'
p5557
I1
sS'46774'
p5558
I1
sS'38233'
p5559
I1
sS'44420'
p5560
I1
sS'51492'
p5561
I1
sS'54277'
p5562
I1
sS'55445'
p5563
I1
sS'59402'
p5564
I1
sS'42470'
p5565
I1
sS'36377'
p5566
I1
sS'49723'
p5567
I1
sS'48726'
p5568
I1
sg1361
I1
sS'46914'
p5569
I1
sg856
I1
sS'36569'
p5570
I1
sS'55286'
p5571
I1
sg5215
I1
sS'35002'
p5572
I1
sS'40954'
p5573
I1
sS'44438'
p5574
I1
sg3330
I1
sS'33078'
p5575
I1
sS'44144'
p5576
I1
sS'53105'
p5577
I1
sS'36173'
p5578
I1
stp5579
sS'64.4.2.109'
p5580
(I21
(dp5581
S'1631'
p5582
I1
sS'1647'
p5583
I1
sS'1817'
p5584
I1
sS'1627'
p5585
I1
sS'1554'
p5586
I1
sS'1701'
p5587
I1
sS'1828'
p5588
I1
sS'1642'
p5589
I1
sS'1722'
p5590
I1
sS'1472'
p5591
I1
sS'1678'
p5592
I1
sS'1539'
p5593
I1
sS'1908'
p5594
I1
sS'1453'
p5595
I1
sS'1499'
p5596
I1
sS'1467'
p5597
I1
sS'1747'
p5598
I1
sS'1663'
p5599
I1
sS'1489'
p5600
I1
sS'1926'
p5601
I1
sS'1512'
p5602
I1
stp5603
sS'178.133.119.252'
p5604
(I1
(dp5605
S'1068'
p5606
I1
stp5607
sS'41.240.106.5'
p5608
(I1
(dp5609
S'1977'
p5610
I1
stp5611
sS'217.73.200.221'
p5612
(I4
(dp5613
S'48303'
p5614
I1
sS'48312'
p5615
I1
sS'48306'
p5616
I1
sS'48309'
p5617
I1
stp5618
sS'116.73.89.104'
p5619
(I1
(dp5620
S'1288'
p5621
I1
stp5622
sS'2.21.99.172'
p5623
(I1
(dp5624
S'46638'
p5625
I1
stp5626
sS'60.190.222.152'
p5627
(I1
(dp5628
S'2225'
p5629
I1
stp5630
sS'216.157.130.15'
p5631
(I3
(dp5632
S'1975'
p5633
I1
sS'2145'
p5634
I1
sS'1567'
p5635
I1
stp5636
sS'217.69.134.212'
p5637
(I2
(dp5638
S'35995'
p5639
I1
sg2658
I1
stp5640
sS'89.185.254.155'
p5641
(I55
(dp5642
g2506
I1
sS'38190'
p5643
I1
sS'38191'
p5644
I1
sS'38192'
p5645
I1
sS'38193'
p5646
I1
sS'38194'
p5647
I1
sS'38195'
p5648
I1
sS'38196'
p5649
I1
sS'38197'
p5650
I1
sS'38165'
p5651
I1
sg5398
I1
sS'38182'
p5652
I1
sS'38176'
p5653
I1
sS'38177'
p5654
I1
sS'38174'
p5655
I1
sS'38175'
p5656
I1
sS'38158'
p5657
I1
sS'38173'
p5658
I1
sS'38170'
p5659
I1
sS'38171'
p5660
I1
sS'38154'
p5661
I1
sS'38155'
p5662
I1
sS'38156'
p5663
I1
sS'38131'
p5664
I1
sS'38150'
p5665
I1
sS'38151'
p5666
I1
sS'38152'
p5667
I1
sS'38153'
p5668
I1
sS'38161'
p5669
I1
sS'38163'
p5670
I1
sS'38132'
p5671
I1
sS'38172'
p5672
I1
sS'38189'
p5673
I1
sS'38133'
p5674
I1
sS'38187'
p5675
I1
sS'38186'
p5676
I1
sS'38185'
p5677
I1
sS'38184'
p5678
I1
sS'38183'
p5679
I1
sS'38130'
p5680
I1
sS'38181'
p5681
I1
sS'38169'
p5682
I1
sS'38129'
p5683
I1
sS'38128'
p5684
I1
sS'38166'
p5685
I1
sS'38147'
p5686
I1
sS'38146'
p5687
I1
sS'38145'
p5688
I1
sS'38162'
p5689
I1
sS'38121'
p5690
I1
sS'38149'
p5691
I1
sS'38148'
p5692
I1
sS'38125'
p5693
I1
sS'38168'
p5694
I1
sS'38127'
p5695
I1
stp5696
sS'77.93.216.134'
p5697
(I4
(dp5698
S'53081'
p5699
I1
sS'53080'
p5700
I1
sS'53083'
p5701
I1
sS'53084'
p5702
I1
stp5703
sS'205.188.186.137'
p5704
(I10
(dp5705
S'1546'
p5706
I1
sS'1531'
p5707
I1
sS'1557'
p5708
I1
sS'1528'
p5709
I1
sS'1525'
p5710
I1
sS'1522'
p5711
I1
sS'1560'
p5712
I1
sS'1479'
p5713
I1
sS'1461'
p5714
I1
sS'1543'
p5715
I1
stp5716
sS'160.68.205.231'
p5717
(I5
(dp5718
S'44937'
p5719
I1
sS'44936'
p5720
I1
sS'44939'
p5721
I1
sS'44938'
p5722
I1
sS'40397'
p5723
I1
stp5724
sS'160.68.205.237'
p5725
(I17
(dp5726
S'39636'
p5727
I1
sS'39637'
p5728
I1
sS'39635'
p5729
I1
sS'56538'
p5730
I1
sS'56549'
p5731
I1
sS'39642'
p5732
I1
sS'56539'
p5733
I1
sg2940
I1
sS'56541'
p5734
I1
sS'39639'
p5735
I1
sS'39638'
p5736
I1
sS'39641'
p5737
I1
sS'39640'
p5738
I1
sS'56536'
p5739
I1
sS'56537'
p5740
I1
sS'56540'
p5741
I1
sS'39655'
p5742
I1
stp5743
sS'209.85.148.99'
p5744
(I38
(dp5745
S'35234'
p5746
I1
sS'52790'
p5747
I1
sS'39733'
p5748
I1
sS'39409'
p5749
I1
sS'39408'
p5750
I1
sS'39423'
p5751
I1
sS'34535'
p5752
I1
sS'39719'
p5753
I1
sS'39718'
p5754
I1
sS'39717'
p5755
I1
sS'39716'
p5756
I1
sS'43784'
p5757
I1
sS'37757'
p5758
I1
sS'37756'
p5759
I1
sS'35241'
p5760
I1
sS'43780'
p5761
I1
sS'39382'
p5762
I1
sS'34583'
p5763
I1
sS'43782'
p5764
I1
sg1349
I1
sS'52761'
p5765
I1
sS'34588'
p5766
I1
sS'52769'
p5767
I1
sg1554
I1
sS'39720'
p5768
I1
sS'39721'
p5769
I1
sS'34567'
p5770
I1
sS'39411'
p5771
I1
sS'39391'
p5772
I1
sS'34545'
p5773
I1
sS'39431'
p5774
I1
sS'39419'
p5775
I1
sS'37707'
p5776
I1
sS'43783'
p5777
I1
sS'39704'
p5778
I1
sS'37728'
p5779
I1
sS'37762'
p5780
I1
sS'37724'
p5781
I1
stp5782
sS'74.121.138.200'
p5783
(I5
(dp5784
g4827
I1
sS'41564'
p5785
I1
sS'41565'
p5786
I1
sS'41524'
p5787
I1
sS'41563'
p5788
I1
stp5789
sS'62.168.44.116'
p5790
(I2
(dp5791
S'41898'
p5792
I1
sS'41909'
p5793
I1
stp5794
sS'62.168.44.117'
p5795
(I2
(dp5796
S'42161'
p5797
I1
sS'42171'
p5798
I1
stp5799
sS'111.88.31.68'
p5800
(I1
(dp5801
S'2087'
p5802
I1
stp5803
sS'2.21.103.224'
p5804
(I6
(dp5805
S'45402'
p5806
I1
sS'45406'
p5807
I1
sS'45407'
p5808
I1
sS'45404'
p5809
I1
sS'45405'
p5810
I1
sS'45408'
p5811
I1
stp5812
sS'74.113.233.133'
p5813
(I7
(dp5814
S'46333'
p5815
I1
sS'46332'
p5816
I1
sS'46326'
p5817
I1
sS'46327'
p5818
I1
sS'46334'
p5819
I1
sS'45521'
p5820
I1
sS'45522'
p5821
I1
stp5822
sS'67.195.168.31'
p5823
(I1
(dp5824
S'1272'
p5825
I1
stp5826
sS'61.89.186.155'
p5827
(I1
(dp5828
S'1468'
p5829
I1
stp5830
sS'192.168.88.159'
p5831
(I4
(dp5832
S'53'
p5833
I4
stp5834
sS'182.177.235.90'
p5835
(I1
(dp5836
S'2164'
p5837
I1
stp5838
sS'92.123.64.170'
p5839
(I6
(dp5840
S'44717'
p5841
I1
sS'44689'
p5842
I1
sS'44690'
p5843
I1
sS'36715'
p5844
I1
sS'36716'
p5845
I1
sS'44691'
p5846
I1
stp5847
sS'59.162.127.194'
p5848
(I1
(dp5849
S'1583'
p5850
I1
stp5851
sS'160.68.205.244'
p5852
(I7
(dp5853
S'49475'
p5854
I1
sS'49474'
p5855
I1
sS'49473'
p5856
I1
sS'49472'
p5857
I1
sS'49489'
p5858
I1
sS'49490'
p5859
I1
sS'41112'
p5860
I1
stp5861
sS'60.190.223.75'
p5862
(I7
(dp5863
S'1547'
p5864
I1
sS'1053'
p5865
I1
sS'1429'
p5866
I1
sS'1454'
p5867
I1
sS'1502'
p5868
I1
sS'1473'
p5869
I1
sS'1515'
p5870
I1
stp5871
sS'116.228.139.242'
p5872
(I1
(dp5873
S'1382'
p5874
I1
stp5875
sS'216.34.181.96'
p5876
(I2
(dp5877
S'34224'
p5878
I1
sS'34225'
p5879
I1
stp5880
sS'184.73.160.63'
p5881
(I3
(dp5882
S'60316'
p5883
I1
sg810
I1
sS'60651'
p5884
I1
stp5885
sS'92.123.64.195'
p5886
(I6
(dp5887
g1944
I1
sS'38829'
p5888
I1
sS'38725'
p5889
I1
sS'38724'
p5890
I1
sS'38723'
p5891
I1
sS'38722'
p5892
I1
stp5893
sS'64.4.56.103'
p5894
(I10
(dp5895
S'1551'
p5896
I1
sS'1535'
p5897
I1
sS'1446'
p5898
I1
sS'1409'
p5899
I1
sS'1375'
p5900
I1
sS'1464'
p5901
I1
sS'1388'
p5902
I1
sS'1401'
p5903
I1
sS'1413'
p5904
I1
sS'1417'
p5905
I1
stp5906
sS'205.188.17.129'
p5907
(I1
(dp5908
S'43314'
p5909
I1
stp5910
sS'46.4.36.120'
p5911
(I275
(dp5912
S'2034'
p5913
I1
sS'1780'
p5914
I1
sS'1782'
p5915
I1
sS'1786'
p5916
I1
sS'2223'
p5917
I1
sS'2095'
p5918
I1
sS'1744'
p5919
I1
sS'2097'
p5920
I1
sS'2096'
p5921
I1
sS'2090'
p5922
I1
sS'2093'
p5923
I1
sS'2092'
p5924
I1
sS'2084'
p5925
I1
sS'2099'
p5926
I1
sS'2098'
p5927
I1
sS'1775'
p5928
I1
sS'1948'
p5929
I1
sS'1776'
p5930
I1
sS'1771'
p5931
I1
sS'1942'
p5932
I1
sS'1940'
p5933
I1
sS'1839'
p5934
I1
sS'1946'
p5935
I1
sS'2170'
p5936
I1
sS'2154'
p5937
I1
sS'2155'
p5938
I1
sS'2156'
p5939
I1
sS'2078'
p5940
I1
sS'2019'
p5941
I1
sS'2151'
p5942
I1
sS'2153'
p5943
I1
sS'2015'
p5944
I1
sS'1675'
p5945
I1
sS'2011'
p5946
I1
sS'2010'
p5947
I1
sS'2013'
p5948
I1
sS'2213'
p5949
I1
sS'2031'
p5950
I1
sS'1990'
p5951
I1
sS'1792'
p5952
I1
sS'1791'
p5953
I1
sS'1790'
p5954
I1
sS'1797'
p5955
I1
sS'2123'
p5956
I1
sS'1957'
p5957
I1
sS'1956'
p5958
I1
sS'1952'
p5959
I1
sS'2216'
p5960
I1
sS'1703'
p5961
I1
sS'1829'
p5962
I1
sS'2214'
p5963
I1
sS'1821'
p5964
I1
sS'2207'
p5965
I1
sS'1823'
p5966
I1
sS'2076'
p5967
I1
sS'2068'
p5968
I1
sS'2069'
p5969
I1
sS'2144'
p5970
I1
sS'2143'
p5971
I1
sS'2142'
p5972
I1
sS'2141'
p5973
I1
sS'1668'
p5974
I1
sS'2061'
p5975
I1
sS'2062'
p5976
I1
sS'1664'
p5977
I1
sS'2064'
p5978
I1
sS'2065'
p5979
I1
sS'2149'
p5980
I1
sS'2067'
p5981
I1
sS'2234'
p5982
I1
sS'1589'
p5983
I1
sS'2197'
p5984
I1
sS'1923'
p5985
I1
sS'2147'
p5986
I1
sS'1711'
p5987
I1
sS'2083'
p5988
I1
sS'2195'
p5989
I1
sS'1716'
p5990
I1
sS'2025'
p5991
I1
sS'1851'
p5992
I1
sS'2124'
p5993
I1
sS'2109'
p5994
I1
sS'1857'
p5995
I1
sS'2172'
p5996
I1
sS'2079'
p5997
I1
sS'2171'
p5998
I1
sS'2176'
p5999
I1
sS'2177'
p6000
I1
sS'2174'
p6001
I1
sS'2073'
p6002
I1
sS'1653'
p6003
I1
sS'2071'
p6004
I1
sS'2070'
p6005
I1
sS'2077'
p6006
I1
sS'1657'
p6007
I1
sS'2228'
p6008
I1
sS'2074'
p6009
I1
sS'2233'
p6010
I1
sS'2051'
p6011
I1
sS'2201'
p6012
I1
sS'2127'
p6013
I1
sS'2140'
p6014
I1
sS'2053'
p6015
I1
sS'1932'
p6016
I1
sS'1930'
p6017
I1
sS'1918'
p6018
I1
sS'1936'
p6019
I1
sS'2055'
p6020
I1
sS'2210'
p6021
I1
sS'2046'
p6022
I1
sS'1644'
p6023
I1
sS'2044'
p6024
I1
sS'2045'
p6025
I1
sS'1640'
p6026
I1
sS'2040'
p6027
I1
sS'1726'
p6028
I1
sS'2056'
p6029
I1
sS'1845'
p6030
I1
sS'2049'
p6031
I1
sS'2208'
p6032
I1
sS'2169'
p6033
I1
sS'2209'
p6034
I1
sS'2165'
p6035
I1
sS'2167'
p6036
I1
sS'2166'
p6037
I1
sS'2161'
p6038
I1
sS'2160'
p6039
I1
sS'2163'
p6040
I1
sS'2162'
p6041
I1
sS'2129'
p6042
I1
sS'2235'
p6043
I1
sS'1614'
p6044
I1
sS'2192'
p6045
I1
sS'1872'
p6046
I1
sS'1873'
p6047
I1
sS'2196'
p6048
I1
sS'1909'
p6049
I1
sS'2237'
p6050
I1
sS'2199'
p6051
I1
sS'1905'
p6052
I1
sS'1900'
p6053
I1
sS'1986'
p6054
I1
sS'2050'
p6055
I1
sS'1632'
p6056
I1
sS'2052'
p6057
I1
sS'1982'
p6058
I1
sS'2205'
p6059
I1
sS'2057'
p6060
I1
sS'1637'
p6061
I1
sS'2059'
p6062
I1
sS'2058'
p6063
I1
sS'2202'
p6064
I1
sS'1587'
p6065
I1
sS'1737'
p6066
I1
sS'2119'
p6067
I1
sS'2157'
p6068
I1
sS'2110'
p6069
I1
sS'2150'
p6070
I1
sS'2112'
p6071
I1
sS'2114'
p6072
I1
sS'2115'
p6073
I1
sS'2116'
p6074
I1
sS'2117'
p6075
I1
sS'2121'
p6076
I1
sS'2047'
p6077
I1
sS'2203'
p6078
I1
sS'1863'
p6079
I1
sS'1730'
p6080
I1
sS'2183'
p6081
I1
sS'2182'
p6082
I1
sS'1597'
p6083
I1
sS'1596'
p6084
I1
sS'2187'
p6085
I1
sS'2186'
p6086
I1
sS'2185'
p6087
I1
sS'2111'
p6088
I1
sS'1868'
p6089
I1
sS'2189'
p6090
I1
sS'2188'
p6091
I1
sS'1599'
p6092
I1
sS'1916'
p6093
I1
sS'1623'
p6094
I1
sS'1622'
p6095
I1
sS'2211'
p6096
I1
sS'1620'
p6097
I1
sS'2217'
p6098
I1
sS'1643'
p6099
I1
sS'2215'
p6100
I1
sS'1996'
p6101
I1
sS'2240'
p6102
I1
sS'2219'
p6103
I1
sS'1628'
p6104
I1
sS'2179'
p6105
I1
sS'2181'
p6106
I1
sS'2159'
p6107
I1
sS'2024'
p6108
I1
sS'2082'
p6109
I1
sS'2026'
p6110
I1
sS'2108'
p6111
I1
sS'2020'
p6112
I1
sS'2022'
p6113
I1
sS'2244'
p6114
I1
sS'2103'
p6115
I1
sS'2102'
p6116
I1
sS'2101'
p6117
I1
sS'2028'
p6118
I1
sS'2029'
p6119
I1
sS'2105'
p6120
I1
sS'2106'
p6121
I1
sS'2014'
p6122
I1
sS'2086'
p6123
I1
sS'1972'
p6124
I1
sS'1607'
p6125
I1
sS'1894'
p6126
I1
sS'2236'
p6127
I1
sS'1892'
p6128
I1
sS'2136'
p6129
I1
sS'2137'
p6130
I1
sS'2134'
p6131
I1
sS'2135'
p6132
I1
sS'2132'
p6133
I1
sS'2023'
p6134
I1
sS'2130'
p6135
I1
sS'2229'
p6136
I1
sS'2226'
p6137
I1
sS'2227'
p6138
I1
sS'1966'
p6139
I1
sS'2222'
p6140
I1
sS'1961'
p6141
I1
sS'2138'
p6142
I1
sS'1638'
p6143
I1
sS'2230'
p6144
I1
sS'2035'
p6145
I1
sS'1695'
p6146
I1
sS'2033'
p6147
I1
sS'2032'
p6148
I1
sS'1690'
p6149
I1
sS'2220'
p6150
I1
sS'1756'
p6151
I1
sS'2063'
p6152
I1
sS'2204'
p6153
I1
sS'1751'
p6154
I1
sS'1814'
p6155
I1
sS'2128'
p6156
I1
sS'2148'
p6157
I1
sS'1886'
p6158
I1
sS'1883'
p6159
I1
sS'2008'
p6160
I1
sS'1881'
p6161
I1
sS'1880'
p6162
I1
sS'1807'
p6163
I1
sS'2088'
p6164
I1
sS'2089'
p6165
I1
sS'2125'
p6166
I1
sS'1802'
p6167
I1
sS'1801'
p6168
I1
sS'1978'
p6169
I1
sS'2231'
p6170
I1
sS'1976'
p6171
I1
sS'2080'
p6172
I1
sS'1974'
p6173
I1
sS'1605'
p6174
I1
sS'1604'
p6175
I1
sS'1809'
p6176
I1
sS'2085'
p6177
I1
sS'2002'
p6178
I1
sS'1683'
p6179
I1
sS'2180'
p6180
I1
sS'2006'
p6181
I1
sS'2007'
p6182
I1
sS'1762'
p6183
I1
sS'1760'
p6184
I1
sS'1767'
p6185
I1
sS'2122'
p6186
I1
sS'1590'
p6187
I1
stp6188
sS'163.21.59.10'
p6189
(I1
(dp6190
S'1433'
p6191
I1
stp6192
sS'83.145.197.2'
p6193
(I3
(dp6194
S'46870'
p6195
I1
sS'45506'
p6196
I1
sS'46962'
p6197
I1
stp6198
sS'216.34.181.71'
p6199
(I1
(dp6200
S'56221'
p6201
I1
stp6202
sS'109.201.233.98'
p6203
(I1
(dp6204
S'2178'
p6205
I1
stp6206
sS'75.101.145.196'
p6207
(I1
(dp6208
S'56877'
p6209
I1
stp6210
sS'147.32.86.77'
p6211
(I1
(dp6212
g1822
I1
stp6213
sS'113.36.206.49'
p6214
(I1
(dp6215
S'1513'
p6216
I1
stp6217
sS'76.96.30.116'
p6218
(I1
(dp6219
S'2194'
p6220
I1
stp6221
sS'210.212.164.162'
p6222
(I1
(dp6223
S'1072'
p6224
I1
stp6225
sS'93.177.158.45'
p6226
(I1
(dp6227
S'2139'
p6228
I1
stp6229
sS'218.241.209.6'
p6230
(I1
(dp6231
S'2066'
p6232
I1
stp6233
sS'64.12.73.134'
p6234
(I1
(dp6235
g4738
I1
stp6236
sS'64.12.73.133'
p6237
(I2
(dp6238
S'37770'
p6239
I1
sS'50836'
p6240
I1
stp6241
sS'41.223.57.74'
p6242
(I1
(dp6243
S'2212'
p6244
I1
stp6245
sS'202.164.57.158'
p6246
(I1
(dp6247
S'1931'
p6248
I1
stp6249
sS'200.206.215.4'
p6250
(I1
(dp6251
S'2152'
p6252
I1
stp6253
sS'91.209.196.169'
p6254
(I1
(dp6255
S'47537'
p6256
I1
stp6257
sS'117.204.74.3'
p6258
(I1
(dp6259
S'1343'
p6260
I1
stp6261
sS'120.63.27.163'
p6262
(I1
(dp6263
S'1624'
p6264
I1
stp6265
sS'69.171.242.13'
p6266
(I8
(dp6267
S'53221'
p6268
I1
sS'53220'
p6269
I1
sS'50606'
p6270
I1
sS'50607'
p6271
I1
sS'50604'
p6272
I1
sS'50605'
p6273
I1
sS'50603'
p6274
I1
sS'50608'
p6275
I1
stp6276
sS'174.37.59.242'
p6277
(I1
(dp6278
S'52296'
p6279
I1
stp6280
sS'93.188.130.53'
p6281
(I1
(dp6282
S'50004'
p6283
I1
stp6284
sS'117.197.22.127'
p6285
(I1
(dp6286
S'1070'
p6287
I1
stp6288
sS'61.17.129.5'
p6289
(I1
(dp6290
S'1766'
p6291
I1
stp6292
sS'217.69.134.241'
p6293
(I1
(dp6294
g2619
I1
stp6295
sS'61.178.56.36'
p6296
(I1
(dp6297
S'1271'
p6298
I1
stp6299
sS'74.125.235.159'
p6300
(I2
(dp6301
S'53319'
p6302
I1
sS'53318'
p6303
I1
stp6304
sS'92.123.64.178'
p6305
(I6
(dp6306
S'43478'
p6307
I1
sS'43505'
p6308
I1
sS'43504'
p6309
I1
sS'43501'
p6310
I1
sS'43503'
p6311
I1
sS'43502'
p6312
I1
stp6313
sS'64.12.168.40'
p6314
(I2
(dp6315
S'2043'
p6316
I1
sS'2039'
p6317
I1
stp6318
sS'69.63.181.12'
p6319
(I2
(dp6320
S'40049'
p6321
I1
sS'40050'
p6322
I1
stp6323
sS'88.156.111.111'
p6324
(I1
(dp6325
S'2158'
p6326
I1
stp6327
sS'95.172.94.12'
p6328
(I1
(dp6329
S'44202'
p6330
I1
stp6331
sS'65.55.40.23'
p6332
(I16
(dp6333
S'1349'
p6334
I1
sS'1358'
p6335
I1
sS'1339'
p6336
I1
sS'1402'
p6337
I1
sS'1336'
p6338
I1
sS'1355'
p6339
I1
sS'1405'
p6340
I1
sS'1372'
p6341
I1
sS'1362'
p6342
I1
sS'1346'
p6343
I1
sS'1385'
p6344
I1
sS'1378'
p6345
I1
sS'1394'
p6346
I1
sS'1381'
p6347
I1
sS'1391'
p6348
I1
sS'1365'
p6349
I1
stp6350
sS'8.20.213.43'
p6351
(I1
(dp6352
S'56131'
p6353
I1
stp6354
sS'94.245.116.13'
p6355
(I1
(dp6356
S'1725'
p6357
I1
stp6358
sS'144.188.20.66'
p6359
(I3
(dp6360
S'34327'
p6361
I1
sS'34336'
p6362
I1
sS'34337'
p6363
I1
stp6364
sS'86.101.54.123'
p6365
(I1
(dp6366
S'1279'
p6367
I1
stp6368
sS'62.84.143.246'
p6369
(I13
(dp6370
S'45655'
p6371
I1
sg791
I1
sg1405
I1
sS'44595'
p6372
I1
sS'44594'
p6373
I1
sS'44593'
p6374
I1
sS'44592'
p6375
I1
sg1222
I1
sS'44691'
p6376
I1
sS'44591'
p6377
I1
sS'44603'
p6378
I1
sS'45636'
p6379
I1
sS'44689'
p6380
I1
stp6381
sS'2.21.98.110'
p6382
(I28
(dp6383
S'39565'
p6384
I1
sS'44870'
p6385
I1
sS'44871'
p6386
I1
sS'44872'
p6387
I1
sS'44873'
p6388
I1
sS'44896'
p6389
I1
sS'44894'
p6390
I1
sg3308
I1
sS'44892'
p6391
I1
sS'44893'
p6392
I1
sS'39566'
p6393
I1
sS'39564'
p6394
I1
sS'44837'
p6395
I1
sS'39562'
p6396
I1
sS'39563'
p6397
I1
sS'39561'
p6398
I1
sS'45077'
p6399
I1
sS'45076'
p6400
I1
sS'45079'
p6401
I1
sS'45078'
p6402
I1
sS'44869'
p6403
I1
sS'51036'
p6404
I1
sS'51037'
p6405
I1
sS'51034'
p6406
I1
sS'51035'
p6407
I1
sS'51038'
p6408
I1
sS'51039'
p6409
I1
sS'45080'
p6410
I1
stp6411
sS'147.32.86.186'
p6412
(I1
(dp6413
g5833
I1
stp6414
sS'94.63.150.63'
p6415
(I7
(dp6416
S'1269'
p6417
I1
sS'1216'
p6418
I1
sS'1058'
p6419
I1
sS'1060'
p6420
I1
sS'1274'
p6421
I1
sS'1061'
p6422
I1
sS'1113'
p6423
I1
stp6424
sS'62.168.44.115'
p6425
(I5
(dp6426
S'39207'
p6427
I1
sS'40953'
p6428
I1
sS'39203'
p6429
I1
sS'40955'
p6430
I1
sS'40954'
p6431
I1
stp6432
sS'183.83.68.80'
p6433
(I1
(dp6434
S'2200'
p6435
I1
stp6436
sS'72.233.44.59'
p6437
(I3
(dp6438
S'50440'
p6439
I1
sS'50441'
p6440
I1
sS'50442'
p6441
I1
stp6442
sS'198.32.64.12'
p6443
(I3
(dp6444
S'1595'
p6445
I1
sS'1588'
p6446
I1
sS'1603'
p6447
I1
stp6448
sS'64.12.68.227'
p6449
(I1
(dp6450
S'51307'
p6451
I1
stp6452
sS'66.220.158.32'
p6453
(I6
(dp6454
S'54828'
p6455
I1
sS'54829'
p6456
I1
sS'54825'
p6457
I1
sS'54831'
p6458
I1
sS'54830'
p6459
I1
sS'54832'
p6460
I1
stp6461
sS'74.126.24.86'
p6462
(I2
(dp6463
S'44069'
p6464
I1
sS'44068'
p6465
I1
stp6466
sS'74.125.232.235'
p6467
(I1
(dp6468
S'53807'
p6469
I1
stp6470
sS'74.125.232.234'
p6471
(I3
(dp6472
S'52072'
p6473
I1
sS'52025'
p6474
I1
sS'52026'
p6475
I1
stp6476
s.