(dp0
S'74.125.39.125'
p1
(I2
(dp2
S'43527'
p3
I1
sS'42881'
p4
I1
stp5
sS'64.12.73.133'
p6
(I2
(dp7
S'33845'
p8
I1
sS'51421'
p9
I1
stp10
sS'195.24.233.55'
p11
(I30
(dp12
S'48114'
p13
I1
sS'48110'
p14
I1
sS'48118'
p15
I1
sS'48131'
p16
I1
sS'57623'
p17
I1
sS'56816'
p18
I1
sS'48135'
p19
I1
sS'37243'
p20
I1
sS'37248'
p21
I1
sS'37262'
p22
I1
sS'57636'
p23
I1
sS'57632'
p24
I1
sS'37225'
p25
I1
sS'56824'
p26
I1
sS'48106'
p27
I1
sS'37235'
p28
I1
sS'48161'
p29
I1
sS'48123'
p30
I1
sS'56804'
p31
I1
sS'48127'
p32
I1
sS'56800'
p33
I1
sS'37253'
p34
I1
sS'56796'
p35
I1
sS'37257'
p36
I1
sS'57645'
p37
I1
sS'37239'
p38
I1
sS'57641'
p39
I1
sS'57628'
p40
I1
sS'37266'
p41
I1
sS'48191'
p42
I1
stp43
sS'64.12.73.134'
p44
(I1
(dp45
S'43869'
p46
I1
stp47
sS'209.85.149.132'
p48
(I7
(dp49
S'59186'
p50
I1
sS'59187'
p51
I1
sS'59182'
p52
I1
sS'59190'
p53
I1
sS'59188'
p54
I1
sS'59189'
p55
I1
sS'59191'
p56
I1
stp57
sS'205.188.11.14'
p58
(I1
(dp59
S'54939'
p60
I1
stp61
sS'65.55.56.40'
p62
(I3
(dp63
S'123'
p64
I3
stp65
sS'209.85.149.116'
p66
(I2
(dp67
S'52599'
p68
I1
sS'52810'
p69
I1
stp70
sS'209.85.149.117'
p71
(I1
(dp72
S'56728'
p73
I1
stp74
sS'209.85.148.104'
p75
(I10
(dp76
S'60088'
p77
I1
sS'60077'
p78
I1
sS'49190'
p79
I1
sS'34404'
p80
I1
sS'49191'
p81
I1
sS'43371'
p82
I1
sS'49187'
p83
I1
sS'34378'
p84
I1
sS'34361'
p85
I1
sS'43357'
p86
I1
stp87
sS'209.85.148.105'
p88
(I26
(dp89
S'39691'
p90
I1
sS'39692'
p91
I1
sS'44790'
p92
I1
sS'58247'
p93
I1
sS'58244'
p94
I1
sS'58245'
p95
I1
sS'50206'
p96
I1
sS'44764'
p97
I1
sS'58514'
p98
I1
sS'60627'
p99
I1
sS'58534'
p100
I1
sS'60643'
p101
I1
sS'44818'
p102
I1
sS'33464'
p103
I1
sS'33467'
p104
I1
sS'33466'
p105
I1
sS'39689'
p106
I1
sS'50214'
p107
I1
sS'50194'
p108
I1
sS'50198'
p109
I1
sS'58526'
p110
I1
sS'44841'
p111
I1
sS'44809'
p112
I1
sS'50178'
p113
I1
sS'44755'
p114
I1
sS'50176'
p115
I1
stp116
sS'209.85.148.106'
p117
(I27
(dp118
S'58099'
p119
I1
sS'42933'
p120
I1
sS'58132'
p121
I1
sS'56770'
p122
I1
sS'56771'
p123
I1
sS'56773'
p124
I1
sS'48056'
p125
I1
sS'58096'
p126
I1
sS'48052'
p127
I1
sS'58154'
p128
I1
sS'48058'
p129
I1
sS'58151'
p130
I1
sS'50668'
p131
I1
sS'50669'
p132
I1
sS'48072'
p133
I1
sS'42948'
p134
I1
sS'35535'
p135
I1
sS'35512'
p136
I1
sS'48065'
p137
I1
sS'35532'
p138
I1
sS'35518'
p139
I1
sS'58097'
p140
I1
sS'58150'
p141
I1
sS'50057'
p142
I1
sS'50653'
p143
I1
sS'50657'
p144
I1
sS'50656'
p145
I1
stp146
sS'209.85.148.103'
p147
(I20
(dp148
S'42716'
p149
I1
sS'34409'
p150
I1
sS'51786'
p151
I1
sS'44596'
p152
I1
sS'34404'
p153
I1
sS'44583'
p154
I1
sS'51778'
p155
I1
sS'42727'
p156
I1
sS'34392'
p157
I1
sS'44598'
p158
I1
sS'42729'
p159
I1
sS'42724'
p160
I1
sS'42723'
p161
I1
sS'34381'
p162
I1
sS'34461'
p163
I1
sS'51772'
p164
I1
sS'51792'
p165
I1
sS'34397'
p166
I1
sS'34387'
p167
I1
sS'51770'
p168
I1
stp169
sS'195.113.232.88'
p170
(I1
(dp171
S'58709'
p172
I1
stp173
sS'83.167.225.189'
p174
(I21
(dp175
S'55889'
p176
I1
sS'55888'
p177
I1
sS'55883'
p178
I1
sS'55882'
p179
I1
sS'55881'
p180
I1
sS'55880'
p181
I1
sS'55887'
p182
I1
sS'55886'
p183
I1
sS'55885'
p184
I1
sS'55884'
p185
I1
sS'55894'
p186
I1
sS'55878'
p187
I1
sS'55879'
p188
I1
sS'55890'
p189
I1
sS'55891'
p190
I1
sS'55892'
p191
I1
sS'55873'
p192
I1
sS'55876'
p193
I1
sS'55877'
p194
I1
sS'55874'
p195
I1
sS'55875'
p196
I1
stp197
sS'147.32.192.34'
p198
(I1
(dp199
S'36171'
p200
I1
stp201
sS'74.125.232.200'
p202
(I3
(dp203
S'1027'
p204
I1
sS'53824'
p205
I1
sS'47008'
p206
I1
stp207
sS'50.17.203.200'
p208
(I1
(dp209
S'35520'
p210
I1
stp211
sS'74.125.232.202'
p212
(I5
(dp213
S'51745'
p214
I1
sS'51746'
p215
I1
sS'54120'
p216
I1
sS'56994'
p217
I1
sS'51736'
p218
I1
stp219
sS'209.85.148.147'
p220
(I17
(dp221
S'38072'
p222
I1
sS'33585'
p223
I1
sS'33611'
p224
I1
sS'33596'
p225
I1
sS'37573'
p226
I1
sS'33602'
p227
I1
sS'37592'
p228
I1
sS'38084'
p229
I1
sS'38066'
p230
I1
sS'38056'
p231
I1
sS'38059'
p232
I1
sS'37583'
p233
I1
sS'37581'
p234
I1
sS'37595'
p235
I1
sS'37569'
p236
I1
sS'37584'
p237
I1
sS'33578'
p238
I1
stp239
sS'74.125.232.223'
p240
(I3
(dp241
S'40354'
p242
I1
sS'40353'
p243
I1
sS'40352'
p244
I1
stp245
sS'147.32.96.69'
p246
(I2573
(dp247
S'53732'
p248
I1
sS'53740'
p249
I1
sS'53730'
p250
I1
sS'0x0008'
p251
I2569
sS'57824'
p252
I1
stp253
sS'74.125.232.201'
p254
(I1
(dp255
g204
I1
stp256
sS'205.188.10.203'
p257
(I1
(dp258
S'53072'
p259
I1
stp260
sS'147.32.80.9'
p261
(I407
(dp262
S'54608'
p263
I1
sS'45740'
p264
I1
sS'59724'
p265
I1
sS'44127'
p266
I1
sg82
I1
sS'48682'
p267
I1
sS'54593'
p268
I1
sS'60859'
p269
I1
sS'60601'
p270
I1
sS'36666'
p271
I1
sS'54696'
p272
I1
sS'60609'
p273
I1
sS'54634'
p274
I1
sS'54214'
p275
I1
sS'54736'
p276
I1
sS'59092'
p277
I1
sS'33887'
p278
I1
sS'33259'
p279
I1
sS'38046'
p280
I1
sS'54280'
p281
I1
sS'39118'
p282
I1
sS'50361'
p283
I1
sS'49900'
p284
I1
sS'37187'
p285
I1
sS'52899'
p286
I1
sS'55223'
p287
I1
sS'37964'
p288
I1
sS'52009'
p289
I1
sS'59381'
p290
I1
sS'47895'
p291
I1
sS'43985'
p292
I1
sS'52095'
p293
I1
sS'47949'
p294
I1
sS'47948'
p295
I1
sS'58551'
p296
I1
sS'37131'
p297
I1
sS'34247'
p298
I1
sS'43973'
p299
I1
sS'57753'
p300
I1
sS'47646'
p301
I1
sS'47313'
p302
I2
sS'56907'
p303
I1
sS'52482'
p304
I1
sS'52489'
p305
I1
sS'42637'
p306
I1
sS'45681'
p307
I1
sS'45437'
p308
I1
sS'47226'
p309
I1
sS'34188'
p310
I1
sS'42220'
p311
I1
sS'53148'
p312
I1
sS'58855'
p313
I1
sS'53609'
p314
I1
sS'37412'
p315
I1
sS'52734'
p316
I1
sS'52442'
p317
I1
sS'37550'
p318
I1
sS'50129'
p319
I1
sS'35691'
p320
I1
sS'39388'
p321
I1
sS'54778'
p322
I1
sS'59615'
p323
I2
sS'35478'
p324
I1
sS'49947'
p325
I1
sS'49946'
p326
I1
sS'48418'
p327
I1
sS'35316'
p328
I1
sS'49785'
p329
I2
sS'37709'
p330
I1
sS'35585'
p331
I1
sS'58454'
p332
I1
sS'51722'
p333
I1
sS'51723'
p334
I1
sS'56650'
p335
I1
sS'44335'
p336
I1
sS'35405'
p337
I1
sS'58326'
p338
I1
sS'41608'
p339
I1
sS'39091'
p340
I1
sS'46165'
p341
I1
sS'57807'
p342
I1
sS'43546'
p343
I1
sS'43835'
p344
I1
sS'57748'
p345
I1
sS'34010'
p346
I1
sS'53170'
p347
I1
sS'33827'
p348
I1
sS'40647'
p349
I1
sS'41863'
p350
I1
sS'47591'
p351
I1
sS'57254'
p352
I1
sS'57155'
p353
I1
sS'47915'
p354
I1
sS'54458'
p355
I1
sS'36879'
p356
I1
sS'60699'
p357
I1
sS'45626'
p358
I1
sS'35075'
p359
I1
sS'60325'
p360
I1
sS'57430'
p361
I1
sS'42764'
p362
I1
sS'50796'
p363
I1
sS'53044'
p364
I1
sS'45240'
p365
I1
sS'53959'
p366
I1
sS'41894'
p367
I1
sS'36590'
p368
I1
sS'49352'
p369
I1
sS'35633'
p370
I1
sS'39071'
p371
I1
sS'54685'
p372
I1
sS'37353'
p373
I1
sS'44208'
p374
I1
sS'41467'
p375
I1
sS'55244'
p376
I1
sS'55246'
p377
I1
sS'55932'
p378
I1
sS'59018'
p379
I1
sS'40736'
p380
I1
sS'59660'
p381
I2
sS'57921'
p382
I1
sS'51194'
p383
I1
sS'52889'
p384
I1
sS'51612'
p385
I1
sS'59444'
p386
I1
sS'47559'
p387
I1
sS'56046'
p388
I1
sS'52401'
p389
I1
sS'58567'
p390
I1
sS'42342'
p391
I1
sS'43681'
p392
I1
sS'51100'
p393
I1
sS'38780'
p394
I1
sS'45177'
p395
I1
sS'57405'
p396
I1
sS'50855'
p397
I1
sS'60154'
p398
I1
sS'52531'
p399
I1
sS'52061'
p400
I1
sS'50328'
p401
I1
sS'41854'
p402
I1
sS'44973'
p403
I1
sS'43633'
p404
I1
sS'53136'
p405
I1
sS'35113'
p406
I1
sS'57060'
p407
I1
sS'42807'
p408
I1
sS'33448'
p409
I1
sS'35368'
p410
I1
sS'48652'
p411
I1
sS'53341'
p412
I1
sS'45300'
p413
I1
sS'49319'
p414
I1
sS'38455'
p415
I1
sS'48869'
p416
I1
sS'60715'
p417
I1
sS'35742'
p418
I1
sS'53862'
p419
I1
sS'41227'
p420
I1
sS'50521'
p421
I1
sS'44535'
p422
I1
sS'34369'
p423
I1
sS'49952'
p424
I1
sS'34867'
p425
I1
sS'43312'
p426
I1
sS'51242'
p427
I1
sS'35244'
p428
I1
sS'37063'
p429
I1
sS'43895'
p430
I1
sS'55841'
p431
I1
sS'56316'
p432
I1
sS'56862'
p433
I1
sS'58445'
p434
I1
sS'59134'
p435
I1
sS'49927'
p436
I1
sS'46112'
p437
I1
sS'45959'
p438
I1
sS'51663'
p439
I1
sS'37947'
p440
I1
sS'33588'
p441
I1
sS'51664'
p442
I1
sS'40776'
p443
I1
sS'51885'
p444
I1
sS'40078'
p445
I1
sS'51929'
p446
I1
sS'34008'
p447
I1
sS'46335'
p448
I1
sS'57527'
p449
I1
sS'46336'
p450
I1
sS'41958'
p451
I1
sS'33832'
p452
I1
sS'33830'
p453
I1
sS'34396'
p454
I1
sS'42379'
p455
I1
sS'59506'
p456
I1
sS'50714'
p457
I1
sS'38296'
p458
I1
sS'40250'
p459
I1
sS'46245'
p460
I1
sS'45186'
p461
I1
sS'50480'
p462
I1
sS'57356'
p463
I1
sS'34486'
p464
I1
sS'60752'
p465
I1
sS'36194'
p466
I1
sS'37505'
p467
I1
sS'51443'
p468
I1
sS'54836'
p469
I1
sS'38160'
p470
I1
sS'35027'
p471
I1
sS'36747'
p472
I1
sS'52148'
p473
I1
sS'33491'
p474
I1
sS'48501'
p475
I1
sS'58873'
p476
I1
sS'43214'
p477
I1
sS'49365'
p478
I1
sS'46804'
p479
I1
sS'41081'
p480
I1
sS'56422'
p481
I1
sS'33393'
p482
I1
sS'37430'
p483
I1
sS'41310'
p484
I1
sS'41311'
p485
I1
sS'58804'
p486
I1
sS'55743'
p487
I1
sS'32815'
p488
I1
sS'51915'
p489
I1
sS'41109'
p490
I1
sS'33781'
p491
I1
sS'39601'
p492
I1
sS'37232'
p493
I1
sS'57914'
p494
I1
sS'43455'
p495
I1
sS'50615'
p496
I1
sS'36632'
p497
I1
sS'37488'
p498
I1
sS'47482'
p499
I1
sS'60529'
p500
I1
sS'41748'
p501
I1
sS'44080'
p502
I1
sS'51821'
p503
I1
sS'54150'
p504
I1
sS'50209'
p505
I1
sS'56280'
p506
I1
sS'48485'
p507
I1
sS'41899'
p508
I1
sS'37159'
p509
I1
sS'40723'
p510
I1
sS'43524'
p511
I1
sS'46364'
p512
I1
sS'53191'
p513
I1
sS'59749'
p514
I1
sS'60069'
p515
I1
sS'50448'
p516
I1
sS'35893'
p517
I1
sS'36250'
p518
I1
sS'56076'
p519
I1
sS'52188'
p520
I1
sS'38081'
p521
I1
sS'36365'
p522
I1
sS'38126'
p523
I1
sS'49892'
p524
I1
sS'39288'
p525
I1
sS'36898'
p526
I1
sS'58053'
p527
I1
sS'34685'
p528
I1
sS'49390'
p529
I1
sS'53971'
p530
I1
sS'50389'
p531
I1
sS'38337'
p532
I1
sS'59732'
p533
I1
sS'35494'
p534
I1
sS'55601'
p535
I1
sS'44527'
p536
I1
sS'58607'
p537
I1
sS'43083'
p538
I1
sS'48533'
p539
I1
sS'51310'
p540
I1
sS'39885'
p541
I1
sS'37372'
p542
I1
sS'60962'
p543
I1
sS'43245'
p544
I1
sS'58934'
p545
I1
sS'33756'
p546
I1
sS'44143'
p547
I1
sS'51315'
p548
I8
sS'43882'
p549
I1
sS'59086'
p550
I1
sS'35422'
p551
I1
sS'41668'
p552
I1
sS'53403'
p553
I1
sS'40090'
p554
I1
sS'57820'
p555
I1
sS'54491'
p556
I1
sS'49930'
p557
I8
sS'58737'
p558
I1
sS'51178'
p559
I1
sS'40947'
p560
I1
sS'52018'
p561
I1
sS'56027'
p562
I1
sS'51877'
p563
I1
sS'33807'
p564
I1
sS'39377'
p565
I1
sS'37850'
p566
I1
sS'52384'
p567
I1
sS'42046'
p568
I1
sS'34107'
p569
I1
sS'45213'
p570
I1
sS'50874'
p571
I1
sS'53700'
p572
I1
sS'40436'
p573
I1
sS'60038'
p574
I1
sS'43891'
p575
I1
sS'42748'
p576
I1
sS'42215'
p577
I1
sS'52721'
p578
I1
sS'49270'
p579
I1
sS'47015'
p580
I1
sS'42822'
p581
I1
sS'32807'
p582
I1
sS'38532'
p583
I1
sS'37035'
p584
I1
sS'33384'
p585
I1
sS'52472'
p586
I1
sS'39392'
p587
I1
sS'41506'
p588
I1
sS'58342'
p589
I1
sS'32768'
p590
I1
sS'55269'
p591
I1
sS'56166'
p592
I1
sS'41112'
p593
I1
sS'48155'
p594
I1
sS'37241'
p595
I1
sS'40907'
p596
I1
sS'57906'
p597
I1
sS'56119'
p598
I1
sS'51228'
p599
I1
sS'50601'
p600
I1
sS'56443'
p601
I1
sS'40371'
p602
I1
sS'33510'
p603
I1
sS'59939'
p604
I1
sS'40275'
p605
I1
sS'55869'
p606
I1
sS'53989'
p607
I1
sS'39534'
p608
I1
sS'53980'
p609
I1
sS'33689'
p610
I1
sS'50230'
p611
I1
sS'1025'
p612
I12
sS'46077'
p613
I1
sS'38008'
p614
I1
sg37
I1
sS'51643'
p615
I1
sS'43843'
p616
I1
sS'43437'
p617
I1
sS'40695'
p618
I1
sS'60787'
p619
I1
sS'53185'
p620
I1
sS'53187'
p621
I1
sS'52695'
p622
I1
sS'44956'
p623
I1
sS'40672'
p624
I1
sS'41975'
p625
I1
sS'39328'
p626
I1
sS'46288'
p627
I1
sS'41877'
p628
I1
sS'39440'
p629
I1
sS'39442'
p630
I1
sS'35305'
p631
I1
sS'52560'
p632
I1
sS'48808'
p633
I1
sS'39212'
p634
I1
sS'36401'
p635
I1
sS'38226'
p636
I1
sS'48338'
p637
I1
sS'35941'
p638
I1
stp639
sS'78.40.125.4'
p640
(I1
(dp641
S'1037'
p642
I1
stp643
sS'74.125.232.203'
p644
(I7
(dp645
S'35799'
p646
I1
sS'50808'
p647
I1
sS'50803'
p648
I1
sS'50804'
p649
I1
sS'50805'
p650
I1
sS'50806'
p651
I1
sS'50807'
p652
I1
stp653
sS'64.12.68.227'
p654
(I1
(dp655
S'57264'
p656
I1
stp657
sS'147.32.86.122'
p658
(I1
(dp659
S'53'
p660
I1
stp661
sS'205.188.17.129'
p662
(I1
(dp663
S'57238'
p664
I1
stp665
sS'209.85.149.101'
p666
(I1
(dp667
S'37879'
p668
I1
stp669
sS'209.85.149.100'
p670
(I1
(dp671
S'59011'
p672
I1
stp673
sS'199.7.50.72'
p674
(I3
(dp675
S'51313'
p676
I1
sS'51310'
p677
I1
sS'51314'
p678
I1
stp679
sS'205.188.8.253'
p680
(I1
(dp681
S'58187'
p682
I1
stp683
sS'195.113.232.97'
p684
(I1
(dp685
S'50755'
p686
I1
stp687
sS'209.85.148.99'
p688
(I18
(dp689
S'55103'
p690
I1
sS'57680'
p691
I1
sS'43725'
p692
I1
sS'43751'
p693
I1
sS'49208'
p694
I1
sS'55089'
p695
I1
sS'43787'
p696
I1
sS'56133'
p697
I1
sS'56122'
p698
I1
sS'56150'
p699
I1
sS'49199'
p700
I1
sS'56127'
p701
I1
sS'49229'
p702
I1
sS'56129'
p703
I1
sS'49213'
p704
I1
sS'56112'
p705
I1
sS'49235'
p706
I1
sS'49192'
p707
I1
stp708
sS'216.155.130.130'
p709
(I1
(dp710
S'1038'
p711
I1
stp712
sS'74.125.232.199'
p713
(I2
(dp714
g204
I1
sS'51404'
p715
I1
stp716
sS'63.245.209.93'
p717
(I1
(dp718
g365
I1
stp719
sS'199.7.51.190'
p720
(I1
(dp721
S'38417'
p722
I1
stp723
sS'38.229.70.20'
p724
(I1
(dp725
g711
I1
stp726
sS'74.125.232.216'
p727
(I1
(dp728
S'51641'
p729
I1
stp730
sS'64.12.73.165'
p731
(I1
(dp732
S'46354'
p733
I1
stp734
s.