(dp0
S'88.86.102.50'
p1
(I1
(dp2
S'34347'
p3
I1
stp4
sS'74.125.232.198'
p5
(I3
(dp6
S'47651'
p7
I1
sS'47653'
p8
I1
sS'47652'
p9
I1
stp10
sS'66.150.117.25'
p11
(I3
(dp12
S'48632'
p13
I1
sS'48633'
p14
I1
sS'48635'
p15
I1
stp16
sS'195.92.178.64'
p17
(I1
(dp18
S'36802'
p19
I1
stp20
sS'65.55.56.40'
p21
(I1
(dp22
S'123'
p23
I1
stp24
sS'74.125.232.192'
p25
(I2
(dp26
S'48507'
p27
I1
sS'36274'
p28
I1
stp29
sS'74.125.232.193'
p30
(I13
(dp31
S'53888'
p32
I1
sS'53881'
p33
I1
sS'53880'
p34
I1
sS'53883'
p35
I1
sS'53882'
p36
I1
sS'53885'
p37
I1
sS'53879'
p38
I1
sS'53887'
p39
I1
sS'53886'
p40
I1
sS'53878'
p41
I1
sS'53877'
p42
I1
sS'59643'
p43
I1
sS'53884'
p44
I1
stp45
sS'74.125.232.194'
p46
(I4
(dp47
S'50383'
p48
I1
sS'48596'
p49
I1
sS'50385'
p50
I1
sS'50384'
p51
I1
stp52
sS'74.125.232.195'
p53
(I7
(dp54
S'45583'
p55
I1
sS'45587'
p56
I1
sS'45586'
p57
I1
sS'45585'
p58
I1
sS'45584'
p59
I1
sS'45588'
p60
I1
sS'38994'
p61
I1
stp62
sS'74.125.235.104'
p63
(I2
(dp64
S'42758'
p65
I1
sS'42757'
p66
I1
stp67
sS'74.125.232.204'
p68
(I17
(dp69
S'35932'
p70
I1
sS'35915'
p71
I1
sS'35914'
p72
I1
sS'35913'
p73
I1
sS'35912'
p74
I1
sS'33269'
p75
I1
sS'33270'
p76
I1
sS'33272'
p77
I1
sS'33273'
p78
I1
sS'49674'
p79
I1
sS'43141'
p80
I1
sS'35919'
p81
I1
sS'35933'
p82
I1
sS'35936'
p83
I1
sS'35935'
p84
I1
sS'35934'
p85
I1
sS'53509'
p86
I1
stp87
sS'74.125.232.205'
p88
(I3
(dp89
S'36584'
p90
I1
sS'42676'
p91
I1
sS'38543'
p92
I1
stp93
sS'74.125.232.207'
p94
(I4
(dp95
S'51644'
p96
I1
sS'45424'
p97
I1
sS'45425'
p98
I1
sS'45426'
p99
I1
stp100
sS'74.125.232.200'
p101
(I2
(dp102
S'54619'
p103
I1
sS'52559'
p104
I1
stp105
sS'50.17.203.200'
p106
(I1
(dp107
S'48729'
p108
I1
stp109
sS'74.125.232.202'
p110
(I4
(dp111
S'39445'
p112
I1
sS'39444'
p113
I1
sS'50394'
p114
I1
sS'40410'
p115
I1
stp116
sS'74.125.232.203'
p117
(I8
(dp118
S'37546'
p119
I1
sS'52648'
p120
I1
sS'42590'
p121
I1
sS'42593'
p122
I1
sS'42592'
p123
I1
sS'42595'
p124
I1
sS'42594'
p125
I1
sS'42596'
p126
I1
stp127
sS'75.101.154.43'
p128
(I4
(dp129
S'43552'
p130
I1
sS'43570'
p131
I1
sS'43572'
p132
I1
sS'43571'
p133
I1
stp134
sS'77.91.248.30'
p135
(I2
(dp136
S'58946'
p137
I1
sS'58984'
p138
I1
stp139
sS'209.85.148.147'
p140
(I23
(dp141
S'57687'
p142
I1
sS'57686'
p143
I1
sS'40414'
p144
I1
sS'40413'
p145
I1
sS'54071'
p146
I1
sS'54070'
p147
I1
sS'54073'
p148
I1
sS'40437'
p149
I1
sS'34942'
p150
I1
sS'34944'
p151
I1
sS'36643'
p152
I1
sS'54072'
p153
I1
sS'35112'
p154
I1
sS'54041'
p155
I1
sS'39864'
p156
I1
sS'34914'
p157
I1
sS'54069'
p158
I1
sS'35138'
p159
I1
sS'40428'
p160
I1
sS'54064'
p161
I1
sS'46079'
p162
I1
sS'36692'
p163
I1
sS'35120'
p164
I1
stp165
sS'61.135.189.50'
p166
(I1
(dp167
S'1046'
p168
I1
stp169
sS'67.212.77.13'
p170
(I1
(dp171
S'43524'
p172
I1
stp173
sS'67.212.77.12'
p174
(I2
(dp175
S'50051'
p176
I1
sS'50007'
p177
I1
stp178
sS'195.113.232.96'
p179
(I1
(dp180
S'54449'
p181
I1
stp182
sS'209.85.148.99'
p183
(I31
(dp184
S'49736'
p185
I1
sS'41056'
p186
I1
sS'35166'
p187
I1
sS'33089'
p188
I1
sS'39544'
p189
I1
sS'39545'
p190
I1
sS'39546'
p191
I1
sS'39541'
p192
I1
sS'39542'
p193
I1
sS'39543'
p194
I1
sS'33076'
p195
I1
sS'35153'
p196
I1
sS'35324'
p197
I1
sS'49724'
p198
I1
sS'41116'
p199
I1
sS'46751'
p200
I1
sS'35346'
p201
I1
sS'33099'
p202
I1
sS'35175'
p203
I1
sS'41062'
p204
I1
sS'35154'
p205
I1
sS'49709'
p206
I1
sS'49697'
p207
I1
sS'49703'
p208
I1
sS'49702'
p209
I1
sS'41064'
p210
I1
sS'41114'
p211
I1
sS'41035'
p212
I1
sS'35141'
p213
I1
sS'35331'
p214
I1
sS'35142'
p215
I1
stp216
sS'195.113.232.90'
p217
(I6
(dp218
S'58640'
p219
I1
sS'58641'
p220
I1
sS'58639'
p221
I1
sS'58638'
p222
I1
sS'58637'
p223
I1
sS'58636'
p224
I1
stp225
sS'195.113.232.91'
p226
(I6
(dp227
S'35892'
p228
I1
sS'35893'
p229
I1
sS'35890'
p230
I1
sS'35891'
p231
I1
sS'35889'
p232
I1
sS'35888'
p233
I1
stp234
sS'209.85.148.96'
p235
(I1
(dp236
S'46584'
p237
I1
stp238
sS'195.113.232.98'
p239
(I1
(dp240
S'56757'
p241
I1
stp242
sS'74.125.232.213'
p243
(I1
(dp244
S'33679'
p245
I1
stp246
sS'147.32.80.13'
p247
(I1
(dp248
g23
I1
stp249
sS'220.181.111.147'
p250
(I1
(dp251
S'1047'
p252
I1
stp253
sS'199.59.148.10'
p254
(I2
(dp255
S'34349'
p256
I1
sS'34348'
p257
I1
stp258
sS'195.24.233.55'
p259
(I42
(dp260
S'37556'
p261
I1
sS'51904'
p262
I1
sS'51900'
p263
I1
sS'51538'
p264
I1
sS'37537'
p265
I1
sS'57727'
p266
I1
sS'37533'
p267
I1
sS'51895'
p268
I1
sS'60465'
p269
I1
sS'60461'
p270
I1
sS'57739'
p271
I1
sS'57719'
p272
I1
sS'51572'
p273
I1
sS'57735'
p274
I1
sS'60448'
p275
I1
sS'60469'
p276
I1
sS'57731'
p277
I1
sS'51613'
p278
I1
sS'57757'
p279
I1
sS'51617'
p280
I1
sS'57753'
p281
I1
sS'60490'
p282
I1
sS'60494'
p283
I1
sS'51913'
p284
I1
sS'37565'
p285
I1
sS'51567'
p286
I1
sS'37560'
p287
I1
sS'51562'
p288
I1
sS'51590'
p289
I1
sS'60485'
p290
I1
sS'37569'
p291
I1
sS'60473'
p292
I1
sS'51621'
p293
I1
sS'57723'
p294
I1
sS'60452'
p295
I1
sS'37541'
p296
I1
sS'37545'
p297
I1
sS'51608'
p298
I1
sS'60457'
p299
I1
sS'51889'
p300
I1
sS'57749'
p301
I1
sS'51586'
p302
I1
stp303
sS'87.248.203.253'
p304
(I6
(dp305
S'36556'
p306
I1
sS'36557'
p307
I1
sS'36558'
p308
I1
sS'36559'
p309
I1
sS'36561'
p310
I1
sS'36560'
p311
I1
stp312
sS'61.135.188.157'
p313
(I3
(dp314
S'1043'
p315
I1
sS'1048'
p316
I1
sS'1053'
p317
I1
stp318
sS'209.85.148.104'
p319
(I19
(dp320
S'60965'
p321
I1
sS'36308'
p322
I1
sS'40221'
p323
I1
sS'40206'
p324
I1
sS'40205'
p325
I1
sS'54945'
p326
I1
sS'60974'
p327
I1
sS'60962'
p328
I1
sS'60931'
p329
I1
sS'60930'
p330
I1
sS'43202'
p331
I1
sS'43203'
p332
I1
sS'40219'
p333
I1
sS'60952'
p334
I1
sS'43207'
p335
I1
sS'43189'
p336
I1
sS'48318'
p337
I1
sS'40248'
p338
I1
sS'43230'
p339
I1
stp340
sS'209.85.148.105'
p341
(I56
(dp342
S'59744'
p343
I1
sS'59745'
p344
I1
sS'58652'
p345
I1
sS'58655'
p346
I1
sS'58654'
p347
I1
sS'59743'
p348
I1
sS'54092'
p349
I1
sS'54091'
p350
I1
sS'51949'
p351
I1
sS'47565'
p352
I1
sS'44121'
p353
I1
sS'48714'
p354
I1
sS'48717'
p355
I1
sS'48716'
p356
I1
sS'51951'
p357
I1
sS'55876'
p358
I1
sS'55877'
p359
I1
sS'54118'
p360
I1
sS'36660'
p361
I1
sS'36661'
p362
I1
sS'50308'
p363
I1
sS'47575'
p364
I1
sS'50306'
p365
I1
sS'47574'
p366
I1
sS'54085'
p367
I1
sS'55874'
p368
I1
sS'47572'
p369
I1
sS'47573'
p370
I1
sS'47571'
p371
I1
sS'51592'
p372
I1
sS'44153'
p373
I1
sS'44150'
p374
I1
sS'44119'
p375
I1
sS'51608'
p376
I1
sS'51599'
p377
I1
sS'36599'
p378
I1
sS'54123'
p379
I1
sS'54121'
p380
I1
sS'44095'
p381
I1
sS'50311'
p382
I1
sS'50312'
p383
I1
sS'55902'
p384
I1
sS'54128'
p385
I1
sS'44099'
p386
I1
sS'51627'
p387
I1
sS'51626'
p388
I1
sS'51611'
p389
I1
sS'36658'
p390
I1
sS'55896'
p391
I1
sS'51589'
p392
I1
sS'51600'
p393
I1
sS'51948'
p394
I1
sS'44143'
p395
I1
sS'59747'
p396
I1
sS'51607'
p397
I1
sS'54100'
p398
I1
stp399
sS'209.85.148.106'
p400
(I38
(dp401
S'44005'
p402
I1
sS'44475'
p403
I1
sS'44476'
p404
I1
sS'44477'
p405
I1
sS'54092'
p406
I1
sS'44000'
p407
I1
sS'54058'
p408
I1
sS'54110'
p409
I1
sS'35620'
p410
I1
sS'32952'
p411
I1
sS'32951'
p412
I1
sS'32954'
p413
I1
sS'43075'
p414
I1
sS'36904'
p415
I1
sS'43073'
p416
I1
sS'43072'
p417
I1
sS'39948'
p418
I1
sS'35631'
p419
I1
sS'36940'
p420
I1
sS'39940'
p421
I1
sS'35619'
p422
I1
sS'44013'
p423
I1
sS'44010'
p424
I1
sS'39947'
p425
I1
sS'43998'
p426
I1
sS'49378'
p427
I1
sS'35633'
p428
I1
sS'49377'
p429
I1
sS'54144'
p430
I1
sg385
I1
sS'39952'
p431
I1
sS'36912'
p432
I1
sS'49380'
p433
I1
sS'44490'
p434
I1
sS'36932'
p435
I1
sS'56104'
p436
I1
sS'56101'
p437
I1
sS'56100'
p438
I1
stp439
sS'195.113.232.80'
p440
(I2
(dp441
S'60640'
p442
I1
sS'60639'
p443
I1
stp444
sS'123.126.51.64'
p445
(I1
(dp446
S'1067'
p447
I1
stp448
sS'123.126.51.65'
p449
(I1
(dp450
S'1065'
p451
I1
stp452
sS'213.171.218.11'
p453
(I1
(dp454
S'45566'
p455
I1
stp456
sS'195.113.232.89'
p457
(I1
(dp458
S'51508'
p459
I1
stp460
sS'147.32.192.34'
p461
(I1
(dp462
S'44881'
p463
I1
stp464
sS'91.189.94.12'
p465
(I6
(dp466
S'39042'
p467
I1
sS'39038'
p468
I1
sS'39039'
p469
I1
sS'39041'
p470
I1
sS'39040'
p471
I1
sS'39037'
p472
I1
stp473
sS'74.125.232.241'
p474
(I1
(dp475
S'50650'
p476
I1
stp477
sS'74.125.232.242'
p478
(I1
(dp479
S'35568'
p480
I1
stp481
sS'147.32.80.9'
p482
(I1197
(dp483
S'36586'
p484
I1
sS'55349'
p485
I1
sS'36583'
p486
I1
sS'44189'
p487
I1
sS'53487'
p488
I1
sS'54210'
p489
I1
sS'44692'
p490
I1
sS'60985'
p491
I1
sS'35784'
p492
I1
sS'57943'
p493
I1
sS'34712'
p494
I1
sS'45808'
p495
I1
sS'53562'
p496
I1
sS'35623'
p497
I1
sS'38614'
p498
I1
sS'48688'
p499
I1
sS'54694'
p500
I1
sS'39891'
p501
I1
sS'60850'
p502
I1
sS'43271'
p503
I1
sS'55726'
p504
I1
sS'51262'
p505
I1
sS'39265'
p506
I1
sS'33749'
p507
I1
sS'45733'
p508
I1
sS'55767'
p509
I1
sS'53241'
p510
I1
sS'44235'
p511
I1
sS'45739'
p512
I1
sS'39269'
p513
I1
sS'41471'
p514
I1
sS'54267'
p515
I1
sS'51052'
p516
I1
sS'55532'
p517
I1
sS'54042'
p518
I1
sS'56580'
p519
I1
sS'54732'
p520
I1
sS'51283'
p521
I1
sS'41129'
p522
I1
sS'35535'
p523
I1
sS'58705'
p524
I1
sS'48749'
p525
I1
sS'42515'
p526
I1
sS'44196'
p527
I1
sS'35031'
p528
I1
sS'35435'
p529
I1
sS'41550'
p530
I1
sS'48747'
p531
I1
sS'43473'
p532
I1
sS'42711'
p533
I1
sS'40385'
p534
I1
sS'40838'
p535
I1
sS'50772'
p536
I1
sS'46436'
p537
I1
sS'41150'
p538
I1
sS'56120'
p539
I1
sg222
I1
sS'40016'
p540
I1
sS'42966'
p541
I1
sS'55850'
p542
I1
sS'56129'
p543
I1
sS'48298'
p544
I1
sS'37962'
p545
I2
sS'56535'
p546
I1
sS'52894'
p547
I1
sS'58904'
p548
I1
sS'59381'
p549
I1
sS'57297'
p550
I1
sS'46095'
p551
I1
sS'46724'
p552
I1
sS'42686'
p553
I1
sS'53201'
p554
I1
sS'52005'
p555
I1
sS'50264'
p556
I1
sS'49078'
p557
I1
sS'45453'
p558
I1
sS'57334'
p559
I1
sS'59473'
p560
I1
sS'36208'
p561
I1
sS'54137'
p562
I1
sS'54130'
p563
I3
sS'54038'
p564
I1
sS'50352'
p565
I1
sS'33771'
p566
I1
sS'42428'
p567
I1
sS'39903'
p568
I1
sS'59855'
p569
I1
sS'42422'
p570
I1
sS'43053'
p571
I2
sS'33754'
p572
I1
sS'51117'
p573
I1
sS'40846'
p574
I1
sS'34240'
p575
I1
sS'56331'
p576
I1
sS'43113'
p577
I1
sS'34325'
p578
I1
sS'34249'
p579
I1
sS'46004'
p580
I1
sS'49605'
p581
I1
sS'34503'
p582
I1
sS'60092'
p583
I1
sS'42908'
p584
I1
sS'52131'
p585
I1
sS'42906'
p586
I1
sS'46540'
p587
I1
sS'47762'
p588
I1
sS'35052'
p589
I1
sS'49762'
p590
I1
sS'47094'
p591
I1
sS'51500'
p592
I1
sS'44864'
p593
I1
sS'46797'
p594
I1
sS'57189'
p595
I1
sS'50494'
p596
I1
sS'51505'
p597
I1
sS'37521'
p598
I1
sS'56928'
p599
I1
sS'37525'
p600
I1
sS'40447'
p601
I1
sS'47085'
p602
I1
sS'36724'
p603
I1
sS'36726'
p604
I1
sS'42639'
p605
I1
sS'39316'
p606
I1
sS'39311'
p607
I1
sS'59374'
p608
I1
sS'59377'
p609
I1
sS'57052'
p610
I1
sS'57053'
p611
I2
sS'35771'
p612
I1
sS'38146'
p613
I1
sS'47388'
p614
I1
sS'36415'
p615
I1
sS'47384'
p616
I1
sS'50297'
p617
I1
sS'47167'
p618
I1
sS'49461'
p619
I1
sS'39696'
p620
I1
sS'39690'
p621
I1
sS'58172'
p622
I1
sS'48565'
p623
I1
sS'45702'
p624
I1
sS'35276'
p625
I1
sS'33473'
p626
I1
sS'47364'
p627
I1
sS'43490'
p628
I1
sS'47008'
p629
I1
sS'37411'
p630
I1
sS'47153'
p631
I1
sS'40980'
p632
I1
sS'40982'
p633
I1
sS'52730'
p634
I1
sS'46864'
p635
I1
sS'48645'
p636
I1
sS'48396'
p637
I1
sS'55016'
p638
I1
sS'36532'
p639
I1
sS'48859'
p640
I1
sS'35267'
p641
I1
sS'55019'
p642
I1
sS'50984'
p643
I1
sS'36844'
p644
I1
sS'57375'
p645
I1
sS'46897'
p646
I1
sS'41998'
p647
I1
sS'41999'
p648
I1
sS'53326'
p649
I1
sS'59925'
p650
I1
sS'54813'
p651
I1
sS'35876'
p652
I1
sS'55156'
p653
I1
sS'41334'
p654
I1
sS'58833'
p655
I1
sS'54815'
p656
I1
sS'57378'
p657
I1
sS'54672'
p658
I1
sS'54677'
p659
I1
sS'44018'
p660
I1
sS'48020'
p661
I1
sS'37384'
p662
I1
sS'37387'
p663
I1
sS'44540'
p664
I1
sS'33603'
p665
I1
sS'46194'
p666
I1
sS'49945'
p667
I1
sS'52913'
p668
I1
sS'57879'
p669
I1
sS'48412'
p670
I1
sS'58214'
p671
I1
sS'52340'
p672
I1
sS'57096'
p673
I1
sS'44496'
p674
I1
sS'37705'
p675
I1
sS'56575'
p676
I1
sS'33289'
p677
I1
sS'46020'
p678
I1
sS'45060'
p679
I1
sS'45061'
p680
I1
sS'44160'
p681
I1
sS'41427'
p682
I1
sS'55656'
p683
I1
sS'41421'
p684
I1
sS'41289'
p685
I1
sS'41423'
p686
I1
sS'56473'
p687
I1
sS'37311'
p688
I1
sS'37316'
p689
I1
sS'40111'
p690
I1
sS'37314'
p691
I1
sS'59537'
p692
I1
sS'57788'
p693
I1
sS'41764'
p694
I1
sS'51803'
p695
I1
sS'33503'
p696
I1
sS'56879'
p697
I1
sS'56654'
p698
I1
sS'46191'
p699
I1
sS'47467'
p700
I1
sS'47464'
p701
I1
sS'58599'
p702
I1
sS'56873'
p703
I1
sS'40361'
p704
I1
sS'57784'
p705
I1
sS'40363'
p706
I1
sS'55972'
p707
I1
sS'48730'
p708
I1
sS'33690'
p709
I1
sS'55974'
p710
I1
sS'50220'
p711
I1
sS'53719'
p712
I1
sS'38967'
p713
I1
sS'53337'
p714
I1
sS'38963'
p715
I1
sS'56780'
p716
I1
sS'43543'
p717
I1
sS'43544'
p718
I1
sS'33237'
p719
I1
sS'46168'
p720
I1
sS'42543'
p721
I1
sS'40809'
p722
I1
sS'43939'
p723
I1
sS'56273'
p724
I1
sS'37678'
p725
I1
sS'55874'
p726
I1
sS'54082'
p727
I1
sS'43780'
p728
I1
sS'50015'
p729
I1
sS'43390'
p730
I1
sS'34205'
p731
I1
sS'54871'
p732
I1
sS'56004'
p733
I1
sS'60044'
p734
I1
sS'46348'
p735
I1
sS'46409'
p736
I1
sS'49641'
p737
I1
sS'34013'
p738
I1
sS'52078'
p739
I1
sS'53170'
p740
I1
sS'40642'
p741
I1
sS'44944'
p742
I1
sS'56393'
p743
I2
sS'39356'
p744
I1
sS'60164'
p745
I1
sS'56972'
p746
I1
sS'36379'
p747
I1
sS'48278'
p748
I1
sS'47594'
p749
I1
sS'45946'
p750
I1
sS'39597'
p751
I1
sS'41495'
p752
I1
sS'52319'
p753
I1
sS'47697'
p754
I1
sS'50708'
p755
I1
sS'36271'
p756
I1
sS'50250'
p757
I1
sS'38109'
p758
I1
sS'47501'
p759
I1
sS'38369'
p760
I1
sS'43320'
p761
I1
sS'34370'
p762
I1
sS'43642'
p763
I1
sS'57624'
p764
I1
sS'57259'
p765
I1
sS'55173'
p766
I1
sS'39790'
p767
I1
sS'50894'
p768
I1
sS'42281'
p769
I1
sS'34651'
p770
I1
sS'54311'
p771
I1
sS'55182'
p772
I1
sS'34794'
p773
I1
sS'34795'
p774
I1
sS'36871'
p775
I1
sS'54455'
p776
I1
sS'47286'
p777
I1
sS'34521'
p778
I1
sS'39187'
p779
I1
sS'49639'
p780
I2
sS'38810'
p781
I1
sS'34493'
p782
I1
sS'37518'
p783
I1
sS'55277'
p784
I1
sS'34557'
p785
I1
sS'38819'
p786
I1
sS'53090'
p787
I1
sS'39810'
p788
I1
sS'58342'
p789
I1
sS'51579'
p790
I1
sS'35387'
p791
I1
sS'33133'
p792
I1
sS'54086'
p793
I1
sS'35938'
p794
I1
sS'53070'
p795
I1
sS'52683'
p796
I1
sS'34158'
p797
I1
sS'50799'
p798
I1
sS'42603'
p799
I1
sS'50829'
p800
I1
sS'50417'
p801
I1
sS'48325'
p802
I1
sS'47296'
p803
I1
sS'53770'
p804
I1
sS'58624'
p805
I1
sS'45757'
p806
I1
sS'33485'
p807
I1
sS'35200'
p808
I1
sS'36593'
p809
I1
sS'33729'
p810
I1
sS'59716'
p811
I1
sS'41000'
p812
I1
sS'33725'
p813
I1
sS'55335'
p814
I1
sS'57937'
p815
I1
sS'36598'
p816
I1
sS'33093'
p817
I1
sS'49820'
p818
I1
sS'49821'
p819
I1
sS'46830'
p820
I1
sS'49982'
p821
I1
sS'36983'
p822
I1
sS'35637'
p823
I1
sS'34830'
p824
I1
sS'51278'
p825
I1
sS'32940'
p826
I1
sS'41093'
p827
I1
sS'42619'
p828
I1
sS'44610'
p829
I1
sS'37428'
p830
I1
sS'37052'
p831
I1
sS'39704'
p832
I1
sS'56430'
p833
I1
sS'39179'
p834
I1
sS'35847'
p835
I2
sS'36050'
p836
I1
sS'42881'
p837
I1
sS'32829'
p838
I1
sS'44755'
p839
I1
sS'36110'
p840
I1
sS'39174'
p841
I1
sS'36503'
p842
I1
sS'56228'
p843
I1
sS'55934'
p844
I1
sS'56598'
p845
I1
sS'33266'
p846
I1
sS'55931'
p847
I1
sS'56597'
p848
I1
sS'56222'
p849
I1
sS'55248'
p850
I1
sS'56220'
p851
I1
sS'33545'
p852
I1
sS'58369'
p853
I1
sS'42507'
p854
I1
sS'35520'
p855
I1
sS'41520'
p856
I1
sS'47621'
p857
I1
sS'35444'
p858
I1
sS'58494'
p859
I1
sS'49855'
p860
I1
sS'43461'
p861
I1
sS'57923'
p862
I1
sS'51194'
p863
I1
sS'43469'
p864
I1
sS'38671'
p865
I1
sS'37738'
p866
I1
sS'44502'
p867
I1
sS'58397'
p868
I1
sS'41907'
p869
I1
sS'33310'
p870
I1
sS'55238'
p871
I1
sS'52881'
p872
I1
sS'40927'
p873
I1
sS'40925'
p874
I1
sS'56827'
p875
I1
sS'56820'
p876
I1
sS'42979'
p877
I2
sS'56823'
p878
I1
sS'46713'
p879
I1
sS'60129'
p880
I1
sS'60085'
p881
I1
sS'54027'
p882
I1
sS'60539'
p883
I1
sS'51993'
p884
I1
sS'59564'
p885
I1
sS'41736'
p886
I1
sS'50353'
p887
I1
sS'45138'
p888
I2
sS'42021'
p889
I1
sS'43361'
p890
I2
sS'42025'
p891
I1
sS'46399'
p892
I1
sS'34829'
p893
I1
sS'39552'
p894
I1
sS'52088'
p895
I1
sS'42430'
p896
I1
sS'52312'
p897
I1
sS'56342'
p898
I1
sS'40326'
p899
I1
sS'46155'
p900
I1
sS'43517'
p901
I1
sS'47429'
p902
I1
sS'34335'
p903
I1
sS'47815'
p904
I1
sS'59406'
p905
I1
sS'43367'
p906
I1
sS'39854'
p907
I1
sS'35187'
p908
I1
sS'53044'
p909
I1
sS'46276'
p910
I1
sS'52108'
p911
I1
sS'49774'
p912
I1
sS'46271'
p913
I1
sS'49776'
p914
I1
sS'60613'
p915
I1
sS'52539'
p916
I1
sS'46788'
p917
I1
sS'51333'
p918
I1
sS'52532'
p919
I1
sS'54583'
p920
I1
sS'49570'
p921
I1
sS'38584'
p922
I1
sS'60562'
p923
I1
sS'60167'
p924
I1
sS'42232'
p925
I1
sS'39171'
p926
I1
sS'59361'
p927
I1
sS'52798'
p928
I1
sS'42482'
p929
I1
sS'47253'
p930
I1
sS'42729'
p931
I1
sS'59701'
p932
I1
sS'39181'
p933
I1
sS'47393'
p934
I1
sS'53036'
p935
I1
sS'45718'
p936
I1
sS'44177'
p937
I1
sS'58107'
p938
I1
sS'46293'
p939
I1
sS'33703'
p940
I2
sS'45716'
p941
I1
sS'48220'
p942
I1
sS'42809'
p943
I1
sS'48222'
p944
I1
sS'55033'
p945
I1
sS'37462'
p946
I1
sS'46976'
p947
I1
sS'58066'
p948
I1
sS'49707'
p949
I1
sS'58065'
p950
I1
sS'41181'
p951
I1
sS'49702'
p952
I1
sS'56967'
p953
I1
sS'54807'
p954
I1
sS'50135'
p955
I1
sS'53292'
p956
I1
sS'32865'
p957
I1
sS'37544'
p958
I1
sS'44655'
p959
I1
sS'49381'
p960
I1
sS'53725'
p961
I1
sS'51840'
p962
I2
sS'41227'
p963
I1
sS'52809'
p964
I1
sS'48251'
p965
I1
sS'36933'
p966
I1
sS'55142'
p967
I1
sS'60263'
p968
I1
sS'55140'
p969
I1
sS'45007'
p970
I1
sS'59746'
p971
I1
sS'48033'
p972
I1
sS'55765'
p973
I1
sS'33349'
p974
I1
sS'41172'
p975
I1
sS'40170'
p976
I1
sS'54662'
p977
I1
sS'50702'
p978
I1
sS'35641'
p979
I1
sS'53661'
p980
I1
sS'42261'
p981
I1
sS'49956'
p982
I1
sS'35644'
p983
I1
sS'51849'
p984
I1
sS'50659'
p985
I1
sS'39678'
p986
I1
sS'49795'
p987
I1
sS'58196'
p988
I1
sS'47055'
p989
I1
sS'53624'
p990
I1
sS'36162'
p991
I1
sS'36161'
p992
I1
sS'58933'
p993
I1
sS'39122'
p994
I1
sS'33764'
p995
I1
sS'40102'
p996
I1
sS'57787'
p997
I1
sS'50620'
p998
I1
sS'36647'
p999
I1
sS'54571'
p1000
I1
sS'52280'
p1001
I1
sS'55012'
p1002
I1
sS'52284'
p1003
I1
sS'56860'
p1004
I1
sS'59950'
p1005
I1
sS'52360'
p1006
I1
sS'35102'
p1007
I1
sS'59957'
p1008
I1
sS'55848'
p1009
I1
sS'53100'
p1010
I1
sS'38026'
p1011
I1
sS'58443'
p1012
I1
sS'60378'
p1013
I1
sS'58331'
p1014
I1
sS'59133'
p1015
I1
sS'55967'
p1016
I1
sS'48721'
p1017
I1
sS'35418'
p1018
I1
sS'46059'
p1019
I1
sS'42579'
p1020
I1
sS'49926'
p1021
I1
sS'37168'
p1022
I1
sS'43558'
p1023
I1
sS'60624'
p1024
I1
sS'45083'
p1025
I1
sS'51663'
p1026
I1
sS'40076'
p1027
I1
sS'33992'
p1028
I1
sS'59471'
p1029
I1
sS'37517'
p1030
I1
sS'37761'
p1031
I1
sS'33586'
p1032
I1
sS'55569'
p1033
I1
sS'49050'
p1034
I1
sS'34895'
p1035
I1
sS'43414'
p1036
I1
sS'56032'
p1037
I1
sS'44358'
p1038
I1
sS'57522'
p1039
I1
sS'57521'
p1040
I1
sS'53161'
p1041
I1
sS'59554'
p1042
I1
sS'34654'
p1043
I1
sS'39346'
p1044
I1
sS'51860'
p1045
I1
sS'44951'
p1046
I1
sS'40792'
p1047
I1
sS'41819'
p1048
I1
sS'49730'
p1049
I1
sS'52743'
p1050
I1
sS'39580'
p1051
I1
sS'39469'
p1052
I1
sS'47730'
p1053
I1
sS'42379'
p1054
I1
sS'45436'
p1055
I1
sS'56682'
p1056
I1
sS'53311'
p1057
I1
sS'46456'
p1058
I1
sS'47432'
p1059
I1
sS'56830'
p1060
I1
sS'47494'
p1061
I1
sS'57141'
p1062
I1
sS'55702'
p1063
I1
sS'43170'
p1064
I1
sS'37118'
p1065
I1
sS'1040'
p1066
I2
sS'48618'
p1067
I1
sS'1025'
p1068
I19
sS'42292'
p1069
I1
sS'46240'
p1070
I1
sS'57450'
p1071
I3
sS'45231'
p1072
I1
sS'45225'
p1073
I1
sS'53711'
p1074
I1
sS'35736'
p1075
I1
sS'46522'
p1076
I1
sS'46938'
p1077
I1
sS'57984'
p1078
I1
sS'60024'
p1079
I1
sS'49585'
p1080
I1
sS'58991'
p1081
I1
sS'60710'
p1082
I1
sS'48942'
p1083
I1
sS'38801'
p1084
I1
sS'38558'
p1085
I1
sS'48825'
p1086
I1
sS'49620'
p1087
I1
sS'55064'
p1088
I1
sS'38419'
p1089
I1
sS'55103'
p1090
I1
sS'38365'
p1091
I1
sS'38364'
p1092
I1
sS'60591'
p1093
I1
sS'53820'
p1094
I1
sS'56920'
p1095
I1
sS'38413'
p1096
I1
sS'56924'
p1097
I1
sS'56927'
p1098
I1
sS'42192'
p1099
I1
sS'38165'
p1100
I1
sS'48811'
p1101
I1
sS'42208'
p1102
I1
sS'38163'
p1103
I1
sS'50818'
p1104
I1
sS'46239'
p1105
I1
sS'35025'
p1106
I1
sS'42973'
p1107
I1
sS'46623'
p1108
I1
sS'50667'
p1109
I1
sS'45762'
p1110
I1
sS'35357'
p1111
I1
sS'45827'
p1112
I1
sS'45767'
p1113
I1
sS'32889'
p1114
I1
sS'55268'
p1115
I1
sS'58975'
p1116
I1
sS'48091'
p1117
I1
sS'32880'
p1118
I1
sS'44262'
p1119
I1
sS'45293'
p1120
I1
sS'42994'
p1121
I1
sS'47024'
p1122
I1
sS'42991'
p1123
I1
sS'43214'
p1124
I1
sS'39731'
p1125
I1
sS'52644'
p1126
I1
sS'36276'
p1127
I1
sS'49447'
p1128
I1
sS'37840'
p1129
I1
sS'39738'
p1130
I1
sg412
I1
sS'37025'
p1131
I1
sS'46265'
p1132
I1
sS'33013'
p1133
I1
sS'49699'
p1134
I1
sS'56197'
p1135
I1
sS'38528'
p1136
I1
sS'44587'
p1137
I1
sS'35323'
p1138
I1
sS'55424'
p1139
I1
sS'42101'
p1140
I1
sS'36044'
p1141
I1
sS'36514'
p1142
I1
sS'55699'
p1143
I1
sS'39167'
p1144
I1
sS'54521'
p1145
I1
sS'35963'
p1146
I1
sS'54307'
p1147
I1
sS'48762'
p1148
I1
sS'44565'
p1149
I1
sS'60334'
p1150
I1
sS'55251'
p1151
I1
sS'51916'
p1152
I1
sS'32777'
p1153
I1
sS'48166'
p1154
I1
sS'35512'
p1155
I1
sS'38704'
p1156
I1
sS'53686'
p1157
I1
sS'58278'
p1158
I1
sS'41536'
p1159
I1
sS'58667'
p1160
I1
sS'58272'
p1161
I1
sS'52937'
p1162
I1
sS'49965'
p1163
I1
sS'56692'
p1164
I1
sS'57747'
p1165
I1
sS'55632'
p1166
I1
sS'48926'
p1167
I1
sS'44064'
p1168
I1
sS'51212'
p1169
I1
sS'59450'
p1170
I1
sS'59904'
p1171
I1
sS'59456'
p1172
I1
sS'40618'
p1173
I1
sS'34354'
p1174
I1
sS'56994'
p1175
I1
sS'56412'
p1176
I1
sS'34036'
p1177
I1
sS'58572'
p1178
I1
sS'54017'
p1179
I2
sS'44080'
p1180
I1
sS'54015'
p1181
I1
sS'33974'
p1182
I1
sS'54152'
p1183
I1
sS'54153'
p1184
I1
sS'39424'
p1185
I1
sS'55815'
p1186
I1
sS'55813'
p1187
I1
sS'45967'
p1188
I1
sS'40297'
p1189
I1
sS'37580'
p1190
I1
sS'42034'
p1191
I2
sS'40293'
p1192
I1
sS'42533'
p1193
I1
sS'38017'
p1194
I1
sS'35169'
p1195
I1
sS'45968'
p1196
I1
sS'44278'
p1197
I1
sS'35485'
p1198
I1
sS'40726'
p1199
I1
sS'33573'
p1200
I1
sS'40722'
p1201
I1
sS'40723'
p1202
I1
sS'46411'
p1203
I1
sS'37153'
p1204
I1
sS'52988'
p1205
I1
sS'37154'
p1206
I1
sS'59992'
p1207
I1
sS'33183'
p1208
I1
sS'36463'
p1209
I1
sS'42398'
p1210
I1
sS'45495'
p1211
I1
sS'35173'
p1212
I1
sS'45496'
p1213
I1
sS'60413'
p1214
I1
sS'36399'
p1215
I1
sS'60063'
p1216
I1
sS'45009'
p1217
I1
sS'51676'
p1218
I1
sS'40503'
p1219
I1
sS'53811'
p1220
I1
sS'59191'
p1221
I1
sS'59059'
p1222
I1
sS'57437'
p1223
I1
sS'50726'
p1224
I1
sS'50442'
p1225
I1
sS'54604'
p1226
I1
sS'45542'
p1227
I1
sS'47240'
p1228
I1
sS'45896'
p1229
I1
sS'49062'
p1230
I1
sS'43624'
p1231
I1
sS'57071'
p1232
I1
sS'57072'
p1233
I1
sS'43762'
p1234
I1
sS'46709'
p1235
I1
sS'42089'
p1236
I1
sS'43623'
p1237
I1
sS'41281'
p1238
I1
sS'60431'
p1239
I2
sS'57303'
p1240
I1
sS'49899'
p1241
I2
sS'48628'
p1242
I1
sS'58118'
p1243
I1
sS'58961'
p1244
I1
sS'41364'
p1245
I1
sS'46685'
p1246
I1
sS'34577'
p1247
I1
sS'47068'
p1248
I1
sS'50246'
p1249
I1
sS'52754'
p1250
I1
sS'38569'
p1251
I1
sS'50535'
p1252
I1
sS'36002'
p1253
I1
sS'54872'
p1254
I1
sS'36004'
p1255
I1
sS'33116'
p1256
I1
sS'38561'
p1257
I1
sS'60706'
p1258
I1
sS'60707'
p1259
I1
sS'33054'
p1260
I1
sS'48970'
p1261
I1
sS'38567'
p1262
I1
sS'37868'
p1263
I1
sS'59094'
p1264
I1
sS'45263'
p1265
I1
sS'50840'
p1266
I1
sS'38230'
p1267
I1
sS'34682'
p1268
I1
sS'49506'
p1269
I1
sS'36798'
p1270
I1
sS'53691'
p1271
I1
sS'44958'
p1272
I1
sS'35816'
p1273
I1
sS'40417'
p1274
I1
sS'55175'
p1275
I1
sS'57505'
p1276
I1
sS'56489'
p1277
I1
sS'59735'
p1278
I1
sS'45036'
p1279
I1
sS'48432'
p1280
I1
sS'57493'
p1281
I1
sS'56482'
p1282
I1
sS'58783'
p1283
I1
sS'56480'
p1284
I1
sS'45038'
p1285
I1
sS'58782'
p1286
I1
sS'53676'
p1287
I1
sS'47117'
p1288
I1
sS'56491'
p1289
I1
sS'42251'
p1290
I1
sS'47112'
p1291
I1
sS'39642'
p1292
I1
sS'34703'
p1293
I1
sS'43080'
p1294
I2
sS'34952'
p1295
I1
sS'40899'
p1296
I1
sS'35650'
p1297
I1
sS'34956'
p1298
I2
sS'51310'
p1299
I1
sS'51700'
p1300
I1
sS'55280'
p1301
I1
sS'38148'
p1302
I1
sg328
I1
sS'55638'
p1303
I1
sS'52870'
p1304
I1
sS'42690'
p1305
I1
sS'49804'
p1306
I1
sS'45727'
p1307
I1
sS'41443'
p1308
I1
sS'36076'
p1309
I1
sS'41447'
p1310
I1
sS'48880'
p1311
I1
sS'54275'
p1312
I1
sS'39118'
p1313
I1
sS'33752'
p1314
I1
sS'39054'
p1315
I1
sS'54270'
p1316
I1
sS'33937'
p1317
I2
sS'43881'
p1318
I1
sS'33935'
p1319
I1
sS'33529'
p1320
I1
sS'43963'
p1321
I1
sS'56633'
p1322
I1
sS'60563'
p1323
I1
sS'44355'
p1324
I1
sS'59129'
p1325
I1
sS'59945'
p1326
I1
sS'58303'
p1327
I1
sS'40099'
p1328
I1
sS'48283'
p1329
I1
sS'37759'
p1330
I1
sS'59620'
p1331
I1
sS'47135'
p1332
I1
sS'38059'
p1333
I1
sS'48931'
p1334
I1
sS'36676'
p1335
I1
sS'49341'
p1336
I1
sS'59642'
p1337
I1
sS'52424'
p1338
I1
sS'51175'
p1339
I1
sS'43407'
p1340
I1
sS'34929'
p1341
I1
sS'59258'
p1342
I1
sS'37195'
p1343
I1
sS'57736'
p1344
I1
sS'37805'
p1345
I1
sS'58731'
p1346
I1
sS'45925'
p1347
I1
sS'54240'
p1348
I1
sS'49939'
p1349
I1
sS'51898'
p1350
I1
sS'32802'
p1351
I1
sS'34889'
p1352
I1
sS'37209'
p1353
I1
sS'33987'
p1354
I1
sS'33985'
p1355
I1
sS'43816'
p1356
I1
sS'43815'
p1357
I1
sS'51893'
p1358
I1
sS'51670'
p1359
I1
sS'49738'
p1360
I1
sS'41148'
p1361
I1
sS'40234'
p1362
I1
sS'45849'
p1363
I1
sS'56028'
p1364
I1
sS'51651'
p1365
I1
sS'48512'
p1366
I1
sS'44247'
p1367
I1
sS'39942'
p1368
I1
sS'56067'
p1369
I1
sS'46327'
p1370
I1
sS'56023'
p1371
I1
sS'54123'
p1372
I1
sS'36210'
p1373
I1
sS'40784'
p1374
I1
sS'41715'
p1375
I1
sS'37858'
p1376
I1
sS'60515'
p1377
I1
sS'56231'
p1378
I1
sS'59683'
p1379
I1
sS'36213'
p1380
I1
sS'40788'
p1381
I1
sS'40789'
p1382
I1
sS'54490'
p1383
I1
sS'38562'
p1384
I1
sS'60298'
p1385
I1
sS'58425'
p1386
I1
sS'35097'
p1387
I1
sS'50777'
p1388
I1
sS'58545'
p1389
I2
sS'39371'
p1390
I1
sS'43500'
p1391
I1
sS'50148'
p1392
I1
sS'57233'
p1393
I1
sS'34315'
p1394
I1
sS'47835'
p1395
I1
sS'47525'
p1396
I1
sS'34319'
p1397
I1
sS'43105'
p1398
I1
sS'47830'
p1399
I2
sS'37108'
p1400
I1
sS'45190'
p1401
I1
sS'57461'
p1402
I1
sS'46888'
p1403
I1
sS'49206'
p1404
I1
sS'53706'
p1405
I1
sS'59465'
p1406
I1
sS'42916'
p1407
I1
sS'45819'
p1408
I1
sS'47658'
p1409
I1
sS'46884'
p1410
I1
sS'49590'
p1411
I1
sS'52820'
p1412
I1
sS'57194'
p1413
I1
sS'48938'
p1414
I1
sS'60038'
p1415
I1
sS'44913'
p1416
I1
sS'42626'
p1417
I1
sS'44858'
p1418
I2
sS'59061'
p1419
I1
sS'47723'
p1420
I1
sS'42620'
p1421
I1
sS'60421'
p1422
I1
sS'52824'
p1423
I1
sS'44919'
p1424
I1
sS'45694'
p1425
I1
sS'42117'
p1426
I1
sS'52150'
p1427
I1
sS'57040'
p1428
I1
sS'36351'
p1429
I1
sS'49112'
p1430
I1
sS'45108'
p1431
I1
sS'47783'
p1432
I1
sS'52159'
p1433
I1
sS'45456'
p1434
I1
sS'42964'
p1435
I1
sS'56341'
p1436
I1
sS'42210'
p1437
I1
sS'48571'
p1438
I1
sS'45850'
p1439
I1
sS'35612'
p1440
I1
sS'53207'
p1441
I1
sS'39799'
p1442
I1
sS'50591'
p1443
I1
sS'44276'
p1444
I1
sS'45858'
p1445
I1
sS'48472'
p1446
I1
sS'40296'
p1447
I1
sS'44270'
p1448
I1
sS'35349'
p1449
I1
sS'41460'
p1450
I1
sS'42984'
p1451
I1
sS'59630'
p1452
I1
sS'46952'
p1453
I1
sS'45284'
p1454
I1
sS'40996'
p1455
I1
sS'52729'
p1456
I1
sS'35070'
p1457
I1
sS'46810'
p1458
I1
sS'34744'
p1459
I1
sS'53634'
p1460
I1
sS'50986'
p1461
I1
sS'37033'
p1462
I1
sS'60736'
p1463
I1
sS'48848'
p1464
I1
sS'38530'
p1465
I1
sS'47831'
p1466
I1
sS'44678'
p1467
I1
sS'51026'
p1468
I2
sS'50690'
p1469
I1
sg432
I1
sS'41981'
p1470
I1
sS'50977'
p1471
I1
sS'35867'
p1472
I1
sS'46746'
p1473
I1
sS'35689'
p1474
I1
sS'51582'
p1475
I1
sS'35685'
p1476
I1
sS'33145'
p1477
I1
sS'36035'
p1478
I1
sS'41322'
p1479
I1
sS'35681'
p1480
I1
sS'55004'
p1481
I1
sS'37393'
p1482
I1
sS'32984'
p1483
I1
sS'58345'
p1484
I1
sS'33365'
p1485
I1
sS'32980'
p1486
I1
sS'60324'
p1487
I1
sS'56164'
p1488
I1
sS'40055'
p1489
I1
sS'55547'
p1490
I1
sS'33368'
p1491
I1
sS'47809'
p1492
I1
sS'53449'
p1493
I2
sS'55792'
p1494
I1
sS'53440'
p1495
I1
sS'55390'
p1496
I1
sS'58260'
p1497
I1
sS'59763'
p1498
I1
sS'40902'
p1499
I1
sS'49870'
p1500
I1
sS'40905'
p1501
I1
sS'37249'
p1502
I1
sS'43442'
p1503
I1
sS'39611'
p1504
I1
sS'55961'
p1505
I1
sS'40120'
p1506
I1
sS'48722'
p1507
I1
sS'33669'
p1508
I1
sS'55646'
p1509
I1
sS'58735'
p1510
I1
sS'57288'
p1511
I1
sS'40129'
p1512
I1
sS'56115'
p1513
I1
sS'59857'
p1514
I1
sS'44306'
p1515
I1
sS'44304'
p1516
I1
sS'49759'
p1517
I1
sS'56354'
p1518
I1
sS'40379'
p1519
I1
sS'59938'
p1520
I1
sS'34701'
p1521
I1
sS'33100'
p1522
I1
sS'45606'
p1523
I1
sS'44094'
p1524
I1
sS'39532'
p1525
I1
sS'54361'
p1526
I1
sS'44093'
p1527
I1
sS'44090'
p1528
I1
sS'50013'
p1529
I1
sS'53983'
p1530
I1
sS'42418'
p1531
I1
sS'47766'
p1532
I1
sS'33125'
p1533
I1
sS'47979'
p1534
I1
sS'51531'
p1535
I1
sS'43530'
p1536
I1
sS'57761'
p1537
I1
sS'39024'
p1538
I1
sS'58463'
p1539
I1
sS'58749'
p1540
I1
sS'59691'
p1541
I1
sS'56887'
p1542
I1
sS'38000'
p1543
I1
sS'46675'
p1544
I1
sS'52231'
p1545
I1
sS'33561'
p1546
I1
sS'50530'
p1547
I1
sS'34773'
p1548
I1
sS'56202'
p1549
I1
sS'40756'
p1550
I1
sS'44397'
p1551
I1
sS'55152'
p1552
I1
sS'40979'
p1553
I1
sS'46175'
p1554
I1
sS'43025'
p1555
I1
sS'49554'
p1556
I1
sS'52699'
p1557
I1
sS'39976'
p1558
I1
sS'37922'
p1559
I1
sS'34066'
p1560
I1
sS'50186'
p1561
I1
sS'45286'
p1562
I1
sS'35160'
p1563
I1
sS'42383'
p1564
I1
sS'42088'
p1565
I1
sS'36364'
p1566
I1
sS'35894'
p1567
I1
sS'33056'
p1568
I1
sS'51541'
p1569
I1
sS'52127'
p1570
I1
sS'44891'
p1571
I1
sS'36719'
p1572
I1
sS'57490'
p1573
I1
sS'60576'
p1574
I1
sS'57496'
p1575
I2
sS'36248'
p1576
I1
sS'53324'
p1577
I1
sS'47823'
p1578
I1
sS'59023'
p1579
I1
sS'44019'
p1580
I1
sS'52198'
p1581
I1
sS'54337'
p1582
I1
sg366
I1
sS'51933'
p1583
I1
sS'49013'
p1584
I1
sS'43793'
p1585
I1
sS'40580'
p1586
I1
sS'40581'
p1587
I1
sS'34445'
p1588
I1
sS'42313'
p1589
I1
sS'43653'
p1590
I1
sS'53113'
p1591
I1
sS'47579'
p1592
I1
sS'47057'
p1593
I1
sS'52766'
p1594
I1
sS'59631'
p1595
I1
sS'57330'
p1596
I1
sS'36886'
p1597
I2
sS'49337'
p1598
I1
sS'54462'
p1599
I1
sS'58825'
p1600
I1
sS'46697'
p1601
I1
sS'40406'
p1602
I1
sS'37997'
p1603
I1
sS'45497'
p1604
I1
sS'37449'
p1605
I1
sS'50210'
p1606
I1
sS'55430'
p1607
I1
sS'44749'
p1608
I1
sS'51787'
p1609
I1
sS'39212'
p1610
I1
sS'36748'
p1611
I1
sS'33106'
p1612
I2
sS'44738'
p1613
I1
sS'55047'
p1614
I1
sS'60504'
p1615
I1
sS'59851'
p1616
I1
sS'36562'
p1617
I1
sS'35828'
p1618
I1
sS'38227'
p1619
I1
sS'50784'
p1620
I1
sS'42957'
p1621
I1
sS'52924'
p1622
I1
sS'42959'
p1623
I1
sS'45255'
p1624
I1
sS'53804'
p1625
I1
sS'35942'
p1626
I1
stp1627
sS'87.248.203.254'
p1628
(I6
(dp1629
S'54233'
p1630
I1
sS'54232'
p1631
I1
sS'54231'
p1632
I1
sS'54230'
p1633
I1
sS'54235'
p1634
I1
sS'54234'
p1635
I1
stp1636
sS'205.188.17.129'
p1637
(I1
(dp1638
S'41847'
p1639
I1
stp1640
sS'77.238.187.39'
p1641
(I2
(dp1642
S'50909'
p1643
I1
sS'50910'
p1644
I1
stp1645
sS'220.181.69.213'
p1646
(I1
(dp1647
S'1059'
p1648
I1
stp1649
sS'123.126.51.57'
p1650
(I1
(dp1651
S'1071'
p1652
I1
stp1653
sS'118.228.148.32'
p1654
(I1
(dp1655
S'1068'
p1656
I1
stp1657
sS'147.32.85.36'
p1658
(I1
(dp1659
S'53'
p1660
I1
stp1661
sS'75.101.155.168'
p1662
(I4
(dp1663
S'52972'
p1664
I1
sS'52934'
p1665
I1
sS'52977'
p1666
I1
sS'52941'
p1667
I1
stp1668
sS'83.145.197.2'
p1669
(I3
(dp1670
S'54339'
p1671
I1
sS'48342'
p1672
I1
sS'54375'
p1673
I1
stp1674
sS'209.85.149.160'
p1675
(I1
(dp1676
S'1051'
p1677
I1
stp1678
sS'69.63.181.105'
p1679
(I1
(dp1680
S'52238'
p1681
I1
stp1682
sS'174.143.8.138'
p1683
(I1
(dp1684
S'33998'
p1685
I1
stp1686
sS'74.125.39.125'
p1687
(I2
(dp1688
S'59646'
p1689
I1
sS'46975'
p1690
I1
stp1691
sS'64.12.73.134'
p1692
(I1
(dp1693
S'39779'
p1694
I1
stp1695
sS'66.235.139.152'
p1696
(I3
(dp1697
S'49352'
p1698
I1
sS'49350'
p1699
I1
sS'49351'
p1700
I1
stp1701
sS'2.21.92.124'
p1702
(I3
(dp1703
S'50353'
p1704
I1
sS'50355'
p1705
I1
sS'50356'
p1706
I1
stp1707
sS'64.12.73.133'
p1708
(I1
(dp1709
S'39073'
p1710
I1
stp1711
sS'209.85.149.116'
p1712
(I1
(dp1713
S'39376'
p1714
I1
stp1715
sS'209.85.149.117'
p1716
(I1
(dp1717
S'43961'
p1718
I1
stp1719
sS'137.229.30.15'
p1720
(I10
(dp1721
S'44242'
p1722
I1
sS'44241'
p1723
I1
sS'44240'
p1724
I1
sg157
I1
sS'34915'
p1725
I1
sS'34916'
p1726
I1
sS'34917'
p1727
I1
sS'34910'
p1728
I1
sS'44238'
p1729
I1
sS'44239'
p1730
I1
stp1731
sS'74.125.232.201'
p1732
(I3
(dp1733
S'60323'
p1734
I1
sS'1027'
p1735
I1
sg1487
I1
stp1736
sS'199.16.83.72'
p1737
(I1
(dp1738
S'49152'
p1739
I1
stp1740
sS'209.85.149.101'
p1741
(I1
(dp1742
S'34279'
p1743
I1
stp1744
sS'209.85.149.102'
p1745
(I1
(dp1746
S'38302'
p1747
I1
stp1748
sS'90.183.112.34'
p1749
(I1
(dp1750
S'49688'
p1751
I1
stp1752
sS'147.32.86.51'
p1753
(I1
(dp1754
S'22'
p1755
I1
stp1756
sS'123.126.51.33'
p1757
(I19
(dp1758
S'1050'
p1759
I1
sS'1052'
p1760
I1
sS'1075'
p1761
I1
sS'1054'
p1762
I1
sS'1055'
p1763
I1
sS'1056'
p1764
I1
sS'1057'
p1765
I1
sS'1058'
p1766
I1
sS'1077'
p1767
I1
sS'1049'
p1768
I1
sS'1062'
p1769
I1
sS'1064'
p1770
I1
sS'1066'
p1771
I1
sS'1076'
p1772
I1
sS'1078'
p1773
I1
sS'1061'
p1774
I1
sS'1079'
p1775
I1
sS'1080'
p1776
I1
sS'1063'
p1777
I1
stp1778
sS'218.29.42.137'
p1779
(I1
(dp1780
S'1072'
p1781
I1
stp1782
sS'66.235.139.153'
p1783
(I1
(dp1784
S'34009'
p1785
I1
stp1786
sS'208.81.234.106'
p1787
(I6
(dp1788
S'44497'
p1789
I1
sS'44498'
p1790
I1
sS'44499'
p1791
I1
sS'44500'
p1792
I1
sS'44501'
p1793
I1
sS'44502'
p1794
I1
stp1795
sS'209.85.149.132'
p1796
(I15
(dp1797
S'36750'
p1798
I1
sS'36751'
p1799
I1
sS'36752'
p1800
I1
sS'36753'
p1801
I1
sS'36996'
p1802
I1
sS'36749'
p1803
I1
sS'36748'
p1804
I1
sS'36769'
p1805
I1
sS'36768'
p1806
I1
sS'36776'
p1807
I1
sS'36777'
p1808
I1
sS'36767'
p1809
I1
sS'36772'
p1810
I1
sS'36770'
p1811
I1
sS'36771'
p1812
I1
stp1813
sS'66.235.138.59'
p1814
(I1
(dp1815
S'43123'
p1816
I1
stp1817
sS'205.188.11.14'
p1818
(I1
(dp1819
S'53897'
p1820
I1
stp1821
sS'209.85.149.138'
p1822
(I1
(dp1823
S'33003'
p1824
I1
stp1825
sS'72.32.52.107'
p1826
(I1
(dp1827
S'47704'
p1828
I1
stp1829
sS'74.125.232.223'
p1830
(I24
(dp1831
S'58999'
p1832
I1
sS'37447'
p1833
I1
sS'34949'
p1834
I1
sg138
I1
sS'58989'
p1835
I1
sS'36626'
p1836
I1
sS'36627'
p1837
I1
sS'53579'
p1838
I1
sS'53578'
p1839
I1
sS'47358'
p1840
I1
sS'34950'
p1841
I1
sS'37446'
p1842
I1
sS'53575'
p1843
I1
sS'53577'
p1844
I1
sS'53576'
p1845
I1
sS'58996'
p1846
I1
sS'58997'
p1847
I1
sS'58995'
p1848
I1
sS'58998'
p1849
I1
sS'42264'
p1850
I1
sS'42263'
p1851
I1
sS'42262'
p1852
I1
sS'34992'
p1853
I1
sS'34993'
p1854
I1
stp1855
sS'174.143.250.23'
p1856
(I6
(dp1857
S'59669'
p1858
I1
sS'59668'
p1859
I1
sS'59667'
p1860
I1
sS'59666'
p1861
I1
sS'59665'
p1862
I1
sS'59664'
p1863
I1
stp1864
sS'64.12.73.165'
p1865
(I2
(dp1866
S'50765'
p1867
I1
sS'52328'
p1868
I1
stp1869
sS'199.168.12.106'
p1870
(I8
(dp1871
S'38631'
p1872
I1
sS'38630'
p1873
I1
sS'38633'
p1874
I1
sS'38632'
p1875
I1
sS'38626'
p1876
I1
sS'38639'
p1877
I1
sS'38640'
p1878
I1
sS'38629'
p1879
I1
stp1880
sS'205.188.8.253'
p1881
(I1
(dp1882
S'53377'
p1883
I1
stp1884
sS'64.12.68.227'
p1885
(I1
(dp1886
S'42217'
p1887
I1
stp1888
sS'95.172.94.14'
p1889
(I1
(dp1890
S'59836'
p1891
I1
stp1892
sS'195.113.232.75'
p1893
(I4
(dp1894
S'45572'
p1895
I1
sS'45573'
p1896
I1
sS'45570'
p1897
I1
sS'45571'
p1898
I1
stp1899
sS'209.85.148.103'
p1900
(I39
(dp1901
S'55352'
p1902
I1
sS'39871'
p1903
I1
sS'39872'
p1904
I1
sS'39873'
p1905
I1
sS'39874'
p1906
I1
sS'39875'
p1907
I1
sS'39876'
p1908
I1
sS'48649'
p1909
I1
sS'48640'
p1910
I1
sS'52245'
p1911
I1
sS'52222'
p1912
I1
sS'52223'
p1913
I1
sS'52246'
p1914
I1
sS'36387'
p1915
I1
sS'36386'
p1916
I1
sS'36385'
p1917
I1
sS'36384'
p1918
I1
sS'36435'
p1919
I1
sS'36389'
p1920
I1
sS'36436'
p1921
I1
sS'55338'
p1922
I1
sS'52178'
p1923
I1
sS'52179'
p1924
I1
sS'48636'
p1925
I1
sS'48652'
p1926
I1
sS'48653'
p1927
I1
sS'48638'
p1928
I1
sS'52176'
p1929
I1
sS'52177'
p1930
I1
sS'52174'
p1931
I1
sS'52175'
p1932
I1
sS'52958'
p1933
I1
sS'52200'
p1934
I1
sS'36437'
p1935
I1
sS'55102'
p1936
I1
sS'55101'
p1937
I1
sS'52934'
p1938
I1
sS'52931'
p1939
I1
sS'36388'
p1940
I1
stp1941
sS'195.113.232.73'
p1942
(I2
(dp1943
S'1074'
p1944
I1
sS'35943'
p1945
I1
stp1946
sS'61.135.188.212'
p1947
(I1
(dp1948
S'1042'
p1949
I1
stp1950
sS'61.135.188.210'
p1951
(I7
(dp1952
S'1069'
p1953
I1
sS'1041'
p1954
I1
sS'1081'
p1955
I1
sS'1044'
p1956
I1
sS'1060'
p1957
I1
sS'1073'
p1958
I1
sS'1070'
p1959
I1
stp1960
s.