(dp0
S'147.32.80.9'
p1
(I6
(dp2
S'56652'
p3
I1
sS'65254'
p4
I1
sS'43866'
p5
I1
sS'48569'
p6
I1
sS'46223'
p7
I1
sS'26010'
p8
I1
stp9
sS'147.32.84.134'
p10
(I948
(dp11
S'0x9ebe'
p12
I1
sS'993'
p13
I7
sS'443'
p14
I114
sS'5222'
p15
I2
sS'53'
p16
I621
sS'123'
p17
I1
sS'80'
p18
I202
stp19
sS'147.32.84.170'
p20
(I26846
(dp21
S'443'
p22
I1945
sS'5222'
p23
I26
sS'0xd4ce'
p24
I1
sS'53'
p25
I16891
sS'0xc413'
p26
I1
sS'0x3500'
p27
I1
sS'59852'
p28
I1
sS'0x83c1'
p29
I1
sS'0xe0b9'
p30
I1
sS'81'
p31
I16
sS'80'
p32
I7961
sS'0x63d1'
p33
I1
stp34
sS'147.32.87.11'
p35
(I3
(dp36
g27
I1
sS'137'
p37
I1
sS'53'
p38
I1
stp39
sS'147.32.87.36'
p40
(I398
(dp41
S'56849'
p42
I1
sg25
I376
sg26
I1
sg27
I1
sS'123'
p43
I16
sS'1762'
p44
I1
sS'49425'
p45
I1
sS'1765'
p46
I1
stp47
sS'147.32.84.165'
p48
(I40003
(dp49
S'0xa907'
p50
I1
sS'587'
p51
I140
sS'0xc007'
p52
I1
sS'888'
p53
I30
sS'0x6405'
p54
I1
sS'88'
p55
I6
sS'82'
p56
I2
sg32
I2173
sS'81'
p57
I2
sS'25'
p58
I6617
sS'3128'
p59
I31
sS'6667'
p60
I1019
sg26
I1
sS'0x5610'
p61
I1
sS'0x6412'
p62
I1
sS'2011'
p63
I2
sS'2012'
p64
I2
sS'0x3e10'
p65
I1
sg22
I21780
sg27
I1
sS'65500'
p66
I665
sS'0x7905'
p67
I1
sg25
I7524
sS'0x4412'
p68
I1
stp69
sS'147.32.84.164'
p70
(I3539
(dp71
S'443'
p72
I88
sS'5222'
p73
I2
sg25
I2487
sg26
I1
sg27
I2
sS'0x9fc5'
p74
I1
sg32
I931
sS'81'
p75
I2
sS'0xd5c8'
p76
I25
stp77
s.