(dp0
S'147.32.84.192'
p1
(I20305
(dp2
S'25'
p3
I4246
sS'3128'
p4
I30
sS'587'
p5
I20
sS'443'
p6
I2121
sS'2869'
p7
I5
sS'888'
p8
I14
sS'6667'
p9
I808
sS'53'
p10
I11441
sS'3524'
p11
I3
sS'65520'
p12
I3
sS'65500'
p13
I386
sS'88'
p14
I1
sS'82'
p15
I2
sS'123'
p16
I1
sS'81'
p17
I2
sS'2011'
p18
I2
sS'80'
p19
I1219
sS'2012'
p20
I1
stp21
sS'147.32.84.193'
p22
(I17961
(dp23
g3
I4153
sS'3128'
p24
I28
sS'587'
p25
I21
sS'443'
p26
I385
sg7
I5
sS'888'
p27
I14
sS'999'
p28
I5
sS'6667'
p29
I791
sg10
I10718
sS'3524'
p30
I3
sS'65520'
p31
I3
sg13
I469
sg14
I1
sS'82'
p32
I2
sg16
I1
sS'81'
p33
I3
sS'2011'
p34
I2
sg19
I1356
sS'2012'
p35
I1
stp36
sS'147.32.80.9'
p37
(I116
(dp38
S'1304'
p39
I2
sS'33718'
p40
I1
sS'1300'
p41
I5
sS'1082'
p42
I3
sS'2921'
p43
I2
sS'33054'
p44
I1
sS'4468'
p45
I3
sS'36124'
p46
I1
sS'1587'
p47
I2
sS'1874'
p48
I3
sS'1875'
p49
I2
sS'35509'
p50
I1
sS'4576'
p51
I1
sS'49230'
p52
I1
sS'63554'
p53
I1
sS'51535'
p54
I1
sS'1585'
p55
I1
sS'2323'
p56
I1
sS'1051'
p57
I3
sS'1589'
p58
I2
sS'50157'
p59
I1
sS'1580'
p60
I1
sS'2381'
p61
I3
sS'1586'
p62
I1
sS'37576'
p63
I1
sS'1070'
p64
I2
sS'1549'
p65
I3
sS'33641'
p66
I2
sS'56601'
p67
I1
sS'57434'
p68
I1
sS'3073'
p69
I1
sS'63882'
p70
I1
sS'1392'
p71
I1
sS'3858'
p72
I1
sS'53859'
p73
I1
sS'40917'
p74
I2
sS'1359'
p75
I1
sS'60552'
p76
I1
sS'59883'
p77
I1
sS'3986'
p78
I1
sS'1774'
p79
I2
sS'1470'
p80
I1
sS'1568'
p81
I1
sS'59954'
p82
I1
sS'44133'
p83
I1
sS'3526'
p84
I1
sS'41960'
p85
I1
sS'1862'
p86
I1
sS'52620'
p87
I1
sS'44885'
p88
I1
sS'3170'
p89
I1
sS'58790'
p90
I1
sS'37998'
p91
I1
sS'60512'
p92
I1
sS'1025'
p93
I11
sS'4007'
p94
I1
sS'36695'
p95
I2
sS'1296'
p96
I3
sS'1629'
p97
I1
sS'3442'
p98
I1
sS'4910'
p99
I1
sS'46057'
p100
I1
sS'1537'
p101
I1
sS'1536'
p102
I1
sS'1535'
p103
I2
sS'1493'
p104
I1
sS'53580'
p105
I1
sS'1668'
p106
I2
sS'1667'
p107
I1
sS'38340'
p108
I1
sS'57052'
p109
I1
sS'1673'
p110
I1
sS'38400'
p111
I1
sS'1539'
p112
I1
sS'1538'
p113
I2
stp114
sS'147.32.84.134'
p115
(I9419
(dp116
S'993'
p117
I14
sS'8950'
p118
I5
sS'443'
p119
I1157
sS'5222'
p120
I6
sS'3478'
p121
I4
sS'53'
p122
I5342
sS'0xc413'
p123
I1
sS'4444'
p124
I2
sS'51111'
p125
I4
sS'80'
p126
I2884
stp127
sS'147.32.84.204'
p128
(I18783
(dp129
g3
I3964
sg24
I30
sg25
I19
sS'443'
p130
I1876
sg7
I5
sg27
I14
sg29
I783
sg10
I10418
sg30
I3
sg31
I3
sg13
I334
sg14
I1
sg32
I2
sg16
I1
sg33
I2
sg34
I2
sg19
I1325
sg35
I1
stp131
sS'147.32.87.11'
p132
(I2
(dp133
S'53'
p134
I2
stp135
sS'147.32.1.20'
p136
(I3
(dp137
S'56036'
p138
I1
sS'38605'
p139
I1
sS'45331'
p140
I1
stp141
sS'147.32.84.170'
p142
(I15806
(dp143
g119
I1150
sg120
I11
sS'0x8333'
p144
I1
sg122
I9390
sS'80'
p145
I5248
sS'81'
p146
I6
stp147
sS'147.32.87.36'
p148
(I104
(dp149
S'52144'
p150
I1
sS'52077'
p151
I1
sS'4446'
p152
I1
sS'1838'
p153
I1
sS'57091'
p154
I1
sS'54745'
p155
I1
sg122
I84
sS'3178'
p156
I1
sS'10583'
p157
I1
sg16
I5
sS'2378'
p158
I1
sS'53348'
p159
I1
sS'3182'
p160
I1
sS'2698'
p161
I1
sS'2365'
p162
I1
sS'50318'
p163
I1
sS'51493'
p164
I1
stp165
sS'147.32.84.191'
p166
(I18774
(dp167
S'0xad07'
p168
I1
sg7
I5
sg8
I14
sS'88'
p169
I1
sg15
I2
sg19
I1297
sg17
I2
sS'25'
p170
I4654
sg4
I29
sS'0x650f'
p171
I1
sg9
I825
sS'443'
p172
I411
sg18
I2
sS'0x8e0f'
p173
I1
sg20
I1
sS'587'
p174
I23
sS'0xd507'
p175
I1
sS'999'
p176
I4
sg11
I3
sg12
I3
sS'65500'
p177
I521
sS'8080'
p178
I1
sg10
I10971
sg16
I1
stp179
sS'147.32.84.206'
p180
(I18553
(dp181
S'123'
p182
I1
sS'25'
p183
I3941
sg24
I30
sS'0x570a'
p184
I1
sg26
I79
sg7
I5
sg27
I14
sg29
I777
sS'53'
p185
I12595
sg30
I3
sg31
I3
sS'65500'
p186
I144
sS'88'
p187
I1
sg32
I2
sS'587'
p188
I21
sg33
I4
sg34
I2
sS'80'
p189
I929
sg35
I1
stp190
sS'147.32.84.207'
p191
(I15999
(dp192
g3
I3865
sg24
I29
sg188
I19
sg172
I358
sg7
I5
sg27
I14
sg28
I3
sS'6667'
p193
I764
sg185
I9526
sS'3524'
p194
I3
sg31
I3
sS'65500'
p195
I496
sg187
I1
sg32
I2
sg182
I1
sS'81'
p196
I2
sS'2011'
p197
I2
sg189
I905
sg35
I1
stp198
sS'147.32.84.165'
p199
(I22792
(dp200
g7
I5
sS'888'
p201
I14
sS'88'
p202
I1
sS'82'
p203
I2
sg19
I1227
sS'81'
p204
I2
sS'25'
p205
I4951
sS'3128'
p206
I40
sS'0xbd07'
p207
I1
sS'6667'
p208
I881
sS'2011'
p209
I2
sS'0x8505'
p210
I1
sS'2012'
p211
I1
sS'587'
p212
I34
sS'0xf510'
p213
I1
sS'443'
p214
I202
sS'3524'
p215
I3
sg16
I1
sS'65500'
p216
I292
sS'0x4e05'
p217
I1
sg10
I15126
sS'65520'
p218
I3
sS'0x9e07'
p219
I1
stp220
sS'147.32.84.205'
p221
(I17535
(dp222
g16
I1
sg3
I4129
sg24
I30
sS'0x6a10'
p223
I1
sg188
I21
sg26
I294
sg7
I5
sg27
I14
sg29
I785
sS'0x4710'
p224
I1
sg30
I3
sg31
I3
sg186
I383
sg187
I1
sg32
I2
sg19
I1501
sg33
I5
sg34
I2
sg10
I10353
sg35
I1
stp225
sS'147.32.84.164'
p226
(I4432
(dp227
g119
I105
sg120
I6
sS'27017'
p228
I4
sg122
I2999
sS'1935'
p229
I1
sg145
I1260
sS'81'
p230
I6
sS'27031'
p231
I39
sS'0xd5c8'
p232
I12
stp233
sS'147.32.84.209'
p234
(I16376
(dp235
g183
I4288
sS'3128'
p236
I30
sg188
I28
sg26
I2605
sg7
I5
sS'888'
p237
I14
sg193
I771
sg185
I6659
sg194
I3
sS'65520'
p238
I3
sg186
I658
sS'88'
p239
I1
sS'82'
p240
I2
sg182
I1
sg196
I2
sg197
I2
sg189
I1303
sS'2012'
p241
I1
stp242
sS'147.32.84.208'
p243
(I17909
(dp244
g182
I1
sS'0xcd4f'
p245
I1
sg236
I30
sg237
I14
sg183
I3709
sg130
I2025
sg7
I5
sS'0x7484'
p246
I2
sg193
I759
sg185
I9982
sg194
I3
sg238
I3
sg195
I416
sg187
I1
sg240
I2
sg188
I15
sg196
I3
sg197
I2
sg189
I935
sg241
I1
stp247
s.