(dp0
S'147.32.80.9'
p1
(I44
(dp2
S'47618'
p3
I1
sS'33364'
p4
I1
sS'39857'
p5
I1
sS'49755'
p6
I1
sS'60058'
p7
I1
sS'54232'
p8
I1
sS'41262'
p9
I1
sS'61020'
p10
I1
sS'55695'
p11
I1
sS'50184'
p12
I1
sS'48173'
p13
I1
sS'52391'
p14
I1
sS'64580'
p15
I1
sS'43547'
p16
I1
sS'50325'
p17
I1
sS'47843'
p18
I1
sS'51193'
p19
I1
sS'46890'
p20
I1
sS'57100'
p21
I1
sS'43839'
p22
I1
sS'37976'
p23
I1
sS'53366'
p24
I1
sS'38277'
p25
I1
sS'57552'
p26
I1
sS'56029'
p27
I1
sS'58622'
p28
I1
sS'54544'
p29
I1
sS'45596'
p30
I1
sS'53170'
p31
I1
sS'40043'
p32
I1
sS'60394'
p33
I1
sS'57066'
p34
I1
sS'39433'
p35
I1
sS'49235'
p36
I1
sS'42300'
p37
I1
sS'57914'
p38
I1
sS'38004'
p39
I1
sS'39629'
p40
I1
sS'50787'
p41
I1
sS'55226'
p42
I1
sS'36050'
p43
I1
sS'61633'
p44
I1
sS'33148'
p45
I1
sS'63892'
p46
I1
stp47
sS'147.32.84.134'
p48
(I5463
(dp49
S'8950'
p50
I4
sS'22'
p51
I1
sS'443'
p52
I745
sS'5222'
p53
I9
sS'53'
p54
I3086
sS'465'
p55
I1
sS'123'
p56
I2
sS'4444'
p57
I1
sS'0x9ee5'
p58
I1
sS'80'
p59
I1596
sS'993'
p60
I17
stp61
sS'147.32.87.11'
p62
(I4
(dp63
S'137'
p64
I1
sS'53'
p65
I3
stp66
sS'147.32.1.20'
p67
(I2
(dp68
S'50133'
p69
I1
sS'43512'
p70
I1
stp71
sS'147.32.84.170'
p72
(I48588
(dp73
S'27001'
p74
I2
sS'2711'
p75
I1
sS'1301'
p76
I1
sS'1302'
p77
I1
sS'21000'
p78
I1
sS'25078'
p79
I1
sS'34001'
p80
I1
sS'40155'
p81
I1
sS'27042'
p82
I2
sS'27043'
p83
I2
sS'27040'
p84
I3
sS'27041'
p85
I1
sS'27046'
p86
I3
sS'27660'
p87
I1
sS'27044'
p88
I6
sS'27045'
p89
I20
sS'27600'
p90
I1
sS'17000'
p91
I1
sS'9999'
p92
I1
sS'10511'
p93
I1
sS'0xd0b0'
p94
I1
sS'27075'
p95
I12
sS'21374'
p96
I1
sS'10515'
p97
I1
sS'23700'
p98
I2
sS'27074'
p99
I1
sS'0x008c'
p100
I1
sS'62381'
p101
I1
sS'55050'
p102
I1
sS'27073'
p103
I2
sS'55298'
p104
I1
sS'27415'
p105
I3
sS'50846'
p106
I1
sS'0xb898'
p107
I1
sS'27165'
p108
I1
sS'55760'
p109
I1
sS'40005'
p110
I1
sS'28100'
p111
I1
sS'35015'
p112
I1
sS'0x21c4'
p113
I1
sS'0x13b1'
p114
I1
sS'37041'
p115
I1
sS'27200'
p116
I4
sS'56251'
p117
I1
sS'19400'
p118
I1
sS'34875'
p119
I1
sS'53295'
p120
I1
sS'52965'
p121
I1
sS'0xf4ae'
p122
I1
sS'10051'
p123
I1
sS'10050'
p124
I1
sS'0xfb9c'
p125
I1
sS'27078'
p126
I3
sS'47375'
p127
I1
sS'31992'
p128
I1
sS'25510'
p129
I1
sS'25511'
p130
I1
sS'18000'
p131
I1
sS'27072'
p132
I1
sS'27071'
p133
I1
sS'27070'
p134
I6
sS'11027'
p135
I1
sS'0x34b2'
p136
I1
sS'28025'
p137
I1
sS'20200'
p138
I1
sS'56880'
p139
I1
sS'4366'
p140
I1
sS'27400'
p141
I3
sS'0x35b7'
p142
I1
sS'11028'
p143
I1
sS'27404'
p144
I1
sS'27690'
p145
I1
sS'0x48df'
p146
I1
sS'32621'
p147
I1
sS'40010'
p148
I1
sS'27175'
p149
I1
sS'13013'
p150
I1
sS'0xd281'
p151
I1
sS'55757'
p152
I1
sS'28139'
p153
I1
sS'0x06d0'
p154
I1
sS'7317'
p155
I1
sS'10802'
p156
I1
sS'27179'
p157
I1
sS'58654'
p158
I1
sS'33017'
p159
I1
sS'55322'
p160
I1
sS'30991'
p161
I1
sS'29216'
p162
I1
sS'0x22ae'
p163
I1
sS'28024'
p164
I1
sS'27701'
p165
I1
sS'27700'
p166
I1
sS'27703'
p167
I1
sS'27702'
p168
I1
sS'27704'
p169
I1
sS'0x44dc'
p170
I1
sS'27060'
p171
I9
sS'27061'
p172
I1
sS'27062'
p173
I1
sS'81'
p174
I20
sS'27820'
p175
I1
sS'27065'
p176
I10
sS'27066'
p177
I2
sS'0x5ceb'
p178
I1
sS'40012'
p179
I1
sS'23441'
p180
I1
sS'0x66d3'
p181
I1
sS'28035'
p182
I1
sS'0x7b9f'
p183
I1
sS'25077'
p184
I1
sS'33018'
p185
I1
sS'0x40ec'
p186
I1
sS'27289'
p187
I1
sS'26016'
p188
I2
sS'27141'
p189
I1
sS'27301'
p190
I1
sS'0x13ed'
p191
I1
sS'27303'
p192
I1
sS'0x53bf'
p193
I1
sS'27261'
p194
I1
sS'27032'
p195
I6
sS'7130'
p196
I1
sS'5002'
p197
I1
sS'0xbbb6'
p198
I1
sS'22657'
p199
I1
sS'13882'
p200
I1
sS'22022'
p201
I1
sg52
I2324
sS'30700'
p202
I1
sS'53209'
p203
I1
sS'31000'
p204
I1
sS'55721'
p205
I1
sS'27300'
p206
I2
sS'27015'
p207
I1349
sS'64212'
p208
I1
sS'27426'
p209
I1
sS'27715'
p210
I1
sS'21200'
p211
I1
sS'0x1b8d'
p212
I1
sS'32000'
p213
I1
sS'65508'
p214
I1
sS'20100'
p215
I1
sS'0x6de4'
p216
I1
sS'58440'
p217
I1
sS'2045'
p218
I1
sS'27019'
p219
I40
sS'27018'
p220
I129
sS'2040'
p221
I1
sS'27250'
p222
I1
sS'28007'
p223
I2
sS'27014'
p224
I6
sS'28005'
p225
I2
sS'28004'
p226
I2
sS'13337'
p227
I1
sS'28002'
p228
I2
sS'27013'
p229
I4
sS'27012'
p230
I3
sS'27095'
p231
I2
sS'27514'
p232
I1
sS'27315'
p233
I7
sS'27091'
p234
I1
sS'27090'
p235
I5
sS'61968'
p236
I1
sS'27092'
p237
I1
sS'28150'
p238
I1
sS'56104'
p239
I1
sS'27099'
p240
I1
sS'27151'
p241
I1
sS'30015'
p242
I2
sS'65454'
p243
I1
sS'1935'
p244
I1
sS'26902'
p245
I1
sS'31016'
p246
I1
sS'22541'
p247
I1
sS'28852'
p248
I1
sS'55710'
p249
I1
sS'27003'
p250
I1
sS'30010'
p251
I2
sS'0x51b4'
p252
I1
sS'62064'
p253
I1
sS'55951'
p254
I1
sS'28016'
p255
I1
sS'27036'
p256
I3
sS'27999'
p257
I1
sS'2025'
p258
I1
sS'23240'
p259
I1
sS'29090'
p260
I1
sS'29017'
p261
I1
sS'28019'
p262
I1
sS'29015'
p263
I4
sS'27128'
p264
I1
sS'27006'
p265
I1
sS'27515'
p266
I1
sS'28015'
p267
I4
sS'27000'
p268
I2
sS'28017'
p269
I1
sS'27086'
p270
I1
sS'27087'
p271
I1
sS'27085'
p272
I4
sS'0x03a8'
p273
I1
sS'27080'
p274
I3
sS'27081'
p275
I2
sS'27123'
p276
I2
sS'55963'
p277
I1
sS'27125'
p278
I1
sS'27088'
p279
I1
sS'55312'
p280
I1
sS'33352'
p281
I1
sS'27022'
p282
I68
sS'30000'
p283
I1
sS'65509'
p284
I1
sS'57243'
p285
I1
sS'10158'
p286
I1
sS'0x17ab'
p287
I1
sS'33015'
p288
I1
sS'27879'
p289
I1
sS'0xf4c2'
p290
I1
sS'51471'
p291
I1
sS'63886'
p292
I1
sS'0xec89'
p293
I1
sS'20000'
p294
I2
sS'7230'
p295
I1
sS'49259'
p296
I1
sS'40669'
p297
I1
sS'19768'
p298
I1
sS'27137'
p299
I1
sS'58683'
p300
I2
sS'1025'
p301
I1
sS'10092'
p302
I1
sS'27039'
p303
I4
sS'27038'
p304
I18
sS'27069'
p305
I1
sS'27033'
p306
I8
sg53
I19
sS'27031'
p307
I16
sS'27030'
p308
I33
sS'27037'
p309
I4
sS'37015'
p310
I1
sS'27035'
p311
I39
sS'27034'
p312
I1
sS'20021'
p313
I1
sS'27150'
p314
I2
sS'37096'
p315
I1
sS'28006'
p316
I2
sS'3535'
p317
I1
sS'0x1d90'
p318
I1
sS'27089'
p319
I1
sS'27017'
p320
I96
sS'0xc8bb'
p321
I1
sS'27860'
p322
I1
sS'27016'
p323
I222
sS'25565'
p324
I1
sS'25406'
p325
I1
sS'28003'
p326
I2
sS'27101'
p327
I2
sS'22600'
p328
I1
sS'27024'
p329
I68
sS'27025'
p330
I40
sS'27026'
p331
I7
sS'27027'
p332
I75
sS'27020'
p333
I10
sS'27021'
p334
I62
sS'20016'
p335
I1
sS'27023'
p336
I6
sS'65535'
p337
I1
sS'27185'
p338
I1
sS'28000'
p339
I1
sS'27028'
p340
I4
sS'27029'
p341
I9
sS'25015'
p342
I1
sS'0x7bb6'
p343
I1
sS'27105'
p344
I5
sS'0x4c8b'
p345
I1
sS'0xcac6'
p346
I1
sS'28815'
p347
I1
sS'28960'
p348
I1
sS'27570'
p349
I1
sS'27119'
p350
I3
sS'27470'
p351
I1
sS'0x4e96'
p352
I1
sS'2035'
p353
I1
sS'52394'
p354
I1
sS'2030'
p355
I1
sS'28001'
p356
I2
sS'17900'
p357
I1
sS'49153'
p358
I1
sS'49154'
p359
I1
sS'11039'
p360
I1
sS'29438'
p361
I1
sS'27049'
p362
I3
sS'27010'
p363
I3
sS'19255'
p364
I1
sS'0x8fb2'
p365
I1
sS'62182'
p366
I1
sS'1028'
p367
I1
sS'1815'
p368
I1
sS'30025'
p369
I2
sS'55193'
p370
I1
sS'40165'
p371
I1
sS'55216'
p372
I1
sS'55007'
p373
I1
sS'27815'
p374
I1
sS'27050'
p375
I12
sS'27053'
p376
I2
sS'27052'
p377
I1
sS'27055'
p378
I9
sS'27057'
p379
I1
sS'27056'
p380
I1
sS'27058'
p381
I1
sS'27615'
p382
I2
sg59
I13748
sS'23456'
p383
I1
sS'27110'
p384
I2
sS'27112'
p385
I1
sS'27115'
p386
I7
sS'27116'
p387
I1
sS'27117'
p388
I9
sS'27118'
p389
I2
sS'65283'
p390
I1
sS'0xbcb7'
p391
I1
sS'27100'
p392
I3
sS'7050'
p393
I1
sS'27685'
p394
I1
sS'27051'
p395
I3
sS'2000'
p396
I2
sS'1365'
p397
I1
sS'27083'
p398
I1
sS'27215'
p399
I2
sS'2005'
p400
I1
sg54
I29673
sS'28042'
p401
I1
sS'28041'
p402
I1
sS'28040'
p403
I1
sS'0x0182'
p404
I1
sS'28045'
p405
I1
sS'28615'
p406
I1
stp407
sS'147.32.87.36'
p408
(I328
(dp409
S'4686'
p410
I1
sS'4685'
p411
I1
sS'1084'
p412
I1
sS'4669'
p413
I1
sS'53836'
p414
I1
sS'4688'
p415
I1
sS'58483'
p416
I1
sS'4672'
p417
I1
sS'2138'
p418
I1
sS'123'
p419
I19
sS'1692'
p420
I1
sS'4671'
p421
I1
sS'1032'
p422
I1
sS'2255'
p423
I1
sS'1574'
p424
I1
sS'2135'
p425
I1
sS'53'
p426
I293
sS'4773'
p427
I1
stp428
sS'147.32.84.165'
p429
(I6127
(dp430
S'0xdc71'
p431
I1
sS'2869'
p432
I2
sS'3478'
p433
I3
sg54
I69
sS'3389'
p434
I1062
sS'88'
p435
I3
sS'123'
p436
I1
sS'9010'
p437
I1
sS'135'
p438
I4702
sg59
I28
sS'81'
p439
I17
sS'8000'
p440
I237
sS'9009'
p441
I1
stp442
sS'147.32.84.164'
p443
(I18164
(dp444
S'27280'
p445
I1
sS'0x71c6'
p446
I1
sS'0x5896'
p447
I1
sg187
I1
sg189
I1
sg111
I1
sS'41373'
p448
I1
sg115
I1
sg118
I1
sS'44463'
p449
I3
sS'44462'
p450
I3
sS'44461'
p451
I3
sS'44460'
p452
I3
sS'44467'
p453
I3
sS'44466'
p454
I3
sS'44465'
p455
I3
sS'44464'
p456
I3
sS'44469'
p457
I3
sS'44468'
p458
I3
sS'0x5689'
p459
I1
sg141
I2
sS'0xe3d3'
p460
I1
sg144
I1
sg147
I1
sg149
I1
sg150
I1
sS'21100'
p461
I1
sS'0xf5d5'
p462
I1
sS'0x56ae'
p463
I1
sg182
I1
sS'27304'
p464
I1
sg190
I1
sg206
I3
sS'27302'
p465
I1
sg197
I1
sg52
I355
sg204
I1
sg211
I1
sS'0x9cdc'
p466
I1
sg227
I1
sS'0x789b'
p467
I1
sg347
I1
sS'0xbb8b'
p468
I1
sg257
I1
sg259
I1
sS'0xebe6'
p469
I1
sg265
I1
sg250
I1
sg268
I3
sS'53285'
p470
I1
sg289
I1
sS'27500'
p471
I1
sg294
I1
sS'44492'
p472
I3
sS'44493'
p473
I3
sS'44490'
p474
I3
sS'44491'
p475
I3
sS'44496'
p476
I3
sS'44497'
p477
I3
sS'44494'
p478
I3
sS'44495'
p479
I3
sg53
I9
sS'44498'
p480
I3
sS'44499'
p481
I3
sS'0xbd8e'
p482
I1
sg315
I1
sg299
I1
sS'21020'
p483
I1
sg229
I2
sS'20654'
p484
I1
sg342
I1
sS'0x248c'
p485
I1
sS'0xaee3'
p486
I1
sg369
I1
sS'0x18ca'
p487
I1
sg382
I1
sS'0x8389'
p488
I1
sg401
I1
sg402
I1
sg403
I1
sg405
I1
sg76
I1
sg77
I1
sS'0xb3e8'
p489
I1
sg82
I3
sg83
I1
sg84
I3
sg85
I3
sS'27047'
p490
I1
sg88
I4
sg89
I19
sg362
I1
sS'8010'
p491
I1
sg102
I1
sS'0xa0bb'
p492
I1
sg112
I1
sS'2015'
p493
I1
sS'2010'
p494
I2
sS'28825'
p495
I1
sS'0xa4b1'
p496
I1
sS'0x3185'
p497
I1
sS'0xf594'
p498
I1
sS'0xa7d7'
p499
I1
sS'44478'
p500
I3
sS'44479'
p501
I3
sS'33542'
p502
I1
sS'44475'
p503
I3
sS'44476'
p504
I3
sS'44477'
p505
I3
sS'44470'
p506
I3
sS'0x21d0'
p507
I1
sS'44472'
p508
I3
sS'44473'
p509
I3
sS'0x50d7'
p510
I1
sg357
I1
sg196
I1
sg59
I4477
sS'81'
p511
I7
sg175
I1
sS'44500'
p512
I3
sS'44501'
p513
I3
sS'44502'
p514
I3
sS'44503'
p515
I3
sS'44504'
p516
I3
sS'44505'
p517
I3
sS'44506'
p518
I3
sS'44507'
p519
I3
sg194
I1
sg202
I1
sS'0x1da1'
p520
I1
sg233
I2
sS'0xe6b2'
p521
I1
sS'0xab86'
p522
I1
sg242
I2
sg251
I2
sS'31010'
p523
I1
sg271
I1
sS'30060'
p524
I1
sg303
I3
sg304
I10
sg306
I15
sg195
I3
sg307
I211
sg308
I48
sg309
I2
sg256
I3
sg311
I29
sg258
I1
sg322
I1
sS'0x16a3'
p525
I1
sS'0x38ac'
p526
I1
sS'0xaf9c'
p527
I1
sg344
I4
sS'0xa4a6'
p528
I1
sg327
I2
sg392
I4
sS'0x19be'
p529
I1
sS'0x8fd0'
p530
I1
sS'44445'
p531
I3
sS'44444'
p532
I3
sS'44447'
p533
I3
sS'44446'
p534
I3
sS'0x9394'
p535
I1
sS'33538'
p536
I1
sS'44449'
p537
I3
sS'44448'
p538
I3
sg374
I1
sS'0xfbc3'
p539
I1
sS'0x0793'
p540
I1
sS'0x2bd4'
p541
I1
sS'0xb6da'
p542
I1
sS'34000'
p543
I1
sg80
I1
sg90
I1
sS'0x9b82'
p544
I1
sS'0x54a5'
p545
I1
sS'1024'
p546
I1
sS'0xa3c7'
p547
I1
sg126
I1
sS'0xd8a1'
p548
I1
sg95
I10
sg99
I1
sg132
I1
sg133
I1
sg134
I2
sS'0x9ba5'
p549
I1
sS'0xe7d2'
p550
I1
sS'0xbcbe'
p551
I1
sS'0xbc92'
p552
I1
sg288
I1
sS'33016'
p553
I1
sS'54834'
p554
I1
sS'54836'
p555
I1
sS'54833'
p556
I1
sS'0x0a9d'
p557
I1
sg209
I1
sS'0x13e3'
p558
I1
sg222
I1
sg231
I3
sS'0x32ec'
p559
I1
sg234
I1
sg235
I5
sS'0x9ccf'
p560
I1
sS'27077'
p561
I1
sg314
I2
sS'0x8882'
p562
I1
sS'0x3fb5'
p563
I1
sg263
I3
sg232
I1
sg266
I1
sg267
I4
sS'0xdbb5'
p564
I1
sg283
I1
sg292
I1
sg57
I1
sS'3724'
p565
I1
sg297
I1
sS'0x98ba'
p566
I1
sS'0x549a'
p567
I1
sS'0x15e6'
p568
I1
sg329
I3
sg330
I104
sg331
I67
sg332
I11
sg333
I62
sg334
I6
sg282
I2
sg336
I5
sS'0x7dc6'
p569
I1
sg338
I1
sg340
I3
sg341
I6
sS'0xf2e7'
p570
I1
sg348
I1
sg355
I1
sS'44474'
p571
I3
sg371
I1
sS'0x17d0'
p572
I1
sg383
I1
sg385
I1
sg386
I7
sg387
I6
sg388
I1
sg389
I1
sS'0xd5c8'
p573
I31
sS'44456'
p574
I3
sS'44457'
p575
I3
sS'44454'
p576
I3
sS'44455'
p577
I3
sS'44452'
p578
I3
sS'44453'
p579
I3
sS'44450'
p580
I3
sS'44451'
p581
I3
sg78
I1
sS'44458'
p582
I3
sS'44459'
p583
I3
sS'0x2bee'
p584
I1
sS'29196'
p585
I1
sS'0xace2'
p586
I1
sS'0x5cbe'
p587
I1
sg105
I3
sg108
I1
sS'0xbf87'
p588
I1
sg116
I2
sg129
I1
sg130
I1
sg164
I1
sS'28020'
p589
I2
sg137
I1
sg138
I1
sg54
I10701
sS'0xf5b6'
p590
I1
sS'0x6aa9'
p591
I1
sg92
I1
sg305
I2
sg167
I1
sg168
I1
sg171
I6
sg172
I2
sS'0xaded'
p592
I1
sS'27063'
p593
I1
sS'27064'
p594
I1
sg176
I7
sg177
I3
sg184
I1
sg87
I1
sg188
I1
sS'0x8ac2'
p595
I1
sS'1935'
p596
I2
sg98
I1
sg215
I1
sg219
I83
sg220
I41
sg207
I976
sg224
I4
sg320
I186
sg323
I136
sS'27011'
p597
I1
sg363
I1
sS'0xc8bc'
p598
I1
sg230
I3
sg238
I1
sS'0x72da'
p599
I1
sS'0xd9ce'
p600
I1
sS'0xe8cb'
p601
I1
sg260
I1
sS'44481'
p602
I3
sS'44480'
p603
I3
sS'44483'
p604
I3
sS'44482'
p605
I3
sS'44485'
p606
I3
sS'44484'
p607
I3
sS'44487'
p608
I3
sS'44486'
p609
I3
sS'44489'
p610
I3
sS'44488'
p611
I3
sg270
I2
sS'0x3a9e'
p612
I4
sg272
I3
sS'27082'
p613
I1
sg274
I2
sg298
I1
sg278
I1
sg319
I1
sS'0x88ea'
p614
I1
sS'33546'
p615
I1
sS'44471'
p616
I3
sS'27068'
p617
I1
sS'0x94e6'
p618
I1
sS'0x5db2'
p619
I1
sS'51122'
p620
I1
sS'1163'
p621
I1
sS'0x4fa9'
p622
I1
sS'24535'
p623
I1
sS'0xc413'
p624
I2
sS'0xf5a2'
p625
I1
sg395
I3
sg375
I9
sg376
I1
sg378
I6
sg379
I1
sS'27192'
p626
I1
sg396
I1
sg400
I1
sS'0x4c89'
p627
I1
sg406
I1
stp628
s.