(dp0
S'147.32.80.9'
p1
(I23
(dp2
S'52293'
p3
I1
sS'63810'
p4
I1
sS'55931'
p5
I1
sS'32641'
p6
I1
sS'28385'
p7
I1
sS'53521'
p8
I1
sS'38527'
p9
I1
sS'35388'
p10
I1
sS'50575'
p11
I1
sS'41375'
p12
I1
sS'57390'
p13
I1
sS'55468'
p14
I1
sS'4316'
p15
I1
sS'8371'
p16
I1
sS'64133'
p17
I1
sS'47767'
p18
I1
sS'11270'
p19
I1
sS'61969'
p20
I1
sS'56572'
p21
I1
sS'50501'
p22
I1
sS'53000'
p23
I1
sS'50428'
p24
I1
sS'55007'
p25
I1
stp26
sS'147.32.84.170'
p27
(I8960
(dp28
S'0x5b94'
p29
I1
sS'0x1fe3'
p30
I1
sS'443'
p31
I645
sS'5222'
p32
I5
sS'0x04ab'
p33
I1
sS'0x54ab'
p34
I1
sS'53'
p35
I5830
sS'0x2981'
p36
I1
sS'80'
p37
I2470
sS'81'
p38
I4
sS'0x96aa'
p39
I1
stp40
sS'147.32.87.11'
p41
(I2
(dp42
S'53'
p43
I2
stp44
sS'147.32.87.36'
p45
(I63
(dp46
S'2649'
p47
I1
sS'53'
p48
I54
sS'123'
p49
I5
sS'2646'
p50
I1
sS'51452'
p51
I1
sS'11932'
p52
I1
stp53
sS'147.32.84.165'
p54
(I20941
(dp55
S'10298'
p56
I2
sS'888'
p57
I10
sS'1928'
p58
I4
sS'88'
p59
I1
sS'179'
p60
I1402
sS'82'
p61
I2
sg37
I10514
sS'81'
p62
I4
sS'25'
p63
I5477
sS'3128'
p64
I30
sS'6667'
p65
I774
sS'7691'
p66
I8
sS'8735'
p67
I4
sS'2012'
p68
I1
sS'587'
p69
I33
sg31
I1666
sS'65520'
p70
I8
sS'65500'
p71
I196
sS'8339'
p72
I8
sS'6297'
p73
I1
sS'7212'
p74
I6
sS'53'
p75
I788
sS'41422'
p76
I2
stp77
sS'147.32.84.164'
p78
(I25
(dp79
S'80'
p80
I1
sg75
I7
sS'0xd5c8'
p81
I17
stp82
s.