(dp0
S'147.32.80.9'
p1
(I1
(dp2
S'42825'
p3
I1
stp4
sS'147.32.84.134'
p5
(I292
(dp6
S'443'
p7
I40
sS'5222'
p8
I1
sS'80'
p9
I57
sS'993'
p10
I1
sS'53'
p11
I193
stp12
sS'147.32.84.170'
p13
(I807
(dp14
g7
I41
sg8
I2
sg9
I229
sg11
I535
stp15
sS'147.32.87.36'
p16
(I48
(dp17
S'123'
p18
I1
sg11
I46
sS'44159'
p19
I1
stp20
sS'147.32.84.165'
p21
(I63
(dp22
g9
I41
sg18
I1
sg11
I21
stp23
sS'147.32.84.164'
p24
(I520
(dp25
g7
I8
sg8
I1
sg9
I108
sS'81'
p26
I1
sg11
I402
stp27
s.