(dp0
S'147.32.84.192'
p1
(I570
(dp2
S'45583'
p3
I1
sS'21485'
p4
I1
sS'43256'
p5
I1
sS'61109'
p6
I1
sS'16601'
p7
I1
sS'20913'
p8
I1
sS'18641'
p9
I1
sS'41876'
p10
I1
sS'26788'
p11
I1
sS'6881'
p12
I4
sS'30189'
p13
I1
sS'39440'
p14
I1
sS'26476'
p15
I1
sS'9732'
p16
I3
sS'9670'
p17
I1
sS'12836'
p18
I1
sS'10455'
p19
I1
sS'41816'
p20
I1
sS'32333'
p21
I1
sS'29355'
p22
I1
sS'16562'
p23
I1
sS'15040'
p24
I1
sS'5378'
p25
I1
sS'28424'
p26
I1
sS'48951'
p27
I1
sS'47731'
p28
I1
sS'13563'
p29
I1
sS'47904'
p30
I1
sS'42850'
p31
I1
sS'24967'
p32
I1
sS'3999'
p33
I1
sS'18223'
p34
I1
sS'29059'
p35
I1
sS'9684'
p36
I1
sS'43172'
p37
I1
sS'28109'
p38
I1
sS'27483'
p39
I1
sS'22470'
p40
I1
sS'8142'
p41
I1
sS'55336'
p42
I1
sS'5555'
p43
I1
sS'17716'
p44
I1
sS'53412'
p45
I1
sS'37002'
p46
I1
sS'4565'
p47
I1
sS'49580'
p48
I1
sS'14584'
p49
I1
sS'59654'
p50
I1
sS'20286'
p51
I1
sS'38604'
p52
I1
sS'25517'
p53
I1
sS'47335'
p54
I1
sS'64964'
p55
I1
sS'29739'
p56
I1
sS'43669'
p57
I1
sS'29685'
p58
I1
sS'5176'
p59
I1
sS'53'
p60
I71
sS'7600'
p61
I60
sS'25666'
p62
I1
sS'63481'
p63
I1
sS'2600'
p64
I1
sS'13259'
p65
I1
sS'36505'
p66
I1
sS'57602'
p67
I1
sS'36741'
p68
I1
sS'31452'
p69
I1
sS'12267'
p70
I1
sS'51769'
p71
I1
sS'60344'
p72
I1
sS'10049'
p73
I1
sS'34439'
p74
I1
sS'25522'
p75
I1
sS'49206'
p76
I1
sS'52250'
p77
I1
sS'21664'
p78
I1
sS'1089'
p79
I1
sS'12338'
p80
I1
sS'62992'
p81
I1
sS'62757'
p82
I1
sS'42991'
p83
I1
sS'31586'
p84
I1
sS'16413'
p85
I1
sS'82'
p86
I3
sS'22642'
p87
I1
sS'80'
p88
I120
sS'26208'
p89
I1
sS'53625'
p90
I1
sS'44183'
p91
I1
sS'11036'
p92
I1
sS'2308'
p93
I1
sS'61912'
p94
I1
sS'22992'
p95
I1
sS'49853'
p96
I1
sS'43897'
p97
I1
sS'26094'
p98
I1
sS'12011'
p99
I1
sS'56206'
p100
I1
sS'60426'
p101
I1
sS'29912'
p102
I1
sS'24778'
p103
I1
sS'23170'
p104
I1
sS'16237'
p105
I1
sS'45630'
p106
I1
sS'17319'
p107
I1
sS'12790'
p108
I1
sS'54836'
p109
I1
sS'18404'
p110
I1
sS'64172'
p111
I1
sS'22241'
p112
I1
sS'35269'
p113
I1
sS'44408'
p114
I1
sS'10330'
p115
I1
sS'1230'
p116
I1
sS'1231'
p117
I1
sS'25537'
p118
I1
sS'49767'
p119
I1
sS'64752'
p120
I1
sS'9084'
p121
I1
sS'45770'
p122
I1
sS'9253'
p123
I1
sS'24201'
p124
I1
sS'3151'
p125
I1
sS'60000'
p126
I2
sS'10541'
p127
I1
sS'16249'
p128
I1
sS'12728'
p129
I1
sS'62454'
p130
I1
sS'50982'
p131
I1
sS'21057'
p132
I1
sS'50005'
p133
I1
sS'22985'
p134
I1
sS'51359'
p135
I1
sS'554'
p136
I1
sS'51185'
p137
I1
sS'22587'
p138
I1
sS'48272'
p139
I1
sS'1536'
p140
I1
sS'18069'
p141
I1
sS'55632'
p142
I1
sS'62220'
p143
I1
sS'53922'
p144
I1
sS'46648'
p145
I1
sS'38785'
p146
I1
sS'50746'
p147
I1
sS'61730'
p148
I1
sS'4955'
p149
I1
sS'1348'
p150
I1
sS'8500'
p151
I1
sS'54312'
p152
I1
sS'16881'
p153
I2
sS'22205'
p154
I1
sS'47110'
p155
I1
sS'64523'
p156
I1
sS'51297'
p157
I1
sS'59459'
p158
I1
sS'14381'
p159
I1
sS'17200'
p160
I1
sS'38903'
p161
I1
sS'57461'
p162
I1
sS'1229'
p163
I1
sS'3802'
p164
I1
sS'22429'
p165
I1
sS'13327'
p166
I1
sS'60401'
p167
I1
sS'15644'
p168
I1
sS'63090'
p169
I1
sS'12963'
p170
I1
sS'10021'
p171
I1
sS'30464'
p172
I1
sS'24001'
p173
I1
sS'19605'
p174
I1
sS'7091'
p175
I1
sS'1580'
p176
I1
sS'5439'
p177
I1
sS'14737'
p178
I1
sS'62628'
p179
I1
sS'45206'
p180
I1
sS'16001'
p181
I5
sS'46890'
p182
I1
sS'43917'
p183
I1
sS'11935'
p184
I2
sS'37150'
p185
I1
sS'14015'
p186
I1
sS'57279'
p187
I1
sS'39606'
p188
I1
sS'19623'
p189
I1
sS'45864'
p190
I1
sS'56848'
p191
I1
sS'24592'
p192
I1
sS'10004'
p193
I1
sS'8086'
p194
I1
sS'52509'
p195
I1
sS'9567'
p196
I1
sS'13350'
p197
I1
sS'30392'
p198
I1
sS'44093'
p199
I1
sS'20001'
p200
I1
sS'35691'
p201
I1
sS'25025'
p202
I1
sS'52202'
p203
I1
sS'10014'
p204
I1
sS'1025'
p205
I1
sS'1024'
p206
I1
sS'1027'
p207
I1
sS'31815'
p208
I1
sS'20920'
p209
I1
sS'39591'
p210
I1
sS'16930'
p211
I1
sS'41386'
p212
I1
sS'10679'
p213
I1
sS'33243'
p214
I1
sS'46766'
p215
I1
sS'13763'
p216
I1
sS'13058'
p217
I1
sS'43626'
p218
I1
sS'1459'
p219
I1
sS'52185'
p220
I1
sS'64167'
p221
I1
sS'14651'
p222
I1
sS'21626'
p223
I1
sS'10986'
p224
I1
sS'47992'
p225
I1
sS'10001'
p226
I2
sS'63362'
p227
I1
sS'63627'
p228
I1
sS'555'
p229
I1
sS'41173'
p230
I1
sS'25460'
p231
I1
sS'51413'
p232
I3
sS'16051'
p233
I1
sS'57542'
p234
I1
sS'32115'
p235
I1
sS'12417'
p236
I1
sS'32150'
p237
I1
sS'38636'
p238
I1
sS'49557'
p239
I1
sS'26681'
p240
I1
sS'13581'
p241
I1
sS'40437'
p242
I1
sS'57496'
p243
I1
sS'42132'
p244
I1
sS'12626'
p245
I1
sS'1617'
p246
I1
sS'44708'
p247
I1
sS'48976'
p248
I1
sS'57966'
p249
I1
sS'45555'
p250
I1
sS'56388'
p251
I1
sS'64731'
p252
I1
sS'18634'
p253
I1
sS'32755'
p254
I1
sS'6912'
p255
I1
sS'19741'
p256
I1
sS'53789'
p257
I1
sS'34361'
p258
I1
sS'1177'
p259
I1
sS'39949'
p260
I1
sS'17773'
p261
I1
sS'46500'
p262
I1
sS'55191'
p263
I1
sS'54610'
p264
I1
sS'45153'
p265
I1
sS'26190'
p266
I1
sS'25040'
p267
I1
sS'17778'
p268
I1
sS'21094'
p269
I1
sS'11555'
p270
I1
sS'12047'
p271
I1
sS'11041'
p272
I1
sS'14372'
p273
I1
sS'8792'
p274
I1
sS'8000'
p275
I2
sS'62556'
p276
I1
sS'54340'
p277
I1
sS'48723'
p278
I1
sS'12366'
p279
I1
sS'27695'
p280
I1
sS'60967'
p281
I1
sS'31933'
p282
I1
sS'55048'
p283
I1
sS'1601'
p284
I1
sS'40034'
p285
I1
sS'49185'
p286
I1
sS'19679'
p287
I1
sS'22821'
p288
I1
sS'7158'
p289
I1
sS'20302'
p290
I1
sS'53966'
p291
I1
sS'4041'
p292
I5
sS'123'
p293
I1
sS'9252'
p294
I1
sS'37517'
p295
I1
sS'13239'
p296
I1
sS'1572'
p297
I1
sS'1045'
p298
I1
sS'4999'
p299
I2
sS'41206'
p300
I1
sS'56092'
p301
I1
stp302
sS'147.32.80.9'
p303
(I3
(dp304
S'51036'
p305
I1
sS'50161'
p306
I1
sS'42476'
p307
I1
stp308
sS'147.32.84.134'
p309
(I2145
(dp310
S'993'
p311
I6
sS'443'
p312
I294
sS'5222'
p313
I3
sS'53'
p314
I1288
sS'123'
p315
I1
sS'80'
p316
I552
sS'0xa0bd'
p317
I1
stp318
sS'222.160.227.154'
p319
(I5
(dp320
S'32234'
p321
I5
stp322
sS'69.104.66.134'
p323
(I4
(dp324
S'31037'
p325
I4
stp326
sS'147.32.84.170'
p327
(I4359
(dp328
g312
I127
sg313
I4
sg316
I1564
sS'81'
p329
I2
sg314
I2662
stp330
sS'147.32.87.36'
p331
(I30
(dp332
S'49465'
p333
I1
sS'49466'
p334
I1
sS'49467'
p335
I1
sS'49468'
p336
I1
sg60
I25
sS'123'
p337
I1
stp338
sS'93.103.254.175'
p339
(I4
(dp340
S'29676'
p341
I4
stp342
sS'147.32.84.191'
p343
(I766
(dp344
S'18495'
p345
I1
sS'60989'
p346
I1
sS'19711'
p347
I1
sS'48443'
p348
I1
sS'33325'
p349
I1
sS'11988'
p350
I1
sg17
I1
sS'45807'
p351
I1
sS'6728'
p352
I1
sS'52868'
p353
I1
sS'52942'
p354
I1
sS'1203'
p355
I1
sS'24166'
p356
I1
sS'56409'
p357
I1
sS'36108'
p358
I1
sg33
I1
sS'39101'
p359
I1
sS'61202'
p360
I1
sS'41797'
p361
I1
sS'54286'
p362
I1
sS'38047'
p363
I1
sS'24302'
p364
I1
sS'10005'
p365
I1
sS'14420'
p366
I1
sS'45932'
p367
I1
sS'45937'
p368
I1
sS'37629'
p369
I1
sS'37218'
p370
I1
sS'43772'
p371
I1
sS'44519'
p372
I1
sg71
I1
sS'21101'
p373
I1
sS'38485'
p374
I1
sS'46722'
p375
I1
sS'21842'
p376
I1
sS'51842'
p377
I1
sS'63773'
p378
I1
sS'36207'
p379
I1
sS'16254'
p380
I1
sS'61858'
p381
I1
sS'39568'
p382
I1
sS'62121'
p383
I1
sS'43695'
p384
I1
sS'7630'
p385
I1
sS'26092'
p386
I1
sS'14752'
p387
I1
sS'43974'
p388
I1
sS'7888'
p389
I1
sS'51119'
p390
I1
sg111
I1
sS'39843'
p391
I1
sS'2283'
p392
I1
sS'64351'
p393
I1
sS'57572'
p394
I1
sS'60001'
p395
I1
sS'44864'
p396
I1
sS'46799'
p397
I1
sS'40446'
p398
I1
sS'64216'
p399
I1
sS'14521'
p400
I1
sg140
I1
sS'21297'
p401
I1
sS'47388'
p402
I1
sS'45112'
p403
I1
sS'45115'
p404
I1
sg149
I1
sS'10415'
p405
I1
sg16
I1
sS'42811'
p406
I1
sS'23329'
p407
I1
sS'10387'
p408
I1
sS'11226'
p409
I1
sS'18855'
p410
I1
sS'7412'
p411
I1
sS'61330'
p412
I1
sS'46897'
p413
I1
sS'35970'
p414
I1
sS'62902'
p415
I1
sS'23395'
p416
I1
sS'35691'
p417
I2
sS'35693'
p418
I1
sS'55400'
p419
I1
sS'61248'
p420
I1
sS'14622'
p421
I1
sS'6800'
p422
I2
sS'60860'
p423
I1
sS'32830'
p424
I1
sS'13052'
p425
I1
sS'15815'
p426
I1
sS'25152'
p427
I1
sS'44330'
p428
I1
sg229
I1
sg136
I1
sS'14711'
p429
I1
sS'18338'
p430
I1
sS'16583'
p431
I1
sS'17824'
p432
I1
sS'12194'
p433
I1
sS'56784'
p434
I1
sS'1058'
p435
I1
sS'29564'
p436
I1
sS'51656'
p437
I1
sS'32752'
p438
I1
sS'52224'
p439
I1
sS'10838'
p440
I1
sS'51957'
p441
I1
sS'21795'
p442
I1
sS'18021'
p443
I1
sS'24528'
p444
I1
sS'18029'
p445
I1
sS'1284'
p446
I1
sS'25089'
p447
I1
sS'26069'
p448
I1
sS'24242'
p449
I1
sS'57629'
p450
I1
sS'30538'
p451
I1
sS'28046'
p452
I1
sS'1574'
p453
I1
sS'1305'
p454
I1
sS'58757'
p455
I1
sS'13833'
p456
I1
sS'31468'
p457
I1
sS'4388'
p458
I1
sS'16960'
p459
I1
sS'44724'
p460
I1
sS'12175'
p461
I1
sS'38216'
p462
I1
sg196
I1
sS'10747'
p463
I1
sS'13484'
p464
I1
sS'27482'
p465
I1
sS'58620'
p466
I1
sS'10288'
p467
I1
sS'32544'
p468
I1
sS'45964'
p469
I1
sS'49354'
p470
I1
sS'49824'
p471
I1
sS'38600'
p472
I1
sS'10442'
p473
I1
sS'21770'
p474
I1
sS'64184'
p475
I1
sS'12539'
p476
I1
sS'59819'
p477
I1
sS'8292'
p478
I1
sS'13391'
p479
I1
sS'10594'
p480
I1
sS'19366'
p481
I1
sS'54702'
p482
I1
sS'16660'
p483
I1
sS'60228'
p484
I1
sS'64765'
p485
I1
sS'62206'
p486
I1
sg82
I1
sS'62619'
p487
I1
sg86
I2
sS'54333'
p488
I1
sg88
I124
sS'22401'
p489
I1
sS'30688'
p490
I1
sS'20058'
p491
I1
sg292
I2
sS'19700'
p492
I1
sS'55988'
p493
I1
sS'56763'
p494
I1
sS'46499'
p495
I1
sS'34346'
p496
I2
sS'1134'
p497
I2
sS'50218'
p498
I1
sS'57438'
p499
I1
sS'46393'
p500
I2
sS'46409'
p501
I1
sS'46155'
p502
I1
sS'49435'
p503
I1
sS'53047'
p504
I1
sS'13874'
p505
I1
sS'34167'
p506
I1
sS'64439'
p507
I1
sS'16431'
p508
I1
sS'7851'
p509
I1
sS'17122'
p510
I1
sS'41918'
p511
I1
sS'50754'
p512
I1
sS'31160'
p513
I1
sS'46658'
p514
I1
sS'29652'
p515
I1
sS'26033'
p516
I1
sS'41297'
p517
I1
sS'20126'
p518
I1
sS'10407'
p519
I1
sS'9090'
p520
I1
sS'20082'
p521
I1
sS'41351'
p522
I1
sS'10019'
p523
I1
sS'23233'
p524
I1
sS'43227'
p525
I1
sS'15258'
p526
I1
sS'12570'
p527
I1
sS'54961'
p528
I1
sS'12345'
p529
I1
sS'22115'
p530
I1
sg230
I1
sS'34864'
p531
I1
sS'51718'
p532
I1
sS'19424'
p533
I1
sS'11875'
p534
I1
sS'28578'
p535
I1
sS'19888'
p536
I1
sS'21018'
p537
I1
sS'64657'
p538
I1
sS'22060'
p539
I1
sg271
I1
sS'3057'
p540
I1
sS'42479'
p541
I1
sS'58729'
p542
I1
sS'1042'
p543
I1
sS'1040'
p544
I1
sS'43007'
p545
I1
sS'20304'
p546
I1
sS'47852'
p547
I1
sS'58689'
p548
I1
sS'16115'
p549
I1
sS'1880'
p550
I1
sS'27353'
p551
I1
sS'34897'
p552
I1
sS'1142'
p553
I1
sS'44285'
p554
I1
sS'6967'
p555
I1
sS'40497'
p556
I1
sg12
I12
sS'24998'
p557
I1
sS'30833'
p558
I1
sS'64317'
p559
I1
sS'24251'
p560
I1
sS'52444'
p561
I1
sS'57140'
p562
I1
sS'42296'
p563
I1
sS'62532'
p564
I1
sS'17791'
p565
I1
sS'58990'
p566
I1
sS'28901'
p567
I1
sg293
I1
sS'60696'
p568
I1
sS'47333'
p569
I1
sS'25177'
p570
I1
sS'49622'
p571
I1
sS'51569'
p572
I1
sS'12439'
p573
I1
sS'36462'
p574
I1
sS'56888'
p575
I1
sS'53000'
p576
I1
sS'42618'
p577
I1
sS'10616'
p578
I1
sS'3948'
p579
I1
sS'10531'
p580
I1
sS'62323'
p581
I1
sS'32880'
p582
I1
sS'14837'
p583
I1
sS'26413'
p584
I1
sS'48666'
p585
I1
sS'29233'
p586
I1
sS'22645'
p587
I1
sS'49445'
p588
I1
sS'22993'
p589
I1
sS'21463'
p590
I1
sS'4494'
p591
I1
sg184
I2
sS'35287'
p592
I1
sS'44743'
p593
I1
sS'19218'
p594
I1
sS'58481'
p595
I1
sS'15635'
p596
I1
sg127
I1
sS'53532'
p597
I1
sS'33785'
p598
I1
sS'9008'
p599
I1
sS'57917'
p600
I1
sS'27398'
p601
I1
sg224
I1
sS'23788'
p602
I1
sS'11298'
p603
I1
sS'23548'
p604
I1
sS'18570'
p605
I1
sS'11290'
p606
I1
sS'18273'
p607
I1
sg153
I10
sS'19501'
p608
I1
sS'34356'
p609
I1
sS'24956'
p610
I1
sS'24213'
p611
I1
sS'51984'
p612
I2
sS'56282'
p613
I1
sS'57673'
p614
I1
sg175
I1
sS'38870'
p615
I1
sS'52687'
p616
I1
sS'29781'
p617
I1
sS'35455'
p618
I1
sS'40462'
p619
I1
sS'34173'
p620
I1
sg43
I1
sg197
I1
sS'23105'
p621
I1
sS'15016'
p622
I1
sS'59358'
p623
I1
sS'26775'
p624
I1
sS'25859'
p625
I1
sS'26124'
p626
I1
sS'56074'
p627
I1
sS'23007'
p628
I1
sS'11739'
p629
I1
sS'48100'
p630
I1
sS'10000'
p631
I2
sS'58114'
p632
I1
sS'63468'
p633
I1
sS'51413'
p634
I7
sS'62567'
p635
I1
sS'30897'
p636
I1
sS'24288'
p637
I1
sS'36558'
p638
I1
sS'30899'
p639
I1
sS'33302'
p640
I1
sS'25929'
p641
I1
sS'35771'
p642
I1
sS'22104'
p643
I1
sS'14412'
p644
I1
sg275
I2
sS'26952'
p645
I1
sS'56484'
p646
I1
sS'54616'
p647
I1
sS'22692'
p648
I1
sS'40896'
p649
I1
sg155
I1
sS'9669'
p650
I1
sS'56457'
p651
I1
sS'63141'
p652
I1
sS'26583'
p653
I1
sS'24724'
p654
I1
sS'54278'
p655
I1
sS'18647'
p656
I1
sS'14345'
p657
I1
sg214
I1
sS'55857'
p658
I1
sS'29866'
p659
I1
sS'44357'
p660
I1
sS'18649'
p661
I1
sS'26829'
p662
I1
sS'19795'
p663
I1
sS'13637'
p664
I1
sS'40825'
p665
I1
sS'40395'
p666
I1
sS'12678'
p667
I1
sS'1077'
p668
I1
sS'33982'
p669
I1
sS'33980'
p670
I1
sS'61265'
p671
I1
sS'13003'
p672
I1
sS'64865'
p673
I1
sS'21918'
p674
I1
sS'56024'
p675
I1
sS'19869'
p676
I1
sS'60102'
p677
I1
sS'24980'
p678
I1
sS'38289'
p679
I1
sS'52387'
p680
I1
sS'17856'
p681
I1
sS'15696'
p682
I1
sS'47939'
p683
I1
sg60
I71
sg61
I58
sS'11777'
p684
I1
sS'46747'
p685
I1
sS'49752'
p686
I1
sS'20613'
p687
I1
sS'13859'
p688
I1
sS'47659'
p689
I1
sS'50187'
p690
I1
sS'51454'
p691
I1
sg92
I1
sS'53381'
p692
I1
sS'59308'
p693
I1
sS'55131'
p694
I1
sS'58864'
p695
I1
sg126
I2
sS'20530'
p696
I1
sS'11955'
p697
I1
sS'54546'
p698
I1
sS'34749'
p699
I1
sS'21454'
p700
I1
sS'26429'
p701
I1
sS'23254'
p702
I1
sS'23258'
p703
I1
sg134
I1
sS'21693'
p704
I1
sS'27015'
p705
I1
sS'27017'
p706
I1
sS'24681'
p707
I1
sS'50509'
p708
I2
sS'12802'
p709
I1
sS'55000'
p710
I1
sS'22255'
p711
I2
sS'8035'
p712
I1
sg177
I1
sS'15896'
p713
I1
sS'23779'
p714
I1
sS'61256'
p715
I1
sS'10250'
p716
I1
sS'17179'
p717
I1
sS'20030'
p718
I1
sS'34845'
p719
I1
sS'13676'
p720
I1
sS'23799'
p721
I1
sS'50606'
p722
I1
sg181
I12
sS'43964'
p723
I1
sS'47479'
p724
I1
sS'24947'
p725
I1
sS'60492'
p726
I1
sS'46472'
p727
I1
sS'52342'
p728
I1
sS'14251'
p729
I1
sS'1593'
p730
I1
sS'50238'
p731
I1
sS'1024'
p732
I1
sS'30791'
p733
I1
sS'1188'
p734
I1
sS'7163'
p735
I1
sS'28570'
p736
I1
sS'1183'
p737
I1
sS'6112'
p738
I1
sS'46178'
p739
I1
sS'43431'
p740
I1
sS'27333'
p741
I1
sS'31685'
p742
I1
sS'35169'
p743
I1
sS'1207'
p744
I1
sg234
I1
sg208
I1
sS'59343'
p745
I1
sS'44898'
p746
I1
sS'13349'
p747
I1
sg241
I1
sg243
I1
sS'39447'
p748
I1
sS'24530'
p749
I1
sS'59188'
p750
I1
sS'17199'
p751
I1
sS'31140'
p752
I1
sS'1563'
p753
I1
sg69
I1
sS'10074'
p754
I1
sS'48202'
p755
I1
sS'50946'
p756
I1
sS'47729'
p757
I1
sS'12554'
p758
I1
sS'38679'
p759
I1
sS'23197'
p760
I1
sS'23622'
p761
I1
sS'19129'
p762
I1
sS'63681'
p763
I1
sS'27757'
p764
I1
sS'8995'
p765
I1
sS'57423'
p766
I1
sS'50837'
p767
I1
sS'61670'
p768
I1
sg299
I1
stp769
sS'91.188.37.153'
p770
(I4
(dp771
S'32234'
p772
I4
stp773
sS'147.32.84.165'
p774
(I807
(dp775
S'48115'
p776
I1
sS'45028'
p777
I1
sS'20913'
p778
I1
sS'58229'
p779
I1
sS'60987'
p780
I1
sS'18499'
p781
I1
sg349
I1
sS'27286'
p782
I1
sg17
I1
sS'24042'
p783
I1
sS'61109'
p784
I1
sS'26373'
p785
I1
sS'10100'
p786
I1
sg212
I1
sS'48447'
p787
I1
sS'57043'
p788
I1
sS'65023'
p789
I1
sS'13245'
p790
I1
sS'51281'
p791
I1
sS'59097'
p792
I1
sg45
I1
sS'6842'
p793
I1
sS'15754'
p794
I1
sS'57931'
p795
I1
sS'45930'
p796
I1
sS'54598'
p797
I1
sg369
I1
sS'29280'
p798
I1
sS'1662'
p799
I1
sg71
I1
sS'25522'
p800
I1
sS'17555'
p801
I1
sS'56052'
p802
I1
sS'36207'
p803
I1
sS'41839'
p804
I1
sS'37981'
p805
I1
sg240
I1
sS'61993'
p806
I1
sS'61991'
p807
I1
sS'28038'
p808
I1
sS'29912'
p809
I1
sS'61142'
p810
I1
sS'52308'
p811
I1
sg111
I1
sS'5000'
p812
I1
sS'49769'
p813
I1
sS'39846'
p814
I1
sS'49767'
p815
I1
sS'16950'
p816
I1
sg126
I1
sS'59274'
p817
I1
sS'39927'
p818
I1
sS'63107'
p819
I1
sS'26750'
p820
I1
sS'11004'
p821
I1
sS'45682'
p822
I1
sS'36447'
p823
I1
sg140
I1
sS'29143'
p824
I1
sS'42221'
p825
I1
sS'45115'
p826
I1
sg149
I1
sS'58177'
p827
I1
sS'33478'
p828
I1
sS'53600'
p829
I1
sS'57304'
p830
I1
sS'10028'
p831
I1
sS'10029'
p832
I2
sS'10026'
p833
I1
sS'10027'
p834
I1
sS'10025'
p835
I1
sS'26434'
p836
I1
sS'22879'
p837
I1
sS'10020'
p838
I1
sg171
I1
sS'13205'
p839
I1
sS'21685'
p840
I1
sS'60641'
p841
I1
sS'3516'
p842
I2
sS'48366'
p843
I1
sg417
I8
sS'61338'
p844
I1
sS'12337'
p845
I1
sS'7555'
p846
I1
sS'19339'
p847
I1
sS'27873'
p848
I1
sS'3999'
p849
I1
sS'10008'
p850
I1
sS'15860'
p851
I1
sS'37383'
p852
I1
sS'32589'
p853
I1
sS'12626'
p854
I1
sS'20001'
p855
I2
sS'38643'
p856
I1
sS'35570'
p857
I1
sS'14147'
p858
I1
sS'62811'
p859
I1
sS'62761'
p860
I1
sS'20008'
p861
I1
sS'60860'
p862
I1
sS'5228'
p863
I1
sS'10846'
p864
I1
sS'24159'
p865
I1
sS'14816'
p866
I1
sS'11862'
p867
I1
sS'26177'
p868
I1
sS'27135'
p869
I1
sS'29880'
p870
I1
sS'0xb01d'
p871
I9
sg229
I1
sS'554'
p872
I1
sS'18338'
p873
I1
sS'58598'
p874
I1
sS'7675'
p875
I1
sg433
I1
sS'26211'
p876
I1
sS'56785'
p877
I1
sS'1056'
p878
I1
sS'37773'
p879
I1
sS'52755'
p880
I1
sS'51157'
p881
I1
sS'10933'
p882
I1
sS'21875'
p883
I1
sS'17507'
p884
I1
sS'63709'
p885
I1
sS'45881'
p886
I1
sS'15919'
p887
I1
sS'50965'
p888
I1
sg445
I1
sg449
I1
sS'49001'
p889
I1
sg297
I1
sg301
I1
sS'50892'
p890
I1
sS'57443'
p891
I1
sS'8015'
p892
I1
sS'7456'
p893
I1
sS'56894'
p894
I1
sS'36477'
p895
I1
sS'16961'
p896
I1
sS'50028'
p897
I1
sS'9567'
p898
I1
sS'13481'
p899
I1
sS'50828'
p900
I2
sS'10744'
p901
I1
sS'36771'
p902
I1
sS'55629'
p903
I1
sS'18631'
p904
I1
sS'14107'
p905
I1
sS'59711'
p906
I1
sS'18564'
p907
I1
sS'17716'
p908
I3
sS'13727'
p909
I1
sS'10444'
p910
I1
sS'20513'
p911
I1
sS'11023'
p912
I1
sS'14999'
p913
I1
sS'51276'
p914
I1
sS'10592'
p915
I1
sg479
I1
sS'58810'
p916
I1
sS'0xc90f'
p917
I4
sS'28138'
p918
I1
sS'25229'
p919
I1
sg483
I1
sS'32092'
p920
I1
sS'62755'
p921
I1
sS'16098'
p922
I1
sg82
I1
sS'7035'
p923
I1
sS'5494'
p924
I1
sg316
I110
sS'14206'
p925
I1
sS'32794'
p926
I1
sS'23872'
p927
I2
sg759
I1
sg292
I6
sS'23972'
p928
I1
sS'14193'
p929
I1
sS'34900'
p930
I1
sS'31902'
p931
I1
sS'64387'
p932
I1
sS'8115'
p933
I1
sS'64844'
p934
I1
sS'32166'
p935
I1
sS'15527'
p936
I1
sS'56982'
p937
I1
sS'60084'
p938
I1
sS'24201'
p939
I2
sS'51856'
p940
I1
sS'22708'
p941
I1
sS'64984'
p942
I1
sS'57586'
p943
I2
sS'14689'
p944
I1
sg501
I1
sg270
I1
sS'11450'
p945
I1
sS'2373'
p946
I1
sS'8500'
p947
I1
sS'63055'
p948
I1
sS'10308'
p949
I1
sS'8294'
p950
I1
sg511
I1
sS'15009'
p951
I1
sS'64189'
p952
I1
sS'28090'
p953
I1
sS'2884'
p954
I1
sS'2059'
p955
I1
sS'47251'
p956
I1
sS'26134'
p957
I1
sS'21935'
p958
I1
sS'46658'
p959
I1
sS'62477'
p960
I1
sS'23335'
p961
I1
sg523
I1
sS'10018'
p962
I1
sS'10012'
p963
I1
sS'10011'
p964
I1
sS'46876'
p965
I1
sS'10016'
p966
I1
sS'10015'
p967
I1
sg204
I1
sS'3887'
p968
I1
sS'30947'
p969
I1
sS'16930'
p970
I1
sS'59211'
p971
I1
sg527
I1
sS'53722'
p972
I1
sS'55142'
p973
I1
sg230
I1
sS'16056'
p974
I1
sS'9753'
p975
I1
sS'43093'
p976
I1
sS'44991'
p977
I1
sS'27108'
p978
I1
sS'41450'
p979
I1
sS'14807'
p980
I1
sS'56649'
p981
I1
sS'56642'
p982
I1
sS'27811'
p983
I1
sS'1042'
p984
I1
sS'22590'
p985
I1
sS'43004'
p986
I1
sS'29479'
p987
I1
sS'0x01c0'
p988
I3
sS'2235'
p989
I1
sS'33585'
p990
I1
sS'57595'
p991
I1
sS'29596'
p992
I1
sS'56031'
p993
I1
sS'49103'
p994
I1
sS'8881'
p995
I1
sS'41704'
p996
I1
sS'21089'
p997
I1
sS'62938'
p998
I1
sS'61879'
p999
I1
sS'28424'
p1000
I1
sS'57148'
p1001
I1
sS'26277'
p1002
I1
sS'48384'
p1003
I1
sS'34465'
p1004
I1
sS'7195'
p1005
I1
sS'1462'
p1006
I1
sS'62847'
p1007
I1
sS'9371'
p1008
I1
sS'28904'
p1009
I1
sS'42101'
p1010
I1
sS'10051'
p1011
I1
sg315
I1
sS'17156'
p1012
I1
sS'37504'
p1013
I1
sS'17251'
p1014
I1
sg568
I1
sS'37509'
p1015
I1
sS'54848'
p1016
I1
sS'53390'
p1017
I1
sS'41929'
p1018
I1
sS'14503'
p1019
I1
sS'44742'
p1020
I1
sS'38415'
p1021
I1
sS'6563'
p1022
I1
sS'35929'
p1023
I1
sS'27031'
p1024
I1
sS'10531'
p1025
I1
sS'10539'
p1026
I1
sS'61436'
p1027
I1
sg21
I1
sS'11562'
p1028
I1
sg586
I1
sS'4128'
p1029
I1
sS'13902'
p1030
I1
sS'50667'
p1031
I1
sS'24107'
p1032
I1
sS'11360'
p1033
I1
sS'55749'
p1034
I1
sS'35854'
p1035
I1
sS'36518'
p1036
I1
sS'20989'
p1037
I1
sS'35329'
p1038
I1
sg184
I1
sg110
I1
sS'14236'
p1039
I1
sg594
I1
sS'25040'
p1040
I1
sS'10547'
p1041
I1
sg127
I1
sS'12641'
p1042
I1
sS'26912'
p1043
I1
sS'14600'
p1044
I1
sS'30576'
p1045
I1
sS'39606'
p1046
I1
sg224
I2
sS'16011'
p1047
I1
sS'14286'
p1048
I1
sS'55632'
p1049
I1
sS'13139'
p1050
I1
sS'15948'
p1051
I1
sg153
I7
sg610
I1
sS'21048'
p1052
I1
sS'25783'
p1053
I1
sS'16238'
p1054
I1
sg175
I1
sg176
I1
sg183
I1
sS'17112'
p1055
I1
sS'9503'
p1056
I1
sS'5555'
p1057
I1
sS'21512'
p1058
I1
sS'27736'
p1059
I1
sS'27737'
p1060
I1
sS'59381'
p1061
I1
sS'11145'
p1062
I1
sS'26775'
p1063
I1
sS'3685'
p1064
I1
sS'1103'
p1065
I1
sS'10006'
p1066
I1
sS'10007'
p1067
I2
sS'10000'
p1068
I4
sg226
I3
sS'10002'
p1069
I1
sS'13798'
p1070
I1
sg186
I1
sS'45864'
p1071
I1
sS'54472'
p1072
I2
sg634
I10
sS'27184'
p1073
I1
sS'10360'
p1074
I1
sS'21313'
p1075
I1
sS'33111'
p1076
I1
sS'44708'
p1077
I1
sS'38562'
p1078
I1
sS'42531'
p1079
I1
sS'2743'
p1080
I1
sS'28761'
p1081
I1
sS'53691'
p1082
I1
sg641
I1
sS'10487'
p1083
I1
sS'18894'
p1084
I1
sS'39645'
p1085
I1
sS'23824'
p1086
I1
sS'49435'
p1087
I1
sS'1601'
p1088
I1
sS'62491'
p1089
I1
sS'1605'
p1090
I1
sS'24724'
p1091
I1
sS'59837'
p1092
I1
sS'33452'
p1093
I1
sS'11192'
p1094
I1
sS'25074'
p1095
I1
sS'2841'
p1096
I1
sS'9732'
p1097
I1
sS'17927'
p1098
I1
sS'3329'
p1099
I1
sS'35630'
p1100
I1
sS'38944'
p1101
I1
sg665
I1
sS'40824'
p1102
I1
sS'1079'
p1103
I1
sS'27369'
p1104
I1
sS'10812'
p1105
I1
sS'18192'
p1106
I1
sS'57124'
p1107
I1
sS'8142'
p1108
I1
sS'57690'
p1109
I1
sS'49502'
p1110
I1
sS'30293'
p1111
I1
sg678
I1
sS'9903'
p1112
I1
sS'11672'
p1113
I1
sS'61869'
p1114
I1
sS'31668'
p1115
I1
sS'28343'
p1116
I1
sg314
I68
sg61
I64
sS'2394'
p1117
I1
sS'9427'
p1118
I1
sS'20613'
p1119
I1
sS'62404'
p1120
I1
sS'47302'
p1121
I1
sS'31402'
p1122
I1
sS'52659'
p1123
I1
sS'8680'
p1124
I1
sS'16416'
p1125
I1
sS'15432'
p1126
I1
sS'17773'
p1127
I1
sS'52499'
p1128
I1
sg692
I1
sS'26604'
p1129
I1
sS'10022'
p1130
I1
sg694
I1
sS'10023'
p1131
I1
sS'53938'
p1132
I1
sS'29631'
p1133
I1
sS'9466'
p1134
I1
sS'20851'
p1135
I1
sS'62351'
p1136
I1
sS'53207'
p1137
I1
sS'22651'
p1138
I1
sS'9089'
p1139
I1
sS'48578'
p1140
I1
sg122
I1
sS'34749'
p1141
I1
sS'60638'
p1142
I1
sg134
I1
sg705
I1
sg289
I1
sS'36910'
p1143
I1
sS'24767'
p1144
I1
sS'54640'
p1145
I1
sS'19342'
p1146
I1
sS'65205'
p1147
I1
sS'12730'
p1148
I1
sS'27846'
p1149
I1
sS'64288'
p1150
I1
sS'39611'
p1151
I1
sS'37719'
p1152
I1
sg181
I7
sS'45072'
p1153
I1
sg570
I1
sS'56113'
p1154
I1
sS'21031'
p1155
I1
sS'63609'
p1156
I1
sS'16731'
p1157
I1
sS'63976'
p1158
I1
sS'56848'
p1159
I1
sS'57240'
p1160
I1
sg544
I1
sS'7646'
p1161
I1
sS'6881'
p1162
I7
sS'1047'
p1163
I1
sS'16637'
p1164
I1
sS'25023'
p1165
I1
sg206
I2
sS'1027'
p1166
I1
sS'39697'
p1167
I1
sg735
I1
sS'62173'
p1168
I1
sS'56206'
p1169
I1
sS'30266'
p1170
I1
sS'37146'
p1171
I1
sg213
I1
sS'1048'
p1172
I1
sg225
I1
sS'7286'
p1173
I1
sS'63773'
p1174
I1
sS'47611'
p1175
I1
sS'12896'
p1176
I1
sS'82'
p1177
I2
sS'49088'
p1178
I1
sS'25564'
p1179
I1
sS'65535'
p1180
I1
sg241
I1
sg156
I1
sS'26117'
p1181
I1
sS'43151'
p1182
I1
sg753
I1
sS'31630'
p1183
I1
sS'64956'
p1184
I1
sg69
I1
sS'49335'
p1185
I1
sS'50946'
p1186
I1
sS'54462'
p1187
I1
sS'42719'
p1188
I1
sS'63410'
p1189
I1
sS'8000'
p1190
I3
sS'4398'
p1191
I1
sg279
I1
sS'36401'
p1192
I1
sS'8994'
p1193
I1
sS'25837'
p1194
I1
sS'28610'
p1195
I1
sS'62954'
p1196
I1
sS'53804'
p1197
I1
sg299
I1
stp1198
sS'147.32.84.164'
p1199
(I1075
(dp1200
g312
I39
sg313
I2
sg314
I589
sg316
I439
sS'81'
p1201
I1
sS'0xd5c8'
p1202
I5
stp1203
sS'161.200.133.204'
p1204
(I4
(dp1205
g772
I4
stp1206
sS'95.65.17.47'
p1207
(I4
(dp1208
g772
I4
stp1209
s.