(dp0
S'147.32.80.9'
p1
(I20
(dp2
S'1024'
p3
I1
sS'25709'
p4
I1
sS'59875'
p5
I1
sS'50518'
p6
I1
sS'35616'
p7
I1
sS'63781'
p8
I1
sS'60087'
p9
I1
sS'49070'
p10
I1
sS'21178'
p11
I1
sS'35832'
p12
I1
sS'58824'
p13
I1
sS'55471'
p14
I1
sS'51133'
p15
I1
sS'38421'
p16
I1
sS'63862'
p17
I1
sS'48678'
p18
I1
sS'56737'
p19
I1
sS'6113'
p20
I1
sS'51605'
p21
I1
sS'65376'
p22
I1
stp23
sS'147.32.84.134'
p24
(I682
(dp25
S'443'
p26
I270
sS'5222'
p27
I3
sS'80'
p28
I93
sS'993'
p29
I4
sS'53'
p30
I312
stp31
sS'147.32.84.170'
p32
(I5488
(dp33
g26
I309
sg27
I4
sS'20022'
p34
I3
sg30
I3469
sS'80'
p35
I1701
sS'81'
p36
I2
stp37
sS'147.32.87.36'
p38
(I31
(dp39
S'64423'
p40
I1
sS'64424'
p41
I1
sS'123'
p42
I2
sS'49502'
p43
I1
sS'53'
p44
I26
stp45
sS'147.32.84.165'
p46
(I4630
(dp47
S'25'
p48
I4398
sS'2869'
p49
I1
sg30
I29
sS'123'
p50
I1
sS'5678'
p51
I199
sg35
I2
stp52
sS'147.32.84.164'
p53
(I1245
(dp54
g26
I34
sg27
I3
sg30
I902
sg35
I294
sS'81'
p55
I3
sS'0xd5c8'
p56
I9
stp57
s.