(dp0
S'147.32.84.192'
p1
(I7
(dp2
S'80'
p3
I1
sS'123'
p4
I1
sS'6667'
p5
I1
sS'53'
p6
I4
stp7
sS'147.32.80.9'
p8
(I1
(dp9
S'40206'
p10
I1
stp11
sS'147.32.84.134'
p12
(I11
(dp13
S'443'
p14
I4
sS'80'
p15
I2
sS'993'
p16
I1
sS'53'
p17
I4
stp18
sS'147.32.87.11'
p19
(I2
(dp20
g17
I2
stp21
sS'147.32.84.170'
p22
(I581
(dp23
g14
I43
sS'5222'
p24
I1
sg6
I368
sS'1'
p25
I4
sg3
I164
sS'81'
p26
I1
stp27
sS'147.32.87.36'
p28
(I1
(dp29
g6
I1
stp30
sS'147.32.84.191'
p31
(I247
(dp32
g5
I1
sS'0x0079'
p33
I1
sS'0x0078'
p34
I1
sS'0x00c9'
p35
I1
sS'0x0073'
p36
I1
sS'0x0072'
p37
I1
sS'0x0071'
p38
I1
sS'0x0070'
p39
I1
sS'0x0077'
p40
I1
sS'0x0076'
p41
I1
sS'0x0075'
p42
I1
sS'0x0074'
p43
I1
sS'0x008f'
p44
I1
sS'0x00db'
p45
I1
sS'0x008d'
p46
I1
sS'0x008e'
p47
I1
sS'0x008b'
p48
I1
sS'0x008c'
p49
I1
sS'0x008a'
p50
I1
sS'0x00ba'
p51
I1
sS'0x00bb'
p52
I1
sS'0x00bc'
p53
I1
sS'0x00bd'
p54
I1
sS'0x00be'
p55
I1
sS'0x00bf'
p56
I1
sS'0x00da'
p57
I1
sS'0x00a9'
p58
I1
sS'0x00a8'
p59
I1
sS'0x000f'
p60
I1
sS'0x00a4'
p61
I1
sS'0x000d'
p62
I1
sS'0x000e'
p63
I1
sS'0x000b'
p64
I1
sS'0x000c'
p65
I1
sS'0x00a3'
p66
I1
sS'0x000a'
p67
I1
sS'0x00dd'
p68
I1
sS'0x007c'
p69
I1
sS'0x007b'
p70
I1
sS'0x007a'
p71
I1
sS'0x00de'
p72
I1
sS'0x007f'
p73
I1
sS'0x007e'
p74
I1
sS'0x007d'
p75
I1
sg4
I1
sS'0x0008'
p76
I1
sS'0x0009'
p77
I1
sS'0x0006'
p78
I1
sS'0x0007'
p79
I1
sS'0x0004'
p80
I1
sS'0x0005'
p81
I1
sS'0x0002'
p82
I1
sS'0x0003'
p83
I1
sS'0x00ac'
p84
I1
sS'0x0001'
p85
I1
sS'0x0086'
p86
I1
sS'0x0087'
p87
I1
sS'0x0084'
p88
I1
sS'0x0085'
p89
I1
sS'0x0082'
p90
I1
sS'0x0083'
p91
I1
sS'0x0080'
p92
I1
sS'0x0081'
p93
I1
sS'0x00b0'
p94
I1
sS'0x00b1'
p95
I1
sS'0x00b2'
p96
I1
sS'0x00b3'
p97
I1
sS'0x00b4'
p98
I1
sS'0x00b5'
p99
I1
sS'0x0088'
p100
I1
sS'0x0089'
p101
I1
sS'0x00af'
p102
I1
sS'0x00aa'
p103
I1
sS'0x00c3'
p104
I1
sg6
I4
sg3
I1
sS'0x00ab'
p105
I1
sS'0x00c7'
p106
I1
sS'0x00b8'
p107
I1
sS'0x00c5'
p108
I1
sS'0x00c4'
p109
I1
sS'0x0019'
p110
I1
sS'0x0018'
p111
I1
sS'0x00c1'
p112
I1
sS'0x00b9'
p113
I1
sS'0x0015'
p114
I1
sS'0x0014'
p115
I1
sS'0x0017'
p116
I1
sS'0x0016'
p117
I1
sS'0x0011'
p118
I1
sS'0x0010'
p119
I1
sS'0x0013'
p120
I1
sS'0x0012'
p121
I1
sS'0x0095'
p122
I1
sS'0x0094'
p123
I1
sS'0x0097'
p124
I1
sS'0x0096'
p125
I1
sS'0x00df'
p126
I1
sS'0x0090'
p127
I1
sS'0x0093'
p128
I1
sS'0x0092'
p129
I1
sS'0x002a'
p130
I1
sS'0x002b'
p131
I1
sS'0x002c'
p132
I1
sS'0x002d'
p133
I1
sS'0x002e'
p134
I1
sS'0x002f'
p135
I1
sS'0x00c2'
p136
I1
sS'0x009e'
p137
I1
sS'0x0029'
p138
I1
sS'0x00d0'
p139
I1
sS'0x0091'
p140
I1
sS'0x009a'
p141
I1
sS'0x00d7'
p142
I1
sS'0x009c'
p143
I1
sS'0x009b'
p144
I1
sS'0x0020'
p145
I1
sS'0x0021'
p146
I1
sS'0x0022'
p147
I1
sS'0x0023'
p148
I1
sS'0x0024'
p149
I1
sS'0x0025'
p150
I1
sS'0x0026'
p151
I1
sS'0x0027'
p152
I1
sS'0x00cf'
p153
I1
sS'0x00ce'
p154
I1
sS'0x00cd'
p155
I1
sS'0x00cc'
p156
I1
sS'0x00b6'
p157
I1
sS'0x00ca'
p158
I1
sS'0x00e8'
p159
I1
sS'0x001e'
p160
I1
sS'0x001d'
p161
I1
sS'0x001f'
p162
I1
sS'0x001a'
p163
I1
sS'0x001c'
p164
I1
sS'0x001b'
p165
I1
sS'0x004b'
p166
I1
sS'0x004c'
p167
I1
sS'0x004a'
p168
I1
sS'0x004f'
p169
I1
sS'0x004d'
p170
I1
sS'0x004e'
p171
I1
sS'0x0037'
p172
I1
sS'0x0036'
p173
I1
sS'0x0035'
p174
I1
sS'0x0034'
p175
I1
sS'0x0033'
p176
I1
sS'0x0032'
p177
I1
sS'0x0031'
p178
I1
sS'0x0030'
p179
I1
sS'0x0039'
p180
I1
sS'0x0038'
p181
I1
sS'0x00e1'
p182
I1
sS'0x00e0'
p183
I1
sS'0x00e3'
p184
I1
sS'0x00e2'
p185
I1
sS'0x00e5'
p186
I1
sS'0x00e4'
p187
I1
sS'0x00e7'
p188
I1
sS'0x00e6'
p189
I1
sS'0x00e9'
p190
I1
sS'0x00ae'
p191
I1
sS'0x0028'
p192
I1
sS'0x003e'
p193
I1
sS'0x003d'
p194
I1
sS'0x003c'
p195
I1
sS'0x003b'
p196
I1
sS'0x003a'
p197
I1
sS'0x009d'
p198
I1
sS'0x0042'
p199
I1
sS'0x00a5'
p200
I1
sS'0x0040'
p201
I1
sS'0x009f'
p202
I1
sS'0x0046'
p203
I1
sS'0x0047'
p204
I1
sS'0x0044'
p205
I1
sS'0x0045'
p206
I1
sS'0x00d6'
p207
I1
sS'0x0048'
p208
I1
sS'0x0049'
p209
I1
sS'0x00a7'
p210
I1
sS'0x00a6'
p211
I1
sS'0x00d4'
p212
I1
sS'0x00a1'
p213
I1
sS'0x00d5'
p214
I1
sS'0x00f0'
p215
I1
sS'0x00d2'
p216
I1
sS'0x00a0'
p217
I1
sS'0x00ea'
p218
I1
sS'0x00ec'
p219
I1
sS'0x00eb'
p220
I1
sS'0x00ee'
p221
I1
sS'0x00ed'
p222
I1
sS'0x00ef'
p223
I1
sS'0x00a2'
p224
I1
sS'0x00d8'
p225
I1
sS'0x00d9'
p226
I1
sS'0x003f'
p227
I1
sS'0x006d'
p228
I1
sS'0x006e'
p229
I1
sS'0x006f'
p230
I1
sS'0x00d3'
p231
I1
sS'0x006a'
p232
I1
sS'0x006b'
p233
I1
sS'0x006c'
p234
I1
sS'0x0051'
p235
I1
sS'0x0050'
p236
I1
sS'0x0053'
p237
I1
sS'0x0052'
p238
I1
sS'0x0055'
p239
I1
sS'0x0054'
p240
I1
sS'0x0057'
p241
I1
sS'0x0056'
p242
I1
sS'0x0059'
p243
I1
sS'0x0058'
p244
I1
sS'0x00c8'
p245
I1
sS'0x00cb'
p246
I1
sS'0x005a'
p247
I1
sS'0x005c'
p248
I1
sS'0x005b'
p249
I1
sS'0x005e'
p250
I1
sS'0x005d'
p251
I1
sS'0x00d1'
p252
I1
sS'0x0099'
p253
I1
sS'0x0068'
p254
I1
sS'0x0069'
p255
I1
sS'0x0064'
p256
I1
sS'0x0065'
p257
I1
sS'0x0066'
p258
I1
sS'0x0067'
p259
I1
sS'0x0060'
p260
I1
sS'0x0061'
p261
I1
sS'0x0062'
p262
I1
sS'0x0063'
p263
I1
sS'0x0043'
p264
I1
sS'0x00dc'
p265
I1
sS'0x00b7'
p266
I1
sS'0x0098'
p267
I1
sS'0x0041'
p268
I1
sS'0x005f'
p269
I1
sS'0x00c6'
p270
I1
sS'0x00c0'
p271
I1
sS'0x00ad'
p272
I1
stp273
sS'147.32.84.165'
p274
(I247
(dp275
g5
I1
sg33
I1
sg34
I1
sg35
I1
sg36
I1
sg37
I1
sg38
I1
sg39
I1
sg40
I1
sg41
I1
sg42
I1
sg43
I1
sg44
I1
sg45
I1
sg46
I1
sg47
I1
sg48
I1
sg49
I1
sg50
I1
sg51
I1
sg52
I1
sg53
I1
sg54
I1
sg55
I1
sg56
I1
sg57
I1
sg58
I1
sg59
I1
sg60
I1
sg61
I1
sg62
I1
sg63
I1
sg64
I1
sg65
I1
sg66
I1
sg67
I1
sg68
I1
sg69
I1
sg70
I1
sg71
I1
sg72
I1
sg73
I1
sg74
I1
sg75
I1
sg4
I1
sg76
I1
sg77
I1
sg78
I1
sg79
I1
sg80
I1
sg81
I1
sg82
I1
sg83
I1
sg84
I1
sg85
I1
sg86
I1
sg87
I1
sg88
I1
sg89
I1
sg90
I1
sg91
I1
sg92
I1
sg93
I1
sg94
I1
sg95
I1
sg96
I1
sg97
I1
sg98
I1
sg99
I1
sg100
I1
sg101
I1
sg102
I1
sg103
I1
sg104
I1
sg6
I4
sg3
I1
sg105
I1
sg106
I1
sg107
I1
sg108
I1
sg109
I1
sg110
I1
sg111
I1
sg112
I1
sg113
I1
sg114
I1
sg115
I1
sg116
I1
sg117
I1
sg118
I1
sg119
I1
sg120
I1
sg121
I1
sg122
I1
sg123
I1
sg124
I1
sg125
I1
sg126
I1
sg127
I1
sg128
I1
sg129
I1
sg130
I1
sg131
I1
sg132
I1
sg133
I1
sg134
I1
sg135
I1
sg136
I1
sg137
I1
sg138
I1
sg139
I1
sg140
I1
sg141
I1
sg142
I1
sg143
I1
sg144
I1
sg145
I1
sg146
I1
sg147
I1
sg148
I1
sg149
I1
sg150
I1
sg151
I1
sg152
I1
sg153
I1
sg154
I1
sg155
I1
sg156
I1
sg157
I1
sg158
I1
sg159
I1
sg160
I1
sg161
I1
sg162
I1
sg163
I1
sg164
I1
sg165
I1
sg166
I1
sg167
I1
sg168
I1
sg169
I1
sg170
I1
sg171
I1
sg172
I1
sg173
I1
sg174
I1
sg175
I1
sg176
I1
sg177
I1
sg178
I1
sg179
I1
sg180
I1
sg181
I1
sg182
I1
sg183
I1
sg184
I1
sg185
I1
sg186
I1
sg187
I1
sg188
I1
sg189
I1
sg190
I1
sg191
I1
sg192
I1
sg193
I1
sg194
I1
sg195
I1
sg196
I1
sg197
I1
sg198
I1
sg199
I1
sg200
I1
sg201
I1
sg202
I1
sg203
I1
sg204
I1
sg205
I1
sg206
I1
sg207
I1
sg208
I1
sg209
I1
sg210
I1
sg211
I1
sg212
I1
sg213
I1
sg214
I1
sg215
I1
sg216
I1
sg217
I1
sg218
I1
sg219
I1
sg220
I1
sg221
I1
sg222
I1
sg223
I1
sg224
I1
sg225
I1
sg226
I1
sg227
I1
sg228
I1
sg229
I1
sg230
I1
sg231
I1
sg232
I1
sg233
I1
sg234
I1
sg235
I1
sg236
I1
sg237
I1
sg238
I1
sg239
I1
sg240
I1
sg241
I1
sg242
I1
sg243
I1
sg244
I1
sg245
I1
sg246
I1
sg247
I1
sg248
I1
sg249
I1
sg250
I1
sg251
I1
sg252
I1
sg253
I1
sg254
I1
sg255
I1
sg256
I1
sg257
I1
sg258
I1
sg259
I1
sg260
I1
sg261
I1
sg262
I1
sg263
I1
sg264
I1
sg265
I1
sg266
I1
sg267
I1
sg268
I1
sg269
I1
sg270
I1
sg271
I1
sg272
I1
stp276
sS'147.32.84.164'
p277
(I2113
(dp278
g14
I3
sg24
I1
sS'0x21aa'
p279
I718
sS'0x2311'
p280
I1371
sg6
I20
stp281
s.