(dp0
S'147.32.80.9'
p1
(I5
(dp2
S'63990'
p3
I1
sS'64443'
p4
I2
sS'57062'
p5
I2
stp6
sS'147.32.84.134'
p7
(I1107
(dp8
S'443'
p9
I148
sS'80'
p10
I316
sS'993'
p11
I1
sS'8950'
p12
I11
sS'53'
p13
I631
stp14
sS'147.32.84.170'
p15
(I1810
(dp16
g9
I93
sS'5222'
p17
I2
sg10
I574
sg13
I1141
stp18
sS'147.32.87.11'
p19
(I1
(dp20
S'60032'
p21
I1
stp22
sS'147.32.87.36'
p23
(I12
(dp24
S'123'
p25
I1
sg13
I11
stp26
sS'147.32.84.165'
p27
(I901
(dp28
S'25'
p29
I19
sS'3128'
p30
I30
sS'587'
p31
I19
sg9
I347
sS'6667'
p32
I114
sg13
I52
sS'88'
p33
I6
sS'65500'
p34
I181
sg10
I132
sS'2012'
p35
I1
stp36
sS'147.32.84.164'
p37
(I1722
(dp38
g9
I55
sg10
I487
sg13
I1180
stp39
s.